
========================================================================

** ELF Header Information

    File Name: .\Objects\thermal_printer.axf

    Machine class: ELFCLASS32 (32-bit)
    Data encoding: ELFDATA2LSB (Little endian)
    Header version: EV_CURRENT (Current version)
    Operating System ABI: none
    ABI Version: 0
    File Type: ET_EXEC (Executable) (2)
    Machine: EM_ARM (ARM)

    Image Entry point: 0x01000401
    Flags: EF_ARM_HASENTRY + EF_ARM_ABI_FLOAT_SOFT (0x05000202)

    ARM ELF revision: 5 (ABI version 2)

    Conforms to Soft float procedure-call standard

    Built with
    Component: ARM Compiler 5.06 update 6 (build 750) Tool: armasm [4d35ec]
    Component: ARM Compiler 5.06 update 6 (build 750) Tool: armlink [4d35ed]

    Header size: 52 bytes (0x34)
    Program header entry size: 32 bytes (0x20)
    Section header entry size: 40 bytes (0x28)

    Program header entries: 3
    Section header entries: 18

    Program header offset: 306136 (0x0004abd8)
    Section header offset: 306232 (0x0004ac38)

    Section header string table index: 17

========================================================================

** Program header #0 (PT_LOAD) [PF_X + PF_R]
    Size : 212 bytes
    Virtual address: 0x00000000 (Alignment 16)


====================================

** Program header #1 (PT_LOAD) [PF_X + PF_R]
    Size : 312 bytes
    Virtual address: 0x01000200 (Alignment 16)


====================================

** Program header #2 (PT_LOAD) [PF_X + PF_W + PF_R + PF_ARM_ENTRY]
    Size : 46476 bytes (32848 bytes in file)
    Virtual address: 0x01000400 (Alignment 4)


========================================================================

** Section #1 'ER_IROM1' (SHT_PROGBITS) [SHF_ALLOC + SHF_EXECINSTR]
    Size   : 212 bytes (alignment 16)
    Address: 0x00000000

    $d.realdata
    RESET
    __Vectors
        0x00000000:    00030000    ....    DCD    196608
        0x00000004:    000000c1    ....    DCD    193
        0x00000008:    000000cf    ....    DCD    207
        0x0000000c:    01000205    ....    DCD    16777733
        0x00000010:    00000000    ....    DCD    0
        0x00000014:    00000000    ....    DCD    0
        0x00000018:    00000000    ....    DCD    0
        0x0000001c:    00000000    ....    DCD    0
        0x00000020:    00000000    ....    DCD    0
        0x00000024:    00000000    ....    DCD    0
        0x00000028:    00000000    ....    DCD    0
        0x0000002c:    00000000    ....    DCD    0
        0x00000030:    00000000    ....    DCD    0
        0x00000034:    00000000    ....    DCD    0
        0x00000038:    00000000    ....    DCD    0
        0x0000003c:    01000217    ....    DCD    16777751
        0x00000040:    0100021d    ....    DCD    16777757
        0x00000044:    01000221    !...    DCD    16777761
        0x00000048:    01000225    %...    DCD    16777765
        0x0000004c:    01000229    )...    DCD    16777769
        0x00000050:    0100022d    -...    DCD    16777773
        0x00000054:    01000231    1...    DCD    16777777
        0x00000058:    01000235    5...    DCD    16777781
        0x0000005c:    01000239    9...    DCD    16777785
        0x00000060:    0100023d    =...    DCD    16777789
        0x00000064:    01000241    A...    DCD    16777793
        0x00000068:    01000245    E...    DCD    16777797
        0x0000006c:    01000249    I...    DCD    16777801
        0x00000070:    0100024d    M...    DCD    16777805
        0x00000074:    01000251    Q...    DCD    16777809
        0x00000078:    01000255    U...    DCD    16777813
        0x0000007c:    01000259    Y...    DCD    16777817
        0x00000080:    0100025d    ]...    DCD    16777821
        0x00000084:    01000261    a...    DCD    16777825
        0x00000088:    01000265    e...    DCD    16777829
        0x0000008c:    01000269    i...    DCD    16777833
        0x00000090:    0100026d    m...    DCD    16777837
        0x00000094:    01000271    q...    DCD    16777841
        0x00000098:    01000275    u...    DCD    16777845
        0x0000009c:    01000279    y...    DCD    16777849
        0x000000a0:    0100027d    }...    DCD    16777853
        0x000000a4:    01000281    ....    DCD    16777857
        0x000000a8:    01000285    ....    DCD    16777861
        0x000000ac:    01000289    ....    DCD    16777865
        0x000000b0:    0100028d    ....    DCD    16777869
        0x000000b4:    01000291    ....    DCD    16777873
        0x000000b8:    01000295    ....    DCD    16777877
        0x000000bc:    01000299    ....    DCD    16777881
    $t
    .text
    __Vectors_End
    reset_handler
        0x000000c0:    4803        .H      LDR      r0,[pc,#12] ; [0xd0] = 0x1000201
        0x000000c2:    4700        .G      BX       r0
        0x000000c4:    bf00        ..      NOP      
    delay
        0x000000c6:    3801        .8      SUBS     r0,#1
        0x000000c8:    d1fd        ..      BNE      delay ; 0xc6
        0x000000ca:    bf00        ..      NOP      
        0x000000cc:    4770        pG      BX       lr
    nmi_handler
        0x000000ce:    e7fe        ..      B        nmi_handler ; 0xce
    $d
        0x000000d0:    01000201    ....    DCD    16777729

** Section #2 'ER_IROM3' (SHT_PROGBITS) [SHF_ALLOC + SHF_EXECINSTR]
    Size   : 312 bytes (alignment 16)
    Address: 0x01000200

    $t
    .flash_start
    Reset_Handler
        0x01000200:    484b        KH      LDR      r0,[pc,#300] ; [0x1000330] = 0x1000401
        0x01000202:    4700        .G      BX       r0
    hard_fault_handler
        0x01000204:    f000f853    ..S.    BL       HARD_FAULT_IRQHandler ; 0x10002ae
        0x01000208:    e04b        K.      B        isr_ret ; 0x10002a2
    svc_handler
        0x0100020a:    f000f851    ..Q.    BL       SVC_IRQHandler ; 0x10002b0
        0x0100020e:    e048        H.      B        isr_ret ; 0x10002a2
    pendsv_handler
        0x01000210:    f000f84f    ..O.    BL       PENDSV_IRQHandler ; 0x10002b2
        0x01000214:    e045        E.      B        isr_ret ; 0x10002a2
    systick
        0x01000216:    f004fbe6    ....    BL       SYSTICK_IRQHandler ; 0x10049e6
        0x0100021a:    e042        B.      B        isr_ret ; 0x10002a2
    irq0
        0x0100021c:    2000        .       MOVS     r0,#0
        0x0100021e:    e03d        =.      B        isr ; 0x100029c
    irq1
        0x01000220:    2004        .       MOVS     r0,#4
        0x01000222:    e03b        ;.      B        isr ; 0x100029c
    irq2
        0x01000224:    2008        .       MOVS     r0,#8
        0x01000226:    e039        9.      B        isr ; 0x100029c
    irq3
        0x01000228:    200c        .       MOVS     r0,#0xc
        0x0100022a:    e037        7.      B        isr ; 0x100029c
    irq4
        0x0100022c:    2010        .       MOVS     r0,#0x10
        0x0100022e:    e035        5.      B        isr ; 0x100029c
    irq5
        0x01000230:    2014        .       MOVS     r0,#0x14
        0x01000232:    e033        3.      B        isr ; 0x100029c
    irq6
        0x01000234:    2018        .       MOVS     r0,#0x18
        0x01000236:    e031        1.      B        isr ; 0x100029c
    irq7
        0x01000238:    201c        .       MOVS     r0,#0x1c
        0x0100023a:    e02f        /.      B        isr ; 0x100029c
    irq8
        0x0100023c:    2020                MOVS     r0,#0x20
        0x0100023e:    e02d        -.      B        isr ; 0x100029c
    irq9
        0x01000240:    2024        $       MOVS     r0,#0x24
        0x01000242:    e02b        +.      B        isr ; 0x100029c
    irq10
        0x01000244:    2028        (       MOVS     r0,#0x28
        0x01000246:    e029        ).      B        isr ; 0x100029c
    irq11
        0x01000248:    202c        ,       MOVS     r0,#0x2c
        0x0100024a:    e027        '.      B        isr ; 0x100029c
    irq12
        0x0100024c:    2030        0       MOVS     r0,#0x30
        0x0100024e:    e025        %.      B        isr ; 0x100029c
    irq13
        0x01000250:    2034        4       MOVS     r0,#0x34
        0x01000252:    e023        #.      B        isr ; 0x100029c
    irq14
        0x01000254:    2038        8       MOVS     r0,#0x38
        0x01000256:    e021        !.      B        isr ; 0x100029c
    irq15
        0x01000258:    203c        <       MOVS     r0,#0x3c
        0x0100025a:    e01f        ..      B        isr ; 0x100029c
    irq16
        0x0100025c:    2040        @       MOVS     r0,#0x40
        0x0100025e:    e01d        ..      B        isr ; 0x100029c
    irq17
        0x01000260:    2044        D       MOVS     r0,#0x44
        0x01000262:    e01b        ..      B        isr ; 0x100029c
    irq18
        0x01000264:    2048        H       MOVS     r0,#0x48
        0x01000266:    e019        ..      B        isr ; 0x100029c
    irq19
        0x01000268:    204c        L       MOVS     r0,#0x4c
        0x0100026a:    e017        ..      B        isr ; 0x100029c
    irq20
        0x0100026c:    2050        P       MOVS     r0,#0x50
        0x0100026e:    e015        ..      B        isr ; 0x100029c
    irq21
        0x01000270:    2054        T       MOVS     r0,#0x54
        0x01000272:    e013        ..      B        isr ; 0x100029c
    irq22
        0x01000274:    2058        X       MOVS     r0,#0x58
        0x01000276:    e011        ..      B        isr ; 0x100029c
    irq23
        0x01000278:    205c        \       MOVS     r0,#0x5c
        0x0100027a:    e00f        ..      B        isr ; 0x100029c
    irq24
        0x0100027c:    2060        `       MOVS     r0,#0x60
        0x0100027e:    e00d        ..      B        isr ; 0x100029c
    irq25
        0x01000280:    2064        d       MOVS     r0,#0x64
        0x01000282:    e00b        ..      B        isr ; 0x100029c
    irq26
        0x01000284:    2068        h       MOVS     r0,#0x68
        0x01000286:    e009        ..      B        isr ; 0x100029c
    irq27
        0x01000288:    206c        l       MOVS     r0,#0x6c
        0x0100028a:    e007        ..      B        isr ; 0x100029c
    irq28
        0x0100028c:    2070        p       MOVS     r0,#0x70
        0x0100028e:    e005        ..      B        isr ; 0x100029c
    irq29
        0x01000290:    2074        t       MOVS     r0,#0x74
        0x01000292:    e003        ..      B        isr ; 0x100029c
    irq30
        0x01000294:    2078        x       MOVS     r0,#0x78
        0x01000296:    e001        ..      B        isr ; 0x100029c
    irq31
        0x01000298:    207c        |       MOVS     r0,#0x7c
        0x0100029a:    46c0        .F      MOV      r8,r8
    isr
        0x0100029c:    4925        %I      LDR      r1,[pc,#148] ; [0x1000334] = 0x10002c4
        0x0100029e:    5840        @X      LDR      r0,[r0,r1]
        0x010002a0:    4700        .G      BX       r0
    isr_ret
        0x010002a2:    2000        .       MOVS     r0,#0
        0x010002a4:    3807        .8      SUBS     r0,#7
        0x010002a6:    4686        .F      MOV      lr,r0
        0x010002a8:    4770        pG      BX       lr
    $d
        0x010002aa:    0000        ..      DCW    0
    $t
    NMI_IRQHandler
        0x010002ac:    e7fe        ..      B        NMI_IRQHandler ; 0x10002ac
    HARD_FAULT_IRQHandler
        0x010002ae:    e7fe        ..      B        HARD_FAULT_IRQHandler ; 0x10002ae
    SVC_IRQHandler
        0x010002b0:    e7fe        ..      B        SVC_IRQHandler ; 0x10002b0
    PENDSV_IRQHandler
        0x010002b2:    e7fe        ..      B        PENDSV_IRQHandler ; 0x10002b2
        0x010002b4:    e7fe        ..      B        0x10002b4 ; PENDSV_IRQHandler + 2
    EXTI0_IRQHandler
        0x010002b6:    e7fe        ..      B        EXTI0_IRQHandler ; 0x10002b6
    EXTI1_IRQHandler
        0x010002b8:    e7fe        ..      B        EXTI1_IRQHandler ; 0x10002b8
    EXTI2_IRQHandler
        0x010002ba:    e7fe        ..      B        EXTI2_IRQHandler ; 0x10002ba
    EXTI3_IRQHandler
        0x010002bc:    e7fe        ..      B        EXTI3_IRQHandler ; 0x10002bc
    EXTI4_IRQHandler
        0x010002be:    e7fe        ..      B        EXTI4_IRQHandler ; 0x10002be
    EXTI5_IRQHandler
        0x010002c0:    e7fe        ..      B        EXTI5_IRQHandler ; 0x10002c0
    IIC_IRQHandler
    MEMCP_IRQHandler
    MSR_IRQHandler
    QSPI_IRQHandler
    RSA_IRQHandler
    SCI0_IRQHandler
    SCI1_IRQHandler
    SEC_IRQHandler
    SM4_IRQHandler
    SPI0_IRQHandler
    SPI1_IRQHandler
    TIMER0_IRQHandler
    TIMER1_IRQHandler
    TIMER2_IRQHandler
    TIMER3_IRQHandler
    TIMER7_IRQHandler
    TIMER8_IRQHandler
    TRNG_IRQHandler
    UART0_IRQHandler
    UART1_IRQHandler
    USB_IRQHandler
    WDT_IRQHandler
        0x010002c2:    e7fe        ..      B        IIC_IRQHandler ; 0x10002c2
    $d
    isr_table
        0x010002c4:    010002c3    ....    DCD    16777923
        0x010002c8:    010002c3    ....    DCD    16777923
        0x010002cc:    010002c3    ....    DCD    16777923
        0x010002d0:    010002c3    ....    DCD    16777923
        0x010002d4:    010002c3    ....    DCD    16777923
        0x010002d8:    010002c3    ....    DCD    16777923
        0x010002dc:    010002c3    ....    DCD    16777923
        0x010002e0:    010002c3    ....    DCD    16777923
        0x010002e4:    010002c3    ....    DCD    16777923
        0x010002e8:    010002c3    ....    DCD    16777923
        0x010002ec:    010002c3    ....    DCD    16777923
        0x010002f0:    01005151    QQ..    DCD    16798033
        0x010002f4:    010010bb    ....    DCD    16781499
        0x010002f8:    010002c3    ....    DCD    16777923
        0x010002fc:    010002c3    ....    DCD    16777923
        0x01000300:    010002c3    ....    DCD    16777923
        0x01000304:    010002c3    ....    DCD    16777923
        0x01000308:    01004987    .I..    DCD    16796039
        0x0100030c:    0100498f    .I..    DCD    16796047
        0x01000310:    01004a5f    _J..    DCD    16796255
        0x01000314:    010002c3    ....    DCD    16777923
        0x01000318:    010002c3    ....    DCD    16777923
        0x0100031c:    010002c3    ....    DCD    16777923
        0x01000320:    010002c3    ....    DCD    16777923
        0x01000324:    010002c3    ....    DCD    16777923
        0x01000328:    010002c3    ....    DCD    16777923
        0x0100032c:    010002c3    ....    DCD    16777923
        0x01000330:    01000401    ....    DCD    16778241
        0x01000334:    010002c4    ....    DCD    16777924

** Section #3 'ER_IROM4' (SHT_PROGBITS) [SHF_ALLOC + SHF_EXECINSTR]
    Size   : 32740 bytes (alignment 4)
    Address: 0x01000400

    $t
    .ARM.Collect$$$$00000000
    .ARM.Collect$$$$00000001
    __main
    _main_stk
        0x01000400:    4803        .H      LDR      r0,__lit__00000000 ; [0x1000410] = 0x30000
        0x01000402:    4685        .F      MOV      sp,r0
    .ARM.Collect$$$$00000004
    _main_scatterload
        0x01000404:    f006fb32    ..2.    BL       __scatterload ; 0x1006a6c
    .ARM.Collect$$$$00000008
    .ARM.Collect$$$$0000000A
    .ARM.Collect$$$$0000000B
    __main_after_scatterload
    _main_clock
    _main_cpp_init
    _main_init
        0x01000408:    4800        .H      LDR      r0,[pc,#0] ; [0x100040c] = 0x1006427
        0x0100040a:    4700        .G      BX       r0
    $d
        0x0100040c:    01006427    'd..    DCD    16802855
    .ARM.Collect$$$$00002712
    __lit__00000000
    .ARM.Collect$$$$0000000D
    .ARM.Collect$$$$0000000F
    __rt_final_cpp
    __rt_final_exit
        0x01000410:    00030000    ....    DCD    196608
    $t
    .text
    NVIC_SetPriority
        0x01000414:    b510        ..      PUSH     {r4,lr}
        0x01000416:    4602        .F      MOV      r2,r0
        0x01000418:    2a00        .*      CMP      r2,#0
        0x0100041a:    da19        ..      BGE      0x1000450 ; NVIC_SetPriority + 60
        0x0100041c:    4832        2H      LDR      r0,[pc,#200] ; [0x10004e8] = 0xe000ed1c
        0x0100041e:    0713        ..      LSLS     r3,r2,#28
        0x01000420:    0f1b        ..      LSRS     r3,r3,#28
        0x01000422:    3b08        .;      SUBS     r3,r3,#8
        0x01000424:    089b        ..      LSRS     r3,r3,#2
        0x01000426:    009b        ..      LSLS     r3,r3,#2
        0x01000428:    58c0        .X      LDR      r0,[r0,r3]
        0x0100042a:    0793        ..      LSLS     r3,r2,#30
        0x0100042c:    0edc        ..      LSRS     r4,r3,#27
        0x0100042e:    23ff        .#      MOVS     r3,#0xff
        0x01000430:    40a3        .@      LSLS     r3,r3,r4
        0x01000432:    4398        .C      BICS     r0,r0,r3
        0x01000434:    078b        ..      LSLS     r3,r1,#30
        0x01000436:    0e1b        ..      LSRS     r3,r3,#24
        0x01000438:    0794        ..      LSLS     r4,r2,#30
        0x0100043a:    0ee4        ..      LSRS     r4,r4,#27
        0x0100043c:    40a3        .@      LSLS     r3,r3,r4
        0x0100043e:    4318        .C      ORRS     r0,r0,r3
        0x01000440:    4b29        )K      LDR      r3,[pc,#164] ; [0x10004e8] = 0xe000ed1c
        0x01000442:    0714        ..      LSLS     r4,r2,#28
        0x01000444:    0f24        $.      LSRS     r4,r4,#28
        0x01000446:    3c08        .<      SUBS     r4,r4,#8
        0x01000448:    08a4        ..      LSRS     r4,r4,#2
        0x0100044a:    00a4        ..      LSLS     r4,r4,#2
        0x0100044c:    5118        .Q      STR      r0,[r3,r4]
        0x0100044e:    e018        ..      B        0x1000482 ; NVIC_SetPriority + 110
        0x01000450:    4826        &H      LDR      r0,[pc,#152] ; [0x10004ec] = 0xe000e100
        0x01000452:    2303        .#      MOVS     r3,#3
        0x01000454:    021b        ..      LSLS     r3,r3,#8
        0x01000456:    18c0        ..      ADDS     r0,r0,r3
        0x01000458:    0893        ..      LSRS     r3,r2,#2
        0x0100045a:    009b        ..      LSLS     r3,r3,#2
        0x0100045c:    58c0        .X      LDR      r0,[r0,r3]
        0x0100045e:    0793        ..      LSLS     r3,r2,#30
        0x01000460:    0edc        ..      LSRS     r4,r3,#27
        0x01000462:    23ff        .#      MOVS     r3,#0xff
        0x01000464:    40a3        .@      LSLS     r3,r3,r4
        0x01000466:    4398        .C      BICS     r0,r0,r3
        0x01000468:    078b        ..      LSLS     r3,r1,#30
        0x0100046a:    0e1b        ..      LSRS     r3,r3,#24
        0x0100046c:    0794        ..      LSLS     r4,r2,#30
        0x0100046e:    0ee4        ..      LSRS     r4,r4,#27
        0x01000470:    40a3        .@      LSLS     r3,r3,r4
        0x01000472:    4318        .C      ORRS     r0,r0,r3
        0x01000474:    4b1d        .K      LDR      r3,[pc,#116] ; [0x10004ec] = 0xe000e100
        0x01000476:    2403        .$      MOVS     r4,#3
        0x01000478:    0224        $.      LSLS     r4,r4,#8
        0x0100047a:    191b        ..      ADDS     r3,r3,r4
        0x0100047c:    0894        ..      LSRS     r4,r2,#2
        0x0100047e:    00a4        ..      LSLS     r4,r4,#2
        0x01000480:    5118        .Q      STR      r0,[r3,r4]
        0x01000482:    2001        .       MOVS     r0,#1
        0x01000484:    bd10        ..      POP      {r4,pc}
    trigger_PendSV
        0x01000486:    4818        .H      LDR      r0,[pc,#96] ; [0x10004e8] = 0xe000ed1c
        0x01000488:    381c        .8      SUBS     r0,r0,#0x1c
        0x0100048a:    6840        @h      LDR      r0,[r0,#4]
        0x0100048c:    2101        .!      MOVS     r1,#1
        0x0100048e:    0709        ..      LSLS     r1,r1,#28
        0x01000490:    4308        .C      ORRS     r0,r0,r1
        0x01000492:    4915        .I      LDR      r1,[pc,#84] ; [0x10004e8] = 0xe000ed1c
        0x01000494:    391c        .9      SUBS     r1,r1,#0x1c
        0x01000496:    6048        H`      STR      r0,[r1,#4]
        0x01000498:    4770        pG      BX       lr
    NVIC_EnableIRQ
        0x0100049a:    bf00        ..      NOP      
        0x0100049c:    4913        .I      LDR      r1,[pc,#76] ; [0x10004ec] = 0xe000e100
        0x0100049e:    6809        .h      LDR      r1,[r1,#0]
        0x010004a0:    2201        ."      MOVS     r2,#1
        0x010004a2:    4082        .@      LSLS     r2,r2,r0
        0x010004a4:    4311        .C      ORRS     r1,r1,r2
        0x010004a6:    4a11        .J      LDR      r2,[pc,#68] ; [0x10004ec] = 0xe000e100
        0x010004a8:    6011        .`      STR      r1,[r2,#0]
        0x010004aa:    bf00        ..      NOP      
        0x010004ac:    4770        pG      BX       lr
    NVIC_DisableIRQ
        0x010004ae:    bf00        ..      NOP      
        0x010004b0:    2101        .!      MOVS     r1,#1
        0x010004b2:    4081        .@      LSLS     r1,r1,r0
        0x010004b4:    4a0d        .J      LDR      r2,[pc,#52] ; [0x10004ec] = 0xe000e100
        0x010004b6:    3280        .2      ADDS     r2,r2,#0x80
        0x010004b8:    6011        .`      STR      r1,[r2,#0]
        0x010004ba:    bf00        ..      NOP      
        0x010004bc:    4770        pG      BX       lr
    soft_reset
        0x010004be:    480c        .H      LDR      r0,[pc,#48] ; [0x10004f0] = 0xf8540
        0x010004c0:    6b40        @k      LDR      r0,[r0,#0x34]
        0x010004c2:    2101        .!      MOVS     r1,#1
        0x010004c4:    4308        .C      ORRS     r0,r0,r1
        0x010004c6:    490a        .I      LDR      r1,[pc,#40] ; [0x10004f0] = 0xf8540
        0x010004c8:    6348        Hc      STR      r0,[r1,#0x34]
        0x010004ca:    2055        U       MOVS     r0,#0x55
        0x010004cc:    63c8        .c      STR      r0,[r1,#0x3c]
        0x010004ce:    bf00        ..      NOP      
        0x010004d0:    e7fe        ..      B        0x10004d0 ; soft_reset + 18
    get_primask
        0x010004d2:    f3ef8010    ....    MRS      r0,PRIMASK
        0x010004d6:    4601        .F      MOV      r1,r0
        0x010004d8:    4770        pG      BX       lr
    get_msp
        0x010004da:    f3ef8008    ....    MRS      r0,MSP
        0x010004de:    4601        .F      MOV      r1,r0
        0x010004e0:    4770        pG      BX       lr
    set_msp
        0x010004e2:    f3808808    ....    MSR      MSP,r0
        0x010004e6:    4770        pG      BX       lr
    $d
        0x010004e8:    e000ed1c    ....    DCD    3758157084
        0x010004ec:    e000e100    ....    DCD    3758153984
        0x010004f0:    000f8540    @...    DCD    1017152
    $t
    .text
    printfsend
        0x010004f4:    b570        p.      PUSH     {r4-r6,lr}
        0x010004f6:    b0c0        ..      SUB      sp,sp,#0x100
        0x010004f8:    4606        .F      MOV      r6,r0
        0x010004fa:    460c        .F      MOV      r4,r1
        0x010004fc:    4615        .F      MOV      r5,r2
        0x010004fe:    2000        .       MOVS     r0,#0
        0x01000500:    e003        ..      B        0x100050a ; printfsend + 22
        0x01000502:    5c21        !\      LDRB     r1,[r4,r0]
        0x01000504:    466a        jF      MOV      r2,sp
        0x01000506:    5411        .T      STRB     r1,[r2,r0]
        0x01000508:    1c40        @.      ADDS     r0,r0,#1
        0x0100050a:    42a8        .B      CMP      r0,r5
        0x0100050c:    dbf9        ..      BLT      0x1000502 ; printfsend + 14
        0x0100050e:    462a        *F      MOV      r2,r5
        0x01000510:    4669        iF      MOV      r1,sp
        0x01000512:    4630        0F      MOV      r0,r6
        0x01000514:    f001f919    ....    BL       UART_SendBuf ; 0x100174a
        0x01000518:    b040        @.      ADD      sp,sp,#0x100
        0x0100051a:    bd70        p.      POP      {r4-r6,pc}
    MyPrintf
        0x0100051c:    b40f        ..      PUSH     {r0-r3}
        0x0100051e:    b5f0        ..      PUSH     {r4-r7,lr}
        0x01000520:    b08b        ..      SUB      sp,sp,#0x2c
        0x01000522:    a811        ..      ADD      r0,sp,#0x44
        0x01000524:    9001        ..      STR      r0,[sp,#4]
        0x01000526:    e148        H.      B        0x10007ba ; MyPrintf + 670
        0x01000528:    2400        .$      MOVS     r4,#0
        0x0100052a:    e000        ..      B        0x100052e ; MyPrintf + 18
        0x0100052c:    1c64        d.      ADDS     r4,r4,#1
        0x0100052e:    9810        ..      LDR      r0,[sp,#0x40]
        0x01000530:    5d00        .]      LDRB     r0,[r0,r4]
        0x01000532:    2825        %(      CMP      r0,#0x25
        0x01000534:    d003        ..      BEQ      0x100053e ; MyPrintf + 34
        0x01000536:    9810        ..      LDR      r0,[sp,#0x40]
        0x01000538:    5d00        .]      LDRB     r0,[r0,r4]
        0x0100053a:    2800        .(      CMP      r0,#0
        0x0100053c:    d1f6        ..      BNE      0x100052c ; MyPrintf + 16
        0x0100053e:    2c00        .,      CMP      r4,#0
        0x01000540:    d004        ..      BEQ      0x100054c ; MyPrintf + 48
        0x01000542:    4622        "F      MOV      r2,r4
        0x01000544:    2000        .       MOVS     r0,#0
        0x01000546:    9910        ..      LDR      r1,[sp,#0x40]
        0x01000548:    f7ffffd4    ....    BL       printfsend ; 0x10004f4
        0x0100054c:    9810        ..      LDR      r0,[sp,#0x40]
        0x0100054e:    1900        ..      ADDS     r0,r0,r4
        0x01000550:    9010        ..      STR      r0,[sp,#0x40]
        0x01000552:    9810        ..      LDR      r0,[sp,#0x40]
        0x01000554:    7800        .x      LDRB     r0,[r0,#0]
        0x01000556:    2825        %(      CMP      r0,#0x25
        0x01000558:    d1e5        ..      BNE      0x1000526 ; MyPrintf + 10
        0x0100055a:    9810        ..      LDR      r0,[sp,#0x40]
        0x0100055c:    1c40        @.      ADDS     r0,r0,#1
        0x0100055e:    9010        ..      STR      r0,[sp,#0x40]
        0x01000560:    2500        .%      MOVS     r5,#0
        0x01000562:    2020                MOVS     r0,#0x20
        0x01000564:    9003        ..      STR      r0,[sp,#0xc]
        0x01000566:    bf00        ..      NOP      
        0x01000568:    9810        ..      LDR      r0,[sp,#0x40]
        0x0100056a:    7801        .x      LDRB     r1,[r0,#0]
        0x0100056c:    1c40        @.      ADDS     r0,r0,#1
        0x0100056e:    9010        ..      STR      r0,[sp,#0x40]
        0x01000570:    2938        8)      CMP      r1,#0x38
        0x01000572:    d030        0.      BEQ      0x10005d6 ; MyPrintf + 186
        0x01000574:    dc14        ..      BGT      0x10005a0 ; MyPrintf + 132
        0x01000576:    2933        3)      CMP      r1,#0x33
        0x01000578:    d028        (.      BEQ      0x10005cc ; MyPrintf + 176
        0x0100057a:    dc08        ..      BGT      0x100058e ; MyPrintf + 114
        0x0100057c:    2925        %)      CMP      r1,#0x25
        0x0100057e:    d070        p.      BEQ      0x1000662 ; MyPrintf + 326
        0x01000580:    2930        0)      CMP      r1,#0x30
        0x01000582:    d020         .      BEQ      0x10005c6 ; MyPrintf + 170
        0x01000584:    2931        1)      CMP      r1,#0x31
        0x01000586:    d01f        ..      BEQ      0x10005c8 ; MyPrintf + 172
        0x01000588:    2932        2)      CMP      r1,#0x32
        0x0100058a:    d16b        k.      BNE      0x1000664 ; MyPrintf + 328
        0x0100058c:    e01d        ..      B        0x10005ca ; MyPrintf + 174
        0x0100058e:    2934        4)      CMP      r1,#0x34
        0x01000590:    d01d        ..      BEQ      0x10005ce ; MyPrintf + 178
        0x01000592:    2935        5)      CMP      r1,#0x35
        0x01000594:    d01c        ..      BEQ      0x10005d0 ; MyPrintf + 180
        0x01000596:    2936        6)      CMP      r1,#0x36
        0x01000598:    d01b        ..      BEQ      0x10005d2 ; MyPrintf + 182
        0x0100059a:    2937        7)      CMP      r1,#0x37
        0x0100059c:    d1f5        ..      BNE      0x100058a ; MyPrintf + 110
        0x0100059e:    e019        ..      B        0x10005d4 ; MyPrintf + 184
        0x010005a0:    2970        p)      CMP      r1,#0x70
        0x010005a2:    d075        u.      BEQ      0x1000690 ; MyPrintf + 372
        0x010005a4:    dc08        ..      BGT      0x10005b8 ; MyPrintf + 156
        0x010005a6:    2939        9)      CMP      r1,#0x39
        0x010005a8:    d016        ..      BEQ      0x10005d8 ; MyPrintf + 188
        0x010005aa:    2958        X)      CMP      r1,#0x58
        0x010005ac:    d072        r.      BEQ      0x1000694 ; MyPrintf + 376
        0x010005ae:    2963        c)      CMP      r1,#0x63
        0x010005b0:    d022        ".      BEQ      0x10005f8 ; MyPrintf + 220
        0x010005b2:    2964        d)      CMP      r1,#0x64
        0x010005b4:    d1e9        ..      BNE      0x100058a ; MyPrintf + 110
        0x010005b6:    e02b        +.      B        0x1000610 ; MyPrintf + 244
        0x010005b8:    2973        s)      CMP      r1,#0x73
        0x010005ba:    d03d        =.      BEQ      0x1000638 ; MyPrintf + 284
        0x010005bc:    2975        u)      CMP      r1,#0x75
        0x010005be:    d05c        \.      BEQ      0x100067a ; MyPrintf + 350
        0x010005c0:    2978        x)      CMP      r1,#0x78
        0x010005c2:    d1e2        ..      BNE      0x100058a ; MyPrintf + 110
        0x010005c4:    e073        s.      B        0x10006ae ; MyPrintf + 402
        0x010005c6:    bf00        ..      NOP      
        0x010005c8:    bf00        ..      NOP      
        0x010005ca:    bf00        ..      NOP      
        0x010005cc:    bf00        ..      NOP      
        0x010005ce:    bf00        ..      NOP      
        0x010005d0:    bf00        ..      NOP      
        0x010005d2:    bf00        ..      NOP      
        0x010005d4:    bf00        ..      NOP      
        0x010005d6:    bf00        ..      NOP      
        0x010005d8:    9810        ..      LDR      r0,[sp,#0x40]
        0x010005da:    3820         8      SUBS     r0,r0,#0x20
        0x010005dc:    7fc0        ..      LDRB     r0,[r0,#0x1f]
        0x010005de:    2830        0(      CMP      r0,#0x30
        0x010005e0:    d102        ..      BNE      0x10005e8 ; MyPrintf + 204
        0x010005e2:    2d00        .-      CMP      r5,#0
        0x010005e4:    d100        ..      BNE      0x10005e8 ; MyPrintf + 204
        0x010005e6:    9003        ..      STR      r0,[sp,#0xc]
        0x010005e8:    200a        .       MOVS     r0,#0xa
        0x010005ea:    4345        EC      MULS     r5,r0,r5
        0x010005ec:    9810        ..      LDR      r0,[sp,#0x40]
        0x010005ee:    3820         8      SUBS     r0,r0,#0x20
        0x010005f0:    7fc0        ..      LDRB     r0,[r0,#0x1f]
        0x010005f2:    3830        08      SUBS     r0,r0,#0x30
        0x010005f4:    1945        E.      ADDS     r5,r0,r5
        0x010005f6:    e7b7        ..      B        0x1000568 ; MyPrintf + 76
        0x010005f8:    9801        ..      LDR      r0,[sp,#4]
        0x010005fa:    6800        .h      LDR      r0,[r0,#0]
        0x010005fc:    900a        ..      STR      r0,[sp,#0x28]
        0x010005fe:    9801        ..      LDR      r0,[sp,#4]
        0x01000600:    1d00        ..      ADDS     r0,r0,#4
        0x01000602:    9001        ..      STR      r0,[sp,#4]
        0x01000604:    2201        ."      MOVS     r2,#1
        0x01000606:    a90a        ..      ADD      r1,sp,#0x28
        0x01000608:    2000        .       MOVS     r0,#0
        0x0100060a:    f7ffff73    ..s.    BL       printfsend ; 0x10004f4
        0x0100060e:    e0d3        ..      B        0x10007b8 ; MyPrintf + 668
        0x01000610:    9801        ..      LDR      r0,[sp,#4]
        0x01000612:    6800        .h      LDR      r0,[r0,#0]
        0x01000614:    900a        ..      STR      r0,[sp,#0x28]
        0x01000616:    9801        ..      LDR      r0,[sp,#4]
        0x01000618:    1d00        ..      ADDS     r0,r0,#4
        0x0100061a:    9001        ..      STR      r0,[sp,#4]
        0x0100061c:    2600        .&      MOVS     r6,#0
        0x0100061e:    980a        ..      LDR      r0,[sp,#0x28]
        0x01000620:    2800        .(      CMP      r0,#0
        0x01000622:    da05        ..      BGE      0x1000630 ; MyPrintf + 276
        0x01000624:    980a        ..      LDR      r0,[sp,#0x28]
        0x01000626:    4240        @B      RSBS     r0,r0,#0
        0x01000628:    900a        ..      STR      r0,[sp,#0x28]
        0x0100062a:    2001        .       MOVS     r0,#1
        0x0100062c:    9009        ..      STR      r0,[sp,#0x24]
        0x0100062e:    e001        ..      B        0x1000634 ; MyPrintf + 280
        0x01000630:    2000        .       MOVS     r0,#0
        0x01000632:    9009        ..      STR      r0,[sp,#0x24]
        0x01000634:    270a        .'      MOVS     r7,#0xa
        0x01000636:    e048        H.      B        0x10006ca ; MyPrintf + 430
        0x01000638:    9801        ..      LDR      r0,[sp,#4]
        0x0100063a:    6800        .h      LDR      r0,[r0,#0]
        0x0100063c:    9008        ..      STR      r0,[sp,#0x20]
        0x0100063e:    9801        ..      LDR      r0,[sp,#4]
        0x01000640:    1d00        ..      ADDS     r0,r0,#4
        0x01000642:    9001        ..      STR      r0,[sp,#4]
        0x01000644:    2400        .$      MOVS     r4,#0
        0x01000646:    e000        ..      B        0x100064a ; MyPrintf + 302
        0x01000648:    1c64        d.      ADDS     r4,r4,#1
        0x0100064a:    9808        ..      LDR      r0,[sp,#0x20]
        0x0100064c:    5d00        .]      LDRB     r0,[r0,r4]
        0x0100064e:    2800        .(      CMP      r0,#0
        0x01000650:    d1fa        ..      BNE      0x1000648 ; MyPrintf + 300
        0x01000652:    4622        "F      MOV      r2,r4
        0x01000654:    9908        ..      LDR      r1,[sp,#0x20]
        0x01000656:    f7ffff4d    ..M.    BL       printfsend ; 0x10004f4
        0x0100065a:    42a5        .B      CMP      r5,r4
        0x0100065c:    d90c        ..      BLS      0x1000678 ; MyPrintf + 348
        0x0100065e:    1b2d        -.      SUBS     r5,r5,r4
        0x01000660:    e006        ..      B        0x1000670 ; MyPrintf + 340
        0x01000662:    e09c        ..      B        0x100079e ; MyPrintf + 642
        0x01000664:    e0a2        ..      B        0x10007ac ; MyPrintf + 656
        0x01000666:    2201        ."      MOVS     r2,#1
        0x01000668:    a168        h.      ADR      r1,{pc}+0x1a4 ; 0x100080c
        0x0100066a:    2000        .       MOVS     r0,#0
        0x0100066c:    f7ffff42    ..B.    BL       printfsend ; 0x10004f4
        0x01000670:    4628        (F      MOV      r0,r5
        0x01000672:    1e6d        m.      SUBS     r5,r5,#1
        0x01000674:    2800        .(      CMP      r0,#0
        0x01000676:    d1f6        ..      BNE      0x1000666 ; MyPrintf + 330
        0x01000678:    e09e        ..      B        0x10007b8 ; MyPrintf + 668
        0x0100067a:    9801        ..      LDR      r0,[sp,#4]
        0x0100067c:    6800        .h      LDR      r0,[r0,#0]
        0x0100067e:    900a        ..      STR      r0,[sp,#0x28]
        0x01000680:    9801        ..      LDR      r0,[sp,#4]
        0x01000682:    1d00        ..      ADDS     r0,r0,#4
        0x01000684:    9001        ..      STR      r0,[sp,#4]
        0x01000686:    2600        .&      MOVS     r6,#0
        0x01000688:    270a        .'      MOVS     r7,#0xa
        0x0100068a:    2000        .       MOVS     r0,#0
        0x0100068c:    9009        ..      STR      r0,[sp,#0x24]
        0x0100068e:    e01c        ..      B        0x10006ca ; MyPrintf + 430
        0x01000690:    e00e        ..      B        0x10006b0 ; MyPrintf + 404
        0x01000692:    e7ff        ..      B        0x1000694 ; MyPrintf + 376
        0x01000694:    9801        ..      LDR      r0,[sp,#4]
        0x01000696:    6800        .h      LDR      r0,[r0,#0]
        0x01000698:    900a        ..      STR      r0,[sp,#0x28]
        0x0100069a:    9801        ..      LDR      r0,[sp,#4]
        0x0100069c:    1d00        ..      ADDS     r0,r0,#4
        0x0100069e:    9001        ..      STR      r0,[sp,#4]
        0x010006a0:    2600        .&      MOVS     r6,#0
        0x010006a2:    2710        .'      MOVS     r7,#0x10
        0x010006a4:    2000        .       MOVS     r0,#0
        0x010006a6:    9009        ..      STR      r0,[sp,#0x24]
        0x010006a8:    2058        X       MOVS     r0,#0x58
        0x010006aa:    9002        ..      STR      r0,[sp,#8]
        0x010006ac:    e00d        ..      B        0x10006ca ; MyPrintf + 430
        0x010006ae:    bf00        ..      NOP      
        0x010006b0:    9801        ..      LDR      r0,[sp,#4]
        0x010006b2:    6800        .h      LDR      r0,[r0,#0]
        0x010006b4:    900a        ..      STR      r0,[sp,#0x28]
        0x010006b6:    9801        ..      LDR      r0,[sp,#4]
        0x010006b8:    1d00        ..      ADDS     r0,r0,#4
        0x010006ba:    9001        ..      STR      r0,[sp,#4]
        0x010006bc:    2600        .&      MOVS     r6,#0
        0x010006be:    2710        .'      MOVS     r7,#0x10
        0x010006c0:    2000        .       MOVS     r0,#0
        0x010006c2:    9009        ..      STR      r0,[sp,#0x24]
        0x010006c4:    2078        x       MOVS     r0,#0x78
        0x010006c6:    9002        ..      STR      r0,[sp,#8]
        0x010006c8:    bf00        ..      NOP      
        0x010006ca:    2401        .$      MOVS     r4,#1
        0x010006cc:    e003        ..      B        0x10006d6 ; MyPrintf + 442
        0x010006ce:    4620         F      MOV      r0,r4
        0x010006d0:    4378        xC      MULS     r0,r7,r0
        0x010006d2:    4604        .F      MOV      r4,r0
        0x010006d4:    1e6d        m.      SUBS     r5,r5,#1
        0x010006d6:    4620         F      MOV      r0,r4
        0x010006d8:    4378        xC      MULS     r0,r7,r0
        0x010006da:    990a        ..      LDR      r1,[sp,#0x28]
        0x010006dc:    4288        .B      CMP      r0,r1
        0x010006de:    d807        ..      BHI      0x10006f0 ; MyPrintf + 468
        0x010006e0:    4621        !F      MOV      r1,r4
        0x010006e2:    4379        yC      MULS     r1,r7,r1
        0x010006e4:    4608        .F      MOV      r0,r1
        0x010006e6:    4639        9F      MOV      r1,r7
        0x010006e8:    f005ff68    ..h.    BL       __aeabi_uidiv ; 0x10065bc
        0x010006ec:    42a0        .B      CMP      r0,r4
        0x010006ee:    d0ee        ..      BEQ      0x10006ce ; MyPrintf + 434
        0x010006f0:    9809        ..      LDR      r0,[sp,#0x24]
        0x010006f2:    2800        .(      CMP      r0,#0
        0x010006f4:    d000        ..      BEQ      0x10006f8 ; MyPrintf + 476
        0x010006f6:    1e6d        m.      SUBS     r5,r5,#1
        0x010006f8:    9809        ..      LDR      r0,[sp,#0x24]
        0x010006fa:    2800        .(      CMP      r0,#0
        0x010006fc:    d009        ..      BEQ      0x1000712 ; MyPrintf + 502
        0x010006fe:    9803        ..      LDR      r0,[sp,#0xc]
        0x01000700:    2830        0(      CMP      r0,#0x30
        0x01000702:    d106        ..      BNE      0x1000712 ; MyPrintf + 502
        0x01000704:    222d        -"      MOVS     r2,#0x2d
        0x01000706:    4630        0F      MOV      r0,r6
        0x01000708:    1c76        v.      ADDS     r6,r6,#1
        0x0100070a:    a904        ..      ADD      r1,sp,#0x10
        0x0100070c:    540a        .T      STRB     r2,[r1,r0]
        0x0100070e:    2000        .       MOVS     r0,#0
        0x01000710:    9009        ..      STR      r0,[sp,#0x24]
        0x01000712:    2d01        .-      CMP      r5,#1
        0x01000714:    d90b        ..      BLS      0x100072e ; MyPrintf + 530
        0x01000716:    2d10        .-      CMP      r5,#0x10
        0x01000718:    d209        ..      BCS      0x100072e ; MyPrintf + 530
        0x0100071a:    1e6d        m.      SUBS     r5,r5,#1
        0x0100071c:    e005        ..      B        0x100072a ; MyPrintf + 526
        0x0100071e:    4631        1F      MOV      r1,r6
        0x01000720:    1c76        v.      ADDS     r6,r6,#1
        0x01000722:    aa04        ..      ADD      r2,sp,#0x10
        0x01000724:    9803        ..      LDR      r0,[sp,#0xc]
        0x01000726:    5450        PT      STRB     r0,[r2,r1]
        0x01000728:    1e6d        m.      SUBS     r5,r5,#1
        0x0100072a:    2d00        .-      CMP      r5,#0
        0x0100072c:    d1f7        ..      BNE      0x100071e ; MyPrintf + 514
        0x0100072e:    9809        ..      LDR      r0,[sp,#0x24]
        0x01000730:    2800        .(      CMP      r0,#0
        0x01000732:    d004        ..      BEQ      0x100073e ; MyPrintf + 546
        0x01000734:    222d        -"      MOVS     r2,#0x2d
        0x01000736:    4630        0F      MOV      r0,r6
        0x01000738:    1c76        v.      ADDS     r6,r6,#1
        0x0100073a:    a904        ..      ADD      r1,sp,#0x10
        0x0100073c:    540a        .T      STRB     r2,[r1,r0]
        0x0100073e:    e026        &.      B        0x100078e ; MyPrintf + 626
        0x01000740:    9802        ..      LDR      r0,[sp,#8]
        0x01000742:    2878        x(      CMP      r0,#0x78
        0x01000744:    d10f        ..      BNE      0x1000766 ; MyPrintf + 586
        0x01000746:    4621        !F      MOV      r1,r4
        0x01000748:    980a        ..      LDR      r0,[sp,#0x28]
        0x0100074a:    f005ff37    ..7.    BL       __aeabi_uidiv ; 0x10065bc
        0x0100074e:    4639        9F      MOV      r1,r7
        0x01000750:    9000        ..      STR      r0,[sp,#0]
        0x01000752:    f005ff33    ..3.    BL       __aeabi_uidiv ; 0x10065bc
        0x01000756:    482e        .H      LDR      r0,[pc,#184] ; [0x1000810] = 0x100753c
        0x01000758:    6800        .h      LDR      r0,[r0,#0]
        0x0100075a:    5c42        B\      LDRB     r2,[r0,r1]
        0x0100075c:    4630        0F      MOV      r0,r6
        0x0100075e:    1c76        v.      ADDS     r6,r6,#1
        0x01000760:    a904        ..      ADD      r1,sp,#0x10
        0x01000762:    540a        .T      STRB     r2,[r1,r0]
        0x01000764:    e00e        ..      B        0x1000784 ; MyPrintf + 616
        0x01000766:    4621        !F      MOV      r1,r4
        0x01000768:    980a        ..      LDR      r0,[sp,#0x28]
        0x0100076a:    f005ff27    ..'.    BL       __aeabi_uidiv ; 0x10065bc
        0x0100076e:    4639        9F      MOV      r1,r7
        0x01000770:    9000        ..      STR      r0,[sp,#0]
        0x01000772:    f005ff23    ..#.    BL       __aeabi_uidiv ; 0x10065bc
        0x01000776:    4827        'H      LDR      r0,[pc,#156] ; [0x1000814] = 0x1007540
        0x01000778:    6800        .h      LDR      r0,[r0,#0]
        0x0100077a:    5c42        B\      LDRB     r2,[r0,r1]
        0x0100077c:    4630        0F      MOV      r0,r6
        0x0100077e:    1c76        v.      ADDS     r6,r6,#1
        0x01000780:    a904        ..      ADD      r1,sp,#0x10
        0x01000782:    540a        .T      STRB     r2,[r1,r0]
        0x01000784:    4639        9F      MOV      r1,r7
        0x01000786:    4620         F      MOV      r0,r4
        0x01000788:    f005ff18    ....    BL       __aeabi_uidiv ; 0x10065bc
        0x0100078c:    4604        .F      MOV      r4,r0
        0x0100078e:    2c00        .,      CMP      r4,#0
        0x01000790:    d1d6        ..      BNE      0x1000740 ; MyPrintf + 548
        0x01000792:    4632        2F      MOV      r2,r6
        0x01000794:    a904        ..      ADD      r1,sp,#0x10
        0x01000796:    2000        .       MOVS     r0,#0
        0x01000798:    f7fffeac    ....    BL       printfsend ; 0x10004f4
        0x0100079c:    e00c        ..      B        0x10007b8 ; MyPrintf + 668
        0x0100079e:    9810        ..      LDR      r0,[sp,#0x40]
        0x010007a0:    1e41        A.      SUBS     r1,r0,#1
        0x010007a2:    2201        ."      MOVS     r2,#1
        0x010007a4:    2000        .       MOVS     r0,#0
        0x010007a6:    f7fffea5    ....    BL       printfsend ; 0x10004f4
        0x010007aa:    e005        ..      B        0x10007b8 ; MyPrintf + 668
        0x010007ac:    2205        ."      MOVS     r2,#5
        0x010007ae:    a11a        ..      ADR      r1,{pc}+0x6a ; 0x1000818
        0x010007b0:    2000        .       MOVS     r0,#0
        0x010007b2:    f7fffe9f    ....    BL       printfsend ; 0x10004f4
        0x010007b6:    bf00        ..      NOP      
        0x010007b8:    bf00        ..      NOP      
        0x010007ba:    9810        ..      LDR      r0,[sp,#0x40]
        0x010007bc:    7800        .x      LDRB     r0,[r0,#0]
        0x010007be:    2800        .(      CMP      r0,#0
        0x010007c0:    d000        ..      BEQ      0x10007c4 ; MyPrintf + 680
        0x010007c2:    e6b1        ..      B        0x1000528 ; MyPrintf + 12
        0x010007c4:    9001        ..      STR      r0,[sp,#4]
        0x010007c6:    b00b        ..      ADD      sp,sp,#0x2c
        0x010007c8:    bcf0        ..      POP      {r4-r7}
        0x010007ca:    bc08        ..      POP      {r3}
        0x010007cc:    b004        ..      ADD      sp,sp,#0x10
        0x010007ce:    4718        .G      BX       r3
    printv
        0x010007d0:    b5f7        ..      PUSH     {r0-r2,r4-r7,lr}
        0x010007d2:    4605        .F      MOV      r5,r0
        0x010007d4:    460e        .F      MOV      r6,r1
        0x010007d6:    2400        .$      MOVS     r4,#0
        0x010007d8:    2700        .'      MOVS     r7,#0
        0x010007da:    a011        ..      ADR      r0,{pc}+0x46 ; 0x1000820
        0x010007dc:    9902        ..      LDR      r1,[sp,#8]
        0x010007de:    f7fffe9d    ....    BL       MyPrintf ; 0x100051c
        0x010007e2:    bf00        ..      NOP      
        0x010007e4:    e00d        ..      B        0x1000802 ; printv + 50
        0x010007e6:    0720         .      LSLS     r0,r4,#28
        0x010007e8:    0f00        ..      LSRS     r0,r0,#28
        0x010007ea:    2800        .(      CMP      r0,#0
        0x010007ec:    d104        ..      BNE      0x10007f8 ; printv + 40
        0x010007ee:    4639        9F      MOV      r1,r7
        0x010007f0:    a00d        ..      ADR      r0,{pc}+0x38 ; 0x1000828
        0x010007f2:    f7fffe93    ....    BL       MyPrintf ; 0x100051c
        0x010007f6:    3710        .7      ADDS     r7,r7,#0x10
        0x010007f8:    5d29        )]      LDRB     r1,[r5,r4]
        0x010007fa:    a00d        ..      ADR      r0,{pc}+0x36 ; 0x1000830
        0x010007fc:    f7fffe8e    ....    BL       MyPrintf ; 0x100051c
        0x01000800:    1c64        d.      ADDS     r4,r4,#1
        0x01000802:    42b4        .B      CMP      r4,r6
        0x01000804:    d3ef        ..      BCC      0x10007e6 ; printv + 22
        0x01000806:    bdfe        ..      POP      {r1-r7,pc}
    _assert_handler
        0x01000808:    bf00        ..      NOP      
        0x0100080a:    e7fe        ..      B        0x100080a ; _assert_handler + 2
    $d
        0x0100080c:    00000020     ...    DCD    32
        0x01000810:    0100753c    <u..    DCD    16807228
        0x01000814:    01007540    @u..    DCD    16807232
        0x01000818:    4f525245    ERRO    DCD    1330795077
        0x0100081c:    00000052    R...    DCD    82
        0x01000820:    25200a0d    .. %    DCD    622856717
        0x01000824:    00003a73    s:..    DCD    14963
        0x01000828:    30250a0d    ..%0    DCD    807733773
        0x0100082c:    003a7838    8x:.    DCD    3831864
        0x01000830:    78323025    %02x    DCD    2016555045
        0x01000834:    00000020     ...    DCD    32
    $t
    .text
    GPIO_Config
        0x01000838:    b5f8        ..      PUSH     {r3-r7,lr}
        0x0100083a:    4606        .F      MOV      r6,r0
        0x0100083c:    460c        .F      MOV      r4,r1
        0x0100083e:    4617        .F      MOV      r7,r2
        0x01000840:    2e03        ..      CMP      r6,#3
        0x01000842:    db04        ..      BLT      0x100084e ; GPIO_Config + 22
        0x01000844:    4afe        .J      LDR      r2,[pc,#1016] ; [0x1000c40] = 0x1007544
        0x01000846:    210e        .!      MOVS     r1,#0xe
        0x01000848:    a0fe        ..      ADR      r0,{pc}+0x3fc ; 0x1000c44
        0x0100084a:    f7ffffdd    ....    BL       _assert_handler ; 0x1000808
        0x0100084e:    2c01        .,      CMP      r4,#1
        0x01000850:    d02b        +.      BEQ      0x10008aa ; GPIO_Config + 114
        0x01000852:    2c02        .,      CMP      r4,#2
        0x01000854:    d029        ).      BEQ      0x10008aa ; GPIO_Config + 114
        0x01000856:    2c04        .,      CMP      r4,#4
        0x01000858:    d027        '.      BEQ      0x10008aa ; GPIO_Config + 114
        0x0100085a:    2c08        .,      CMP      r4,#8
        0x0100085c:    d025        %.      BEQ      0x10008aa ; GPIO_Config + 114
        0x0100085e:    2c10        .,      CMP      r4,#0x10
        0x01000860:    d023        #.      BEQ      0x10008aa ; GPIO_Config + 114
        0x01000862:    2c20         ,      CMP      r4,#0x20
        0x01000864:    d021        !.      BEQ      0x10008aa ; GPIO_Config + 114
        0x01000866:    2c40        @,      CMP      r4,#0x40
        0x01000868:    d01f        ..      BEQ      0x10008aa ; GPIO_Config + 114
        0x0100086a:    2c80        .,      CMP      r4,#0x80
        0x0100086c:    d01d        ..      BEQ      0x10008aa ; GPIO_Config + 114
        0x0100086e:    20ff        .       MOVS     r0,#0xff
        0x01000870:    3001        .0      ADDS     r0,#1
        0x01000872:    4284        .B      CMP      r4,r0
        0x01000874:    d019        ..      BEQ      0x10008aa ; GPIO_Config + 114
        0x01000876:    0040        @.      LSLS     r0,r0,#1
        0x01000878:    4284        .B      CMP      r4,r0
        0x0100087a:    d016        ..      BEQ      0x10008aa ; GPIO_Config + 114
        0x0100087c:    0040        @.      LSLS     r0,r0,#1
        0x0100087e:    4284        .B      CMP      r4,r0
        0x01000880:    d013        ..      BEQ      0x10008aa ; GPIO_Config + 114
        0x01000882:    0040        @.      LSLS     r0,r0,#1
        0x01000884:    4284        .B      CMP      r4,r0
        0x01000886:    d010        ..      BEQ      0x10008aa ; GPIO_Config + 114
        0x01000888:    0040        @.      LSLS     r0,r0,#1
        0x0100088a:    4284        .B      CMP      r4,r0
        0x0100088c:    d00d        ..      BEQ      0x10008aa ; GPIO_Config + 114
        0x0100088e:    0040        @.      LSLS     r0,r0,#1
        0x01000890:    4284        .B      CMP      r4,r0
        0x01000892:    d00a        ..      BEQ      0x10008aa ; GPIO_Config + 114
        0x01000894:    0040        @.      LSLS     r0,r0,#1
        0x01000896:    4284        .B      CMP      r4,r0
        0x01000898:    d007        ..      BEQ      0x10008aa ; GPIO_Config + 114
        0x0100089a:    0040        @.      LSLS     r0,r0,#1
        0x0100089c:    4284        .B      CMP      r4,r0
        0x0100089e:    d004        ..      BEQ      0x10008aa ; GPIO_Config + 114
        0x010008a0:    4ae7        .J      LDR      r2,[pc,#924] ; [0x1000c40] = 0x1007544
        0x010008a2:    210f        .!      MOVS     r1,#0xf
        0x010008a4:    a0e7        ..      ADR      r0,{pc}+0x3a0 ; 0x1000c44
        0x010008a6:    f7ffffaf    ....    BL       _assert_handler ; 0x1000808
        0x010008aa:    2500        .%      MOVS     r5,#0
        0x010008ac:    e009        ..      B        0x10008c2 ; GPIO_Config + 138
        0x010008ae:    2001        .       MOVS     r0,#1
        0x010008b0:    40a8        .@      LSLS     r0,r0,r5
        0x010008b2:    4020         @      ANDS     r0,r0,r4
        0x010008b4:    2800        .(      CMP      r0,#0
        0x010008b6:    d003        ..      BEQ      0x10008c0 ; GPIO_Config + 136
        0x010008b8:    0130        0.      LSLS     r0,r6,#4
        0x010008ba:    49ec        .I      LDR      r1,[pc,#944] ; [0x1000c6c] = 0xf8700
        0x010008bc:    1840        @.      ADDS     r0,r0,r1
        0x010008be:    5547        GU      STRB     r7,[r0,r5]
        0x010008c0:    1c6d        m.      ADDS     r5,r5,#1
        0x010008c2:    2d10        .-      CMP      r5,#0x10
        0x010008c4:    dbf3        ..      BLT      0x10008ae ; GPIO_Config + 118
        0x010008c6:    bdf8        ..      POP      {r3-r7,pc}
    GPIO_Init
        0x010008c8:    b570        p.      PUSH     {r4-r6,lr}
        0x010008ca:    4606        .F      MOV      r6,r0
        0x010008cc:    460d        .F      MOV      r5,r1
        0x010008ce:    2e03        ..      CMP      r6,#3
        0x010008d0:    db04        ..      BLT      0x10008dc ; GPIO_Init + 20
        0x010008d2:    4ae7        .J      LDR      r2,[pc,#924] ; [0x1000c70] = 0x1007550
        0x010008d4:    211c        .!      MOVS     r1,#0x1c
        0x010008d6:    a0db        ..      ADR      r0,{pc}+0x36e ; 0x1000c44
        0x010008d8:    f7ffff96    ....    BL       _assert_handler ; 0x1000808
        0x010008dc:    7828        (x      LDRB     r0,[r5,#0]
        0x010008de:    2000        .       MOVS     r0,#0
        0x010008e0:    2800        .(      CMP      r0,#0
        0x010008e2:    d102        ..      BNE      0x10008ea ; GPIO_Init + 34
        0x010008e4:    8828        (.      LDRH     r0,[r5,#0]
        0x010008e6:    2800        .(      CMP      r0,#0
        0x010008e8:    d104        ..      BNE      0x10008f4 ; GPIO_Init + 44
        0x010008ea:    4ae1        .J      LDR      r2,[pc,#900] ; [0x1000c70] = 0x1007550
        0x010008ec:    211d        .!      MOVS     r1,#0x1d
        0x010008ee:    a0d5        ..      ADR      r0,{pc}+0x356 ; 0x1000c44
        0x010008f0:    f7ffff8a    ....    BL       _assert_handler ; 0x1000808
        0x010008f4:    78a8        .x      LDRB     r0,[r5,#2]
        0x010008f6:    2801        .(      CMP      r0,#1
        0x010008f8:    d010        ..      BEQ      0x100091c ; GPIO_Init + 84
        0x010008fa:    78a8        .x      LDRB     r0,[r5,#2]
        0x010008fc:    2802        .(      CMP      r0,#2
        0x010008fe:    d00d        ..      BEQ      0x100091c ; GPIO_Init + 84
        0x01000900:    78a8        .x      LDRB     r0,[r5,#2]
        0x01000902:    2803        .(      CMP      r0,#3
        0x01000904:    d00a        ..      BEQ      0x100091c ; GPIO_Init + 84
        0x01000906:    78a8        .x      LDRB     r0,[r5,#2]
        0x01000908:    2805        .(      CMP      r0,#5
        0x0100090a:    d007        ..      BEQ      0x100091c ; GPIO_Init + 84
        0x0100090c:    78a8        .x      LDRB     r0,[r5,#2]
        0x0100090e:    2804        .(      CMP      r0,#4
        0x01000910:    d004        ..      BEQ      0x100091c ; GPIO_Init + 84
        0x01000912:    4ad7        .J      LDR      r2,[pc,#860] ; [0x1000c70] = 0x1007550
        0x01000914:    211e        .!      MOVS     r1,#0x1e
        0x01000916:    a0cb        ..      ADR      r0,{pc}+0x32e ; 0x1000c44
        0x01000918:    f7ffff76    ..v.    BL       _assert_handler ; 0x1000808
        0x0100091c:    78a8        .x      LDRB     r0,[r5,#2]
        0x0100091e:    0003        ..      MOVS     r3,r0
        0x01000920:    f006f98d    ....    BL       __ARM_common_switch8 ; 0x1006c3e
    $d
        0x01000924:    15045906    .Y..    DCD    352606470
        0x01000928:    59483726    &7HY    DCD    1497904934
    $t
        0x0100092c:    2400        .$      MOVS     r4,#0
        0x0100092e:    e00b        ..      B        0x1000948 ; GPIO_Init + 128
        0x01000930:    8828        (.      LDRH     r0,[r5,#0]
        0x01000932:    2101        .!      MOVS     r1,#1
        0x01000934:    40a1        .@      LSLS     r1,r1,r4
        0x01000936:    4008        .@      ANDS     r0,r0,r1
        0x01000938:    2800        .(      CMP      r0,#0
        0x0100093a:    d004        ..      BEQ      0x1000946 ; GPIO_Init + 126
        0x0100093c:    2000        .       MOVS     r0,#0
        0x0100093e:    0131        1.      LSLS     r1,r6,#4
        0x01000940:    4aca        .J      LDR      r2,[pc,#808] ; [0x1000c6c] = 0xf8700
        0x01000942:    1889        ..      ADDS     r1,r1,r2
        0x01000944:    5508        .U      STRB     r0,[r1,r4]
        0x01000946:    1c64        d.      ADDS     r4,r4,#1
        0x01000948:    2c10        .,      CMP      r4,#0x10
        0x0100094a:    dbf1        ..      BLT      0x1000930 ; GPIO_Init + 104
        0x0100094c:    e044        D.      B        0x10009d8 ; GPIO_Init + 272
        0x0100094e:    2400        .$      MOVS     r4,#0
        0x01000950:    e00b        ..      B        0x100096a ; GPIO_Init + 162
        0x01000952:    8828        (.      LDRH     r0,[r5,#0]
        0x01000954:    2101        .!      MOVS     r1,#1
        0x01000956:    40a1        .@      LSLS     r1,r1,r4
        0x01000958:    4008        .@      ANDS     r0,r0,r1
        0x0100095a:    2800        .(      CMP      r0,#0
        0x0100095c:    d004        ..      BEQ      0x1000968 ; GPIO_Init + 160
        0x0100095e:    2040        @       MOVS     r0,#0x40
        0x01000960:    0131        1.      LSLS     r1,r6,#4
        0x01000962:    4ac2        .J      LDR      r2,[pc,#776] ; [0x1000c6c] = 0xf8700
        0x01000964:    1889        ..      ADDS     r1,r1,r2
        0x01000966:    5508        .U      STRB     r0,[r1,r4]
        0x01000968:    1c64        d.      ADDS     r4,r4,#1
        0x0100096a:    2c10        .,      CMP      r4,#0x10
        0x0100096c:    dbf1        ..      BLT      0x1000952 ; GPIO_Init + 138
        0x0100096e:    e033        3.      B        0x10009d8 ; GPIO_Init + 272
        0x01000970:    2400        .$      MOVS     r4,#0
        0x01000972:    e00b        ..      B        0x100098c ; GPIO_Init + 196
        0x01000974:    8828        (.      LDRH     r0,[r5,#0]
        0x01000976:    2101        .!      MOVS     r1,#1
        0x01000978:    40a1        .@      LSLS     r1,r1,r4
        0x0100097a:    4008        .@      ANDS     r0,r0,r1
        0x0100097c:    2800        .(      CMP      r0,#0
        0x0100097e:    d004        ..      BEQ      0x100098a ; GPIO_Init + 194
        0x01000980:    2080        .       MOVS     r0,#0x80
        0x01000982:    0131        1.      LSLS     r1,r6,#4
        0x01000984:    4ab9        .J      LDR      r2,[pc,#740] ; [0x1000c6c] = 0xf8700
        0x01000986:    1889        ..      ADDS     r1,r1,r2
        0x01000988:    5508        .U      STRB     r0,[r1,r4]
        0x0100098a:    1c64        d.      ADDS     r4,r4,#1
        0x0100098c:    2c10        .,      CMP      r4,#0x10
        0x0100098e:    dbf1        ..      BLT      0x1000974 ; GPIO_Init + 172
        0x01000990:    e022        ".      B        0x10009d8 ; GPIO_Init + 272
        0x01000992:    2400        .$      MOVS     r4,#0
        0x01000994:    e00b        ..      B        0x10009ae ; GPIO_Init + 230
        0x01000996:    8828        (.      LDRH     r0,[r5,#0]
        0x01000998:    2101        .!      MOVS     r1,#1
        0x0100099a:    40a1        .@      LSLS     r1,r1,r4
        0x0100099c:    4008        .@      ANDS     r0,r0,r1
        0x0100099e:    2800        .(      CMP      r0,#0
        0x010009a0:    d004        ..      BEQ      0x10009ac ; GPIO_Init + 228
        0x010009a2:    20c0        .       MOVS     r0,#0xc0
        0x010009a4:    0131        1.      LSLS     r1,r6,#4
        0x010009a6:    4ab1        .J      LDR      r2,[pc,#708] ; [0x1000c6c] = 0xf8700
        0x010009a8:    1889        ..      ADDS     r1,r1,r2
        0x010009aa:    5508        .U      STRB     r0,[r1,r4]
        0x010009ac:    1c64        d.      ADDS     r4,r4,#1
        0x010009ae:    2c10        .,      CMP      r4,#0x10
        0x010009b0:    dbf1        ..      BLT      0x1000996 ; GPIO_Init + 206
        0x010009b2:    e011        ..      B        0x10009d8 ; GPIO_Init + 272
        0x010009b4:    2400        .$      MOVS     r4,#0
        0x010009b6:    e00b        ..      B        0x10009d0 ; GPIO_Init + 264
        0x010009b8:    8828        (.      LDRH     r0,[r5,#0]
        0x010009ba:    2101        .!      MOVS     r1,#1
        0x010009bc:    40a1        .@      LSLS     r1,r1,r4
        0x010009be:    4008        .@      ANDS     r0,r0,r1
        0x010009c0:    2800        .(      CMP      r0,#0
        0x010009c2:    d004        ..      BEQ      0x10009ce ; GPIO_Init + 262
        0x010009c4:    203e        >       MOVS     r0,#0x3e
        0x010009c6:    0131        1.      LSLS     r1,r6,#4
        0x010009c8:    4aa8        .J      LDR      r2,[pc,#672] ; [0x1000c6c] = 0xf8700
        0x010009ca:    1889        ..      ADDS     r1,r1,r2
        0x010009cc:    5508        .U      STRB     r0,[r1,r4]
        0x010009ce:    1c64        d.      ADDS     r4,r4,#1
        0x010009d0:    2c10        .,      CMP      r4,#0x10
        0x010009d2:    dbf1        ..      BLT      0x10009b8 ; GPIO_Init + 240
        0x010009d4:    e000        ..      B        0x10009d8 ; GPIO_Init + 272
        0x010009d6:    bf00        ..      NOP      
        0x010009d8:    bf00        ..      NOP      
        0x010009da:    bd70        p.      POP      {r4-r6,pc}
    GPIO_PullUpCmd
        0x010009dc:    b5f8        ..      PUSH     {r3-r7,lr}
        0x010009de:    4606        .F      MOV      r6,r0
        0x010009e0:    460c        .F      MOV      r4,r1
        0x010009e2:    4617        .F      MOV      r7,r2
        0x010009e4:    2e03        ..      CMP      r6,#3
        0x010009e6:    db04        ..      BLT      0x10009f2 ; GPIO_PullUpCmd + 22
        0x010009e8:    4aa2        .J      LDR      r2,[pc,#648] ; [0x1000c74] = 0x100755a
        0x010009ea:    2153        S!      MOVS     r1,#0x53
        0x010009ec:    a095        ..      ADR      r0,{pc}+0x258 ; 0x1000c44
        0x010009ee:    f7ffff0b    ....    BL       _assert_handler ; 0x1000808
        0x010009f2:    2c01        .,      CMP      r4,#1
        0x010009f4:    d02b        +.      BEQ      0x1000a4e ; GPIO_PullUpCmd + 114
        0x010009f6:    2c02        .,      CMP      r4,#2
        0x010009f8:    d029        ).      BEQ      0x1000a4e ; GPIO_PullUpCmd + 114
        0x010009fa:    2c04        .,      CMP      r4,#4
        0x010009fc:    d027        '.      BEQ      0x1000a4e ; GPIO_PullUpCmd + 114
        0x010009fe:    2c08        .,      CMP      r4,#8
        0x01000a00:    d025        %.      BEQ      0x1000a4e ; GPIO_PullUpCmd + 114
        0x01000a02:    2c10        .,      CMP      r4,#0x10
        0x01000a04:    d023        #.      BEQ      0x1000a4e ; GPIO_PullUpCmd + 114
        0x01000a06:    2c20         ,      CMP      r4,#0x20
        0x01000a08:    d021        !.      BEQ      0x1000a4e ; GPIO_PullUpCmd + 114
        0x01000a0a:    2c40        @,      CMP      r4,#0x40
        0x01000a0c:    d01f        ..      BEQ      0x1000a4e ; GPIO_PullUpCmd + 114
        0x01000a0e:    2c80        .,      CMP      r4,#0x80
        0x01000a10:    d01d        ..      BEQ      0x1000a4e ; GPIO_PullUpCmd + 114
        0x01000a12:    20ff        .       MOVS     r0,#0xff
        0x01000a14:    3001        .0      ADDS     r0,#1
        0x01000a16:    4284        .B      CMP      r4,r0
        0x01000a18:    d019        ..      BEQ      0x1000a4e ; GPIO_PullUpCmd + 114
        0x01000a1a:    0040        @.      LSLS     r0,r0,#1
        0x01000a1c:    4284        .B      CMP      r4,r0
        0x01000a1e:    d016        ..      BEQ      0x1000a4e ; GPIO_PullUpCmd + 114
        0x01000a20:    0040        @.      LSLS     r0,r0,#1
        0x01000a22:    4284        .B      CMP      r4,r0
        0x01000a24:    d013        ..      BEQ      0x1000a4e ; GPIO_PullUpCmd + 114
        0x01000a26:    0040        @.      LSLS     r0,r0,#1
        0x01000a28:    4284        .B      CMP      r4,r0
        0x01000a2a:    d010        ..      BEQ      0x1000a4e ; GPIO_PullUpCmd + 114
        0x01000a2c:    0040        @.      LSLS     r0,r0,#1
        0x01000a2e:    4284        .B      CMP      r4,r0
        0x01000a30:    d00d        ..      BEQ      0x1000a4e ; GPIO_PullUpCmd + 114
        0x01000a32:    0040        @.      LSLS     r0,r0,#1
        0x01000a34:    4284        .B      CMP      r4,r0
        0x01000a36:    d00a        ..      BEQ      0x1000a4e ; GPIO_PullUpCmd + 114
        0x01000a38:    0040        @.      LSLS     r0,r0,#1
        0x01000a3a:    4284        .B      CMP      r4,r0
        0x01000a3c:    d007        ..      BEQ      0x1000a4e ; GPIO_PullUpCmd + 114
        0x01000a3e:    0040        @.      LSLS     r0,r0,#1
        0x01000a40:    4284        .B      CMP      r4,r0
        0x01000a42:    d004        ..      BEQ      0x1000a4e ; GPIO_PullUpCmd + 114
        0x01000a44:    4a8b        .J      LDR      r2,[pc,#556] ; [0x1000c74] = 0x100755a
        0x01000a46:    2154        T!      MOVS     r1,#0x54
        0x01000a48:    a07e        ~.      ADR      r0,{pc}+0x1fc ; 0x1000c44
        0x01000a4a:    f7fffedd    ....    BL       _assert_handler ; 0x1000808
        0x01000a4e:    2500        .%      MOVS     r5,#0
        0x01000a50:    e01e        ..      B        0x1000a90 ; GPIO_PullUpCmd + 180
        0x01000a52:    2001        .       MOVS     r0,#1
        0x01000a54:    40a8        .@      LSLS     r0,r0,r5
        0x01000a56:    4020         @      ANDS     r0,r0,r4
        0x01000a58:    2800        .(      CMP      r0,#0
        0x01000a5a:    d018        ..      BEQ      0x1000a8e ; GPIO_PullUpCmd + 178
        0x01000a5c:    2f01        ./      CMP      r7,#1
        0x01000a5e:    d10a        ..      BNE      0x1000a76 ; GPIO_PullUpCmd + 154
        0x01000a60:    0130        0.      LSLS     r0,r6,#4
        0x01000a62:    4982        .I      LDR      r1,[pc,#520] ; [0x1000c6c] = 0xf8700
        0x01000a64:    1840        @.      ADDS     r0,r0,r1
        0x01000a66:    5d40        @]      LDRB     r0,[r0,r5]
        0x01000a68:    2140        @!      MOVS     r1,#0x40
        0x01000a6a:    4308        .C      ORRS     r0,r0,r1
        0x01000a6c:    0131        1.      LSLS     r1,r6,#4
        0x01000a6e:    4a7f        .J      LDR      r2,[pc,#508] ; [0x1000c6c] = 0xf8700
        0x01000a70:    1889        ..      ADDS     r1,r1,r2
        0x01000a72:    5548        HU      STRB     r0,[r1,r5]
        0x01000a74:    e00b        ..      B        0x1000a8e ; GPIO_PullUpCmd + 178
        0x01000a76:    2f00        ./      CMP      r7,#0
        0x01000a78:    d109        ..      BNE      0x1000a8e ; GPIO_PullUpCmd + 178
        0x01000a7a:    0130        0.      LSLS     r0,r6,#4
        0x01000a7c:    497b        {I      LDR      r1,[pc,#492] ; [0x1000c6c] = 0xf8700
        0x01000a7e:    1840        @.      ADDS     r0,r0,r1
        0x01000a80:    5d40        @]      LDRB     r0,[r0,r5]
        0x01000a82:    2140        @!      MOVS     r1,#0x40
        0x01000a84:    4388        .C      BICS     r0,r0,r1
        0x01000a86:    0131        1.      LSLS     r1,r6,#4
        0x01000a88:    4a78        xJ      LDR      r2,[pc,#480] ; [0x1000c6c] = 0xf8700
        0x01000a8a:    1889        ..      ADDS     r1,r1,r2
        0x01000a8c:    5548        HU      STRB     r0,[r1,r5]
        0x01000a8e:    1c6d        m.      ADDS     r5,r5,#1
        0x01000a90:    2d10        .-      CMP      r5,#0x10
        0x01000a92:    dbde        ..      BLT      0x1000a52 ; GPIO_PullUpCmd + 118
        0x01000a94:    bdf8        ..      POP      {r3-r7,pc}
    GPIO_ReadInputData
        0x01000a96:    b510        ..      PUSH     {r4,lr}
        0x01000a98:    4604        .F      MOV      r4,r0
        0x01000a9a:    2c03        .,      CMP      r4,#3
        0x01000a9c:    db04        ..      BLT      0x1000aa8 ; GPIO_ReadInputData + 18
        0x01000a9e:    4a76        vJ      LDR      r2,[pc,#472] ; [0x1000c78] = 0x1007569
        0x01000aa0:    216a        j!      MOVS     r1,#0x6a
        0x01000aa2:    a068        h.      ADR      r0,{pc}+0x1a2 ; 0x1000c44
        0x01000aa4:    f7fffeb0    ....    BL       _assert_handler ; 0x1000808
        0x01000aa8:    0060        `.      LSLS     r0,r4,#1
        0x01000aaa:    4970        pI      LDR      r1,[pc,#448] ; [0x1000c6c] = 0xf8700
        0x01000aac:    1840        @.      ADDS     r0,r0,r1
        0x01000aae:    8f80        ..      LDRH     r0,[r0,#0x3c]
        0x01000ab0:    bd10        ..      POP      {r4,pc}
    GPIO_ReadInputDataBit
        0x01000ab2:    b570        p.      PUSH     {r4-r6,lr}
        0x01000ab4:    4605        .F      MOV      r5,r0
        0x01000ab6:    460c        .F      MOV      r4,r1
        0x01000ab8:    2d03        .-      CMP      r5,#3
        0x01000aba:    db04        ..      BLT      0x1000ac6 ; GPIO_ReadInputDataBit + 20
        0x01000abc:    4a6f        oJ      LDR      r2,[pc,#444] ; [0x1000c7c] = 0x100757c
        0x01000abe:    2171        q!      MOVS     r1,#0x71
        0x01000ac0:    a060        `.      ADR      r0,{pc}+0x184 ; 0x1000c44
        0x01000ac2:    f7fffea1    ....    BL       _assert_handler ; 0x1000808
        0x01000ac6:    2c01        .,      CMP      r4,#1
        0x01000ac8:    d02b        +.      BEQ      0x1000b22 ; GPIO_ReadInputDataBit + 112
        0x01000aca:    2c02        .,      CMP      r4,#2
        0x01000acc:    d029        ).      BEQ      0x1000b22 ; GPIO_ReadInputDataBit + 112
        0x01000ace:    2c04        .,      CMP      r4,#4
        0x01000ad0:    d027        '.      BEQ      0x1000b22 ; GPIO_ReadInputDataBit + 112
        0x01000ad2:    2c08        .,      CMP      r4,#8
        0x01000ad4:    d025        %.      BEQ      0x1000b22 ; GPIO_ReadInputDataBit + 112
        0x01000ad6:    2c10        .,      CMP      r4,#0x10
        0x01000ad8:    d023        #.      BEQ      0x1000b22 ; GPIO_ReadInputDataBit + 112
        0x01000ada:    2c20         ,      CMP      r4,#0x20
        0x01000adc:    d021        !.      BEQ      0x1000b22 ; GPIO_ReadInputDataBit + 112
        0x01000ade:    2c40        @,      CMP      r4,#0x40
        0x01000ae0:    d01f        ..      BEQ      0x1000b22 ; GPIO_ReadInputDataBit + 112
        0x01000ae2:    2c80        .,      CMP      r4,#0x80
        0x01000ae4:    d01d        ..      BEQ      0x1000b22 ; GPIO_ReadInputDataBit + 112
        0x01000ae6:    20ff        .       MOVS     r0,#0xff
        0x01000ae8:    3001        .0      ADDS     r0,#1
        0x01000aea:    4284        .B      CMP      r4,r0
        0x01000aec:    d019        ..      BEQ      0x1000b22 ; GPIO_ReadInputDataBit + 112
        0x01000aee:    0040        @.      LSLS     r0,r0,#1
        0x01000af0:    4284        .B      CMP      r4,r0
        0x01000af2:    d016        ..      BEQ      0x1000b22 ; GPIO_ReadInputDataBit + 112
        0x01000af4:    0040        @.      LSLS     r0,r0,#1
        0x01000af6:    4284        .B      CMP      r4,r0
        0x01000af8:    d013        ..      BEQ      0x1000b22 ; GPIO_ReadInputDataBit + 112
        0x01000afa:    0040        @.      LSLS     r0,r0,#1
        0x01000afc:    4284        .B      CMP      r4,r0
        0x01000afe:    d010        ..      BEQ      0x1000b22 ; GPIO_ReadInputDataBit + 112
        0x01000b00:    0040        @.      LSLS     r0,r0,#1
        0x01000b02:    4284        .B      CMP      r4,r0
        0x01000b04:    d00d        ..      BEQ      0x1000b22 ; GPIO_ReadInputDataBit + 112
        0x01000b06:    0040        @.      LSLS     r0,r0,#1
        0x01000b08:    4284        .B      CMP      r4,r0
        0x01000b0a:    d00a        ..      BEQ      0x1000b22 ; GPIO_ReadInputDataBit + 112
        0x01000b0c:    0040        @.      LSLS     r0,r0,#1
        0x01000b0e:    4284        .B      CMP      r4,r0
        0x01000b10:    d007        ..      BEQ      0x1000b22 ; GPIO_ReadInputDataBit + 112
        0x01000b12:    0040        @.      LSLS     r0,r0,#1
        0x01000b14:    4284        .B      CMP      r4,r0
        0x01000b16:    d004        ..      BEQ      0x1000b22 ; GPIO_ReadInputDataBit + 112
        0x01000b18:    4a58        XJ      LDR      r2,[pc,#352] ; [0x1000c7c] = 0x100757c
        0x01000b1a:    2172        r!      MOVS     r1,#0x72
        0x01000b1c:    a049        I.      ADR      r0,{pc}+0x128 ; 0x1000c44
        0x01000b1e:    f7fffe73    ..s.    BL       _assert_handler ; 0x1000808
        0x01000b22:    0068        h.      LSLS     r0,r5,#1
        0x01000b24:    4951        QI      LDR      r1,[pc,#324] ; [0x1000c6c] = 0xf8700
        0x01000b26:    1840        @.      ADDS     r0,r0,r1
        0x01000b28:    8f80        ..      LDRH     r0,[r0,#0x3c]
        0x01000b2a:    4020         @      ANDS     r0,r0,r4
        0x01000b2c:    2800        .(      CMP      r0,#0
        0x01000b2e:    d001        ..      BEQ      0x1000b34 ; GPIO_ReadInputDataBit + 130
        0x01000b30:    2001        .       MOVS     r0,#1
        0x01000b32:    bd70        p.      POP      {r4-r6,pc}
        0x01000b34:    2000        .       MOVS     r0,#0
        0x01000b36:    e7fc        ..      B        0x1000b32 ; GPIO_ReadInputDataBit + 128
    GPIO_ReadOutputData
        0x01000b38:    b510        ..      PUSH     {r4,lr}
        0x01000b3a:    4604        .F      MOV      r4,r0
        0x01000b3c:    2c03        .,      CMP      r4,#3
        0x01000b3e:    db04        ..      BLT      0x1000b4a ; GPIO_ReadOutputData + 18
        0x01000b40:    4a4f        OJ      LDR      r2,[pc,#316] ; [0x1000c80] = 0x1007592
        0x01000b42:    2180        .!      MOVS     r1,#0x80
        0x01000b44:    a03f        ?.      ADR      r0,{pc}+0x100 ; 0x1000c44
        0x01000b46:    f7fffe5f    .._.    BL       _assert_handler ; 0x1000808
        0x01000b4a:    0060        `.      LSLS     r0,r4,#1
        0x01000b4c:    4947        GI      LDR      r1,[pc,#284] ; [0x1000c6c] = 0xf8700
        0x01000b4e:    1840        @.      ADDS     r0,r0,r1
        0x01000b50:    8f80        ..      LDRH     r0,[r0,#0x3c]
        0x01000b52:    bd10        ..      POP      {r4,pc}
    GPIO_ReadOutputDataBit
        0x01000b54:    b570        p.      PUSH     {r4-r6,lr}
        0x01000b56:    4605        .F      MOV      r5,r0
        0x01000b58:    460c        .F      MOV      r4,r1
        0x01000b5a:    2d03        .-      CMP      r5,#3
        0x01000b5c:    db04        ..      BLT      0x1000b68 ; GPIO_ReadOutputDataBit + 20
        0x01000b5e:    4a49        IJ      LDR      r2,[pc,#292] ; [0x1000c84] = 0x10075a6
        0x01000b60:    2187        .!      MOVS     r1,#0x87
        0x01000b62:    a038        8.      ADR      r0,{pc}+0xe2 ; 0x1000c44
        0x01000b64:    f7fffe50    ..P.    BL       _assert_handler ; 0x1000808
        0x01000b68:    2c01        .,      CMP      r4,#1
        0x01000b6a:    d02b        +.      BEQ      0x1000bc4 ; GPIO_ReadOutputDataBit + 112
        0x01000b6c:    2c02        .,      CMP      r4,#2
        0x01000b6e:    d029        ).      BEQ      0x1000bc4 ; GPIO_ReadOutputDataBit + 112
        0x01000b70:    2c04        .,      CMP      r4,#4
        0x01000b72:    d027        '.      BEQ      0x1000bc4 ; GPIO_ReadOutputDataBit + 112
        0x01000b74:    2c08        .,      CMP      r4,#8
        0x01000b76:    d025        %.      BEQ      0x1000bc4 ; GPIO_ReadOutputDataBit + 112
        0x01000b78:    2c10        .,      CMP      r4,#0x10
        0x01000b7a:    d023        #.      BEQ      0x1000bc4 ; GPIO_ReadOutputDataBit + 112
        0x01000b7c:    2c20         ,      CMP      r4,#0x20
        0x01000b7e:    d021        !.      BEQ      0x1000bc4 ; GPIO_ReadOutputDataBit + 112
        0x01000b80:    2c40        @,      CMP      r4,#0x40
        0x01000b82:    d01f        ..      BEQ      0x1000bc4 ; GPIO_ReadOutputDataBit + 112
        0x01000b84:    2c80        .,      CMP      r4,#0x80
        0x01000b86:    d01d        ..      BEQ      0x1000bc4 ; GPIO_ReadOutputDataBit + 112
        0x01000b88:    20ff        .       MOVS     r0,#0xff
        0x01000b8a:    3001        .0      ADDS     r0,#1
        0x01000b8c:    4284        .B      CMP      r4,r0
        0x01000b8e:    d019        ..      BEQ      0x1000bc4 ; GPIO_ReadOutputDataBit + 112
        0x01000b90:    0040        @.      LSLS     r0,r0,#1
        0x01000b92:    4284        .B      CMP      r4,r0
        0x01000b94:    d016        ..      BEQ      0x1000bc4 ; GPIO_ReadOutputDataBit + 112
        0x01000b96:    0040        @.      LSLS     r0,r0,#1
        0x01000b98:    4284        .B      CMP      r4,r0
        0x01000b9a:    d013        ..      BEQ      0x1000bc4 ; GPIO_ReadOutputDataBit + 112
        0x01000b9c:    0040        @.      LSLS     r0,r0,#1
        0x01000b9e:    4284        .B      CMP      r4,r0
        0x01000ba0:    d010        ..      BEQ      0x1000bc4 ; GPIO_ReadOutputDataBit + 112
        0x01000ba2:    0040        @.      LSLS     r0,r0,#1
        0x01000ba4:    4284        .B      CMP      r4,r0
        0x01000ba6:    d00d        ..      BEQ      0x1000bc4 ; GPIO_ReadOutputDataBit + 112
        0x01000ba8:    0040        @.      LSLS     r0,r0,#1
        0x01000baa:    4284        .B      CMP      r4,r0
        0x01000bac:    d00a        ..      BEQ      0x1000bc4 ; GPIO_ReadOutputDataBit + 112
        0x01000bae:    0040        @.      LSLS     r0,r0,#1
        0x01000bb0:    4284        .B      CMP      r4,r0
        0x01000bb2:    d007        ..      BEQ      0x1000bc4 ; GPIO_ReadOutputDataBit + 112
        0x01000bb4:    0040        @.      LSLS     r0,r0,#1
        0x01000bb6:    4284        .B      CMP      r4,r0
        0x01000bb8:    d004        ..      BEQ      0x1000bc4 ; GPIO_ReadOutputDataBit + 112
        0x01000bba:    4a32        2J      LDR      r2,[pc,#200] ; [0x1000c84] = 0x10075a6
        0x01000bbc:    2188        .!      MOVS     r1,#0x88
        0x01000bbe:    a021        !.      ADR      r0,{pc}+0x86 ; 0x1000c44
        0x01000bc0:    f7fffe22    ..".    BL       _assert_handler ; 0x1000808
        0x01000bc4:    0068        h.      LSLS     r0,r5,#1
        0x01000bc6:    4929        )I      LDR      r1,[pc,#164] ; [0x1000c6c] = 0xf8700
        0x01000bc8:    1840        @.      ADDS     r0,r0,r1
        0x01000bca:    8f80        ..      LDRH     r0,[r0,#0x3c]
        0x01000bcc:    4020         @      ANDS     r0,r0,r4
        0x01000bce:    2800        .(      CMP      r0,#0
        0x01000bd0:    d001        ..      BEQ      0x1000bd6 ; GPIO_ReadOutputDataBit + 130
        0x01000bd2:    2001        .       MOVS     r0,#1
        0x01000bd4:    bd70        p.      POP      {r4-r6,pc}
        0x01000bd6:    2000        .       MOVS     r0,#0
        0x01000bd8:    e7fc        ..      B        0x1000bd4 ; GPIO_ReadOutputDataBit + 128
    GPIO_ResetBits
        0x01000bda:    b5f8        ..      PUSH     {r3-r7,lr}
        0x01000bdc:    4606        .F      MOV      r6,r0
        0x01000bde:    460c        .F      MOV      r4,r1
        0x01000be0:    2e03        ..      CMP      r6,#3
        0x01000be2:    db04        ..      BLT      0x1000bee ; GPIO_ResetBits + 20
        0x01000be4:    4a28        (J      LDR      r2,[pc,#160] ; [0x1000c88] = 0x10075bd
        0x01000be6:    2196        .!      MOVS     r1,#0x96
        0x01000be8:    a016        ..      ADR      r0,{pc}+0x5c ; 0x1000c44
        0x01000bea:    f7fffe0d    ....    BL       _assert_handler ; 0x1000808
        0x01000bee:    2c01        .,      CMP      r4,#1
        0x01000bf0:    d052        R.      BEQ      0x1000c98 ; GPIO_ResetBits + 190
        0x01000bf2:    2c02        .,      CMP      r4,#2
        0x01000bf4:    d050        P.      BEQ      0x1000c98 ; GPIO_ResetBits + 190
        0x01000bf6:    2c04        .,      CMP      r4,#4
        0x01000bf8:    d04e        N.      BEQ      0x1000c98 ; GPIO_ResetBits + 190
        0x01000bfa:    2c08        .,      CMP      r4,#8
        0x01000bfc:    d04c        L.      BEQ      0x1000c98 ; GPIO_ResetBits + 190
        0x01000bfe:    2c10        .,      CMP      r4,#0x10
        0x01000c00:    d04a        J.      BEQ      0x1000c98 ; GPIO_ResetBits + 190
        0x01000c02:    2c20         ,      CMP      r4,#0x20
        0x01000c04:    d048        H.      BEQ      0x1000c98 ; GPIO_ResetBits + 190
        0x01000c06:    2c40        @,      CMP      r4,#0x40
        0x01000c08:    d046        F.      BEQ      0x1000c98 ; GPIO_ResetBits + 190
        0x01000c0a:    2c80        .,      CMP      r4,#0x80
        0x01000c0c:    d044        D.      BEQ      0x1000c98 ; GPIO_ResetBits + 190
        0x01000c0e:    20ff        .       MOVS     r0,#0xff
        0x01000c10:    3001        .0      ADDS     r0,#1
        0x01000c12:    4284        .B      CMP      r4,r0
        0x01000c14:    d040        @.      BEQ      0x1000c98 ; GPIO_ResetBits + 190
        0x01000c16:    0040        @.      LSLS     r0,r0,#1
        0x01000c18:    4284        .B      CMP      r4,r0
        0x01000c1a:    d03d        =.      BEQ      0x1000c98 ; GPIO_ResetBits + 190
        0x01000c1c:    0040        @.      LSLS     r0,r0,#1
        0x01000c1e:    4284        .B      CMP      r4,r0
        0x01000c20:    d03a        :.      BEQ      0x1000c98 ; GPIO_ResetBits + 190
        0x01000c22:    0040        @.      LSLS     r0,r0,#1
        0x01000c24:    4284        .B      CMP      r4,r0
        0x01000c26:    d037        7.      BEQ      0x1000c98 ; GPIO_ResetBits + 190
        0x01000c28:    0040        @.      LSLS     r0,r0,#1
        0x01000c2a:    4284        .B      CMP      r4,r0
        0x01000c2c:    d034        4.      BEQ      0x1000c98 ; GPIO_ResetBits + 190
        0x01000c2e:    0040        @.      LSLS     r0,r0,#1
        0x01000c30:    4284        .B      CMP      r4,r0
        0x01000c32:    d031        1.      BEQ      0x1000c98 ; GPIO_ResetBits + 190
        0x01000c34:    0040        @.      LSLS     r0,r0,#1
        0x01000c36:    4284        .B      CMP      r4,r0
        0x01000c38:    d02e        ..      BEQ      0x1000c98 ; GPIO_ResetBits + 190
        0x01000c3a:    0040        @.      LSLS     r0,r0,#1
        0x01000c3c:    4284        .B      CMP      r4,r0
        0x01000c3e:    e025        %.      B        0x1000c8c ; GPIO_ResetBits + 178
    $d
        0x01000c40:    01007544    Du..    DCD    16807236
        0x01000c44:    2e5c2e2e    ..\.    DCD    777793070
        0x01000c48:    61685c2e    .\ha    DCD    1634229294
        0x01000c4c:    61776472    rdwa    DCD    1635214450
        0x01000c50:    4c5c6572    re\L    DCD    1281123698
        0x01000c54:    61726269    ibra    DCD    1634886249
        0x01000c58:    72656972    rier    DCD    1919248754
        0x01000c5c:    6b64735c    \sdk    DCD    1801745244
        0x01000c60:    5f63795c    \yc_    DCD    1600354652
        0x01000c64:    6f697067    gpio    DCD    1869181031
        0x01000c68:    0000632e    .c..    DCD    25390
        0x01000c6c:    000f8700    ....    DCD    1017600
        0x01000c70:    01007550    Pu..    DCD    16807248
        0x01000c74:    0100755a    Zu..    DCD    16807258
        0x01000c78:    01007569    iu..    DCD    16807273
        0x01000c7c:    0100757c    |u..    DCD    16807292
        0x01000c80:    01007592    .u..    DCD    16807314
        0x01000c84:    010075a6    .u..    DCD    16807334
        0x01000c88:    010075bd    .u..    DCD    16807357
    $t
        0x01000c8c:    d004        ..      BEQ      0x1000c98 ; GPIO_ResetBits + 190
        0x01000c8e:    4a6c        lJ      LDR      r2,[pc,#432] ; [0x1000e40] = 0x10075bd
        0x01000c90:    2197        .!      MOVS     r1,#0x97
        0x01000c92:    486c        lH      LDR      r0,[pc,#432] ; [0x1000e44] = 0x1000c44
        0x01000c94:    f7fffdb8    ....    BL       _assert_handler ; 0x1000808
        0x01000c98:    2500        .%      MOVS     r5,#0
        0x01000c9a:    e010        ..      B        0x1000cbe ; GPIO_ResetBits + 228
        0x01000c9c:    2001        .       MOVS     r0,#1
        0x01000c9e:    40a8        .@      LSLS     r0,r0,r5
        0x01000ca0:    4020         @      ANDS     r0,r0,r4
        0x01000ca2:    2800        .(      CMP      r0,#0
        0x01000ca4:    d00a        ..      BEQ      0x1000cbc ; GPIO_ResetBits + 226
        0x01000ca6:    0130        0.      LSLS     r0,r6,#4
        0x01000ca8:    4967        gI      LDR      r1,[pc,#412] ; [0x1000e48] = 0xf8700
        0x01000caa:    1840        @.      ADDS     r0,r0,r1
        0x01000cac:    5d47        G]      LDRB     r7,[r0,r5]
        0x01000cae:    203f        ?       MOVS     r0,#0x3f
        0x01000cb0:    4307        .C      ORRS     r7,r7,r0
        0x01000cb2:    20fe        .       MOVS     r0,#0xfe
        0x01000cb4:    4007        .@      ANDS     r7,r7,r0
        0x01000cb6:    0130        0.      LSLS     r0,r6,#4
        0x01000cb8:    1840        @.      ADDS     r0,r0,r1
        0x01000cba:    5547        GU      STRB     r7,[r0,r5]
        0x01000cbc:    1c6d        m.      ADDS     r5,r5,#1
        0x01000cbe:    2d10        .-      CMP      r5,#0x10
        0x01000cc0:    dbec        ..      BLT      0x1000c9c ; GPIO_ResetBits + 194
        0x01000cc2:    bdf8        ..      POP      {r3-r7,pc}
    GPIO_SetBits
        0x01000cc4:    b570        p.      PUSH     {r4-r6,lr}
        0x01000cc6:    4606        .F      MOV      r6,r0
        0x01000cc8:    460c        .F      MOV      r4,r1
        0x01000cca:    2e03        ..      CMP      r6,#3
        0x01000ccc:    db04        ..      BLT      0x1000cd8 ; GPIO_SetBits + 20
        0x01000cce:    4a5f        _J      LDR      r2,[pc,#380] ; [0x1000e4c] = 0x10075cc
        0x01000cd0:    21aa        .!      MOVS     r1,#0xaa
        0x01000cd2:    485c        \H      LDR      r0,[pc,#368] ; [0x1000e44] = 0x1000c44
        0x01000cd4:    f7fffd98    ....    BL       _assert_handler ; 0x1000808
        0x01000cd8:    2c01        .,      CMP      r4,#1
        0x01000cda:    d02b        +.      BEQ      0x1000d34 ; GPIO_SetBits + 112
        0x01000cdc:    2c02        .,      CMP      r4,#2
        0x01000cde:    d029        ).      BEQ      0x1000d34 ; GPIO_SetBits + 112
        0x01000ce0:    2c04        .,      CMP      r4,#4
        0x01000ce2:    d027        '.      BEQ      0x1000d34 ; GPIO_SetBits + 112
        0x01000ce4:    2c08        .,      CMP      r4,#8
        0x01000ce6:    d025        %.      BEQ      0x1000d34 ; GPIO_SetBits + 112
        0x01000ce8:    2c10        .,      CMP      r4,#0x10
        0x01000cea:    d023        #.      BEQ      0x1000d34 ; GPIO_SetBits + 112
        0x01000cec:    2c20         ,      CMP      r4,#0x20
        0x01000cee:    d021        !.      BEQ      0x1000d34 ; GPIO_SetBits + 112
        0x01000cf0:    2c40        @,      CMP      r4,#0x40
        0x01000cf2:    d01f        ..      BEQ      0x1000d34 ; GPIO_SetBits + 112
        0x01000cf4:    2c80        .,      CMP      r4,#0x80
        0x01000cf6:    d01d        ..      BEQ      0x1000d34 ; GPIO_SetBits + 112
        0x01000cf8:    20ff        .       MOVS     r0,#0xff
        0x01000cfa:    3001        .0      ADDS     r0,#1
        0x01000cfc:    4284        .B      CMP      r4,r0
        0x01000cfe:    d019        ..      BEQ      0x1000d34 ; GPIO_SetBits + 112
        0x01000d00:    0040        @.      LSLS     r0,r0,#1
        0x01000d02:    4284        .B      CMP      r4,r0
        0x01000d04:    d016        ..      BEQ      0x1000d34 ; GPIO_SetBits + 112
        0x01000d06:    0040        @.      LSLS     r0,r0,#1
        0x01000d08:    4284        .B      CMP      r4,r0
        0x01000d0a:    d013        ..      BEQ      0x1000d34 ; GPIO_SetBits + 112
        0x01000d0c:    0040        @.      LSLS     r0,r0,#1
        0x01000d0e:    4284        .B      CMP      r4,r0
        0x01000d10:    d010        ..      BEQ      0x1000d34 ; GPIO_SetBits + 112
        0x01000d12:    0040        @.      LSLS     r0,r0,#1
        0x01000d14:    4284        .B      CMP      r4,r0
        0x01000d16:    d00d        ..      BEQ      0x1000d34 ; GPIO_SetBits + 112
        0x01000d18:    0040        @.      LSLS     r0,r0,#1
        0x01000d1a:    4284        .B      CMP      r4,r0
        0x01000d1c:    d00a        ..      BEQ      0x1000d34 ; GPIO_SetBits + 112
        0x01000d1e:    0040        @.      LSLS     r0,r0,#1
        0x01000d20:    4284        .B      CMP      r4,r0
        0x01000d22:    d007        ..      BEQ      0x1000d34 ; GPIO_SetBits + 112
        0x01000d24:    0040        @.      LSLS     r0,r0,#1
        0x01000d26:    4284        .B      CMP      r4,r0
        0x01000d28:    d004        ..      BEQ      0x1000d34 ; GPIO_SetBits + 112
        0x01000d2a:    4a48        HJ      LDR      r2,[pc,#288] ; [0x1000e4c] = 0x10075cc
        0x01000d2c:    21ab        .!      MOVS     r1,#0xab
        0x01000d2e:    4845        EH      LDR      r0,[pc,#276] ; [0x1000e44] = 0x1000c44
        0x01000d30:    f7fffd6a    ..j.    BL       _assert_handler ; 0x1000808
        0x01000d34:    2500        .%      MOVS     r5,#0
        0x01000d36:    e00f        ..      B        0x1000d58 ; GPIO_SetBits + 148
        0x01000d38:    2001        .       MOVS     r0,#1
        0x01000d3a:    40a8        .@      LSLS     r0,r0,r5
        0x01000d3c:    4020         @      ANDS     r0,r0,r4
        0x01000d3e:    2800        .(      CMP      r0,#0
        0x01000d40:    d009        ..      BEQ      0x1000d56 ; GPIO_SetBits + 146
        0x01000d42:    0130        0.      LSLS     r0,r6,#4
        0x01000d44:    4940        @I      LDR      r1,[pc,#256] ; [0x1000e48] = 0xf8700
        0x01000d46:    1840        @.      ADDS     r0,r0,r1
        0x01000d48:    5d40        @]      LDRB     r0,[r0,r5]
        0x01000d4a:    213f        ?!      MOVS     r1,#0x3f
        0x01000d4c:    4308        .C      ORRS     r0,r0,r1
        0x01000d4e:    0131        1.      LSLS     r1,r6,#4
        0x01000d50:    4a3d        =J      LDR      r2,[pc,#244] ; [0x1000e48] = 0xf8700
        0x01000d52:    1889        ..      ADDS     r1,r1,r2
        0x01000d54:    5548        HU      STRB     r0,[r1,r5]
        0x01000d56:    1c6d        m.      ADDS     r5,r5,#1
        0x01000d58:    2d10        .-      CMP      r5,#0x10
        0x01000d5a:    dbed        ..      BLT      0x1000d38 ; GPIO_SetBits + 116
        0x01000d5c:    bd70        p.      POP      {r4-r6,pc}
    GPIO_StructInit
        0x01000d5e:    2100        .!      MOVS     r1,#0
        0x01000d60:    43c9        .C      MVNS     r1,r1
        0x01000d62:    8001        ..      STRH     r1,[r0,#0]
        0x01000d64:    2101        .!      MOVS     r1,#1
        0x01000d66:    7081        .p      STRB     r1,[r0,#2]
        0x01000d68:    4770        pG      BX       lr
    GPIO_Write
        0x01000d6a:    b570        p.      PUSH     {r4-r6,lr}
        0x01000d6c:    4605        .F      MOV      r5,r0
        0x01000d6e:    460e        .F      MOV      r6,r1
        0x01000d70:    2d03        .-      CMP      r5,#3
        0x01000d72:    db04        ..      BLT      0x1000d7e ; GPIO_Write + 20
        0x01000d74:    4a36        6J      LDR      r2,[pc,#216] ; [0x1000e50] = 0x10075d9
        0x01000d76:    21be        .!      MOVS     r1,#0xbe
        0x01000d78:    4832        2H      LDR      r0,[pc,#200] ; [0x1000e44] = 0x1000c44
        0x01000d7a:    f7fffd45    ..E.    BL       _assert_handler ; 0x1000808
        0x01000d7e:    2400        .$      MOVS     r4,#0
        0x01000d80:    e013        ..      B        0x1000daa ; GPIO_Write + 64
        0x01000d82:    2001        .       MOVS     r0,#1
        0x01000d84:    40a0        .@      LSLS     r0,r0,r4
        0x01000d86:    4030        0@      ANDS     r0,r0,r6
        0x01000d88:    4120         A      ASRS     r0,r0,r4
        0x01000d8a:    2800        .(      CMP      r0,#0
        0x01000d8c:    d006        ..      BEQ      0x1000d9c ; GPIO_Write + 50
        0x01000d8e:    2001        .       MOVS     r0,#1
        0x01000d90:    40a0        .@      LSLS     r0,r0,r4
        0x01000d92:    b281        ..      UXTH     r1,r0
        0x01000d94:    4628        (F      MOV      r0,r5
        0x01000d96:    f7ffff95    ....    BL       GPIO_SetBits ; 0x1000cc4
        0x01000d9a:    e005        ..      B        0x1000da8 ; GPIO_Write + 62
        0x01000d9c:    2001        .       MOVS     r0,#1
        0x01000d9e:    40a0        .@      LSLS     r0,r0,r4
        0x01000da0:    b281        ..      UXTH     r1,r0
        0x01000da2:    4628        (F      MOV      r0,r5
        0x01000da4:    f7ffff19    ....    BL       GPIO_ResetBits ; 0x1000bda
        0x01000da8:    1c64        d.      ADDS     r4,r4,#1
        0x01000daa:    2c10        .,      CMP      r4,#0x10
        0x01000dac:    dbe9        ..      BLT      0x1000d82 ; GPIO_Write + 24
        0x01000dae:    bd70        p.      POP      {r4-r6,pc}
    GPIO_WriteBit
        0x01000db0:    b570        p.      PUSH     {r4-r6,lr}
        0x01000db2:    4606        .F      MOV      r6,r0
        0x01000db4:    460c        .F      MOV      r4,r1
        0x01000db6:    4615        .F      MOV      r5,r2
        0x01000db8:    2e03        ..      CMP      r6,#3
        0x01000dba:    db04        ..      BLT      0x1000dc6 ; GPIO_WriteBit + 22
        0x01000dbc:    4a25        %J      LDR      r2,[pc,#148] ; [0x1000e54] = 0x10075e4
        0x01000dbe:    21cd        .!      MOVS     r1,#0xcd
        0x01000dc0:    4820         H      LDR      r0,[pc,#128] ; [0x1000e44] = 0x1000c44
        0x01000dc2:    f7fffd21    ..!.    BL       _assert_handler ; 0x1000808
        0x01000dc6:    2c01        .,      CMP      r4,#1
        0x01000dc8:    d02b        +.      BEQ      0x1000e22 ; GPIO_WriteBit + 114
        0x01000dca:    2c02        .,      CMP      r4,#2
        0x01000dcc:    d029        ).      BEQ      0x1000e22 ; GPIO_WriteBit + 114
        0x01000dce:    2c04        .,      CMP      r4,#4
        0x01000dd0:    d027        '.      BEQ      0x1000e22 ; GPIO_WriteBit + 114
        0x01000dd2:    2c08        .,      CMP      r4,#8
        0x01000dd4:    d025        %.      BEQ      0x1000e22 ; GPIO_WriteBit + 114
        0x01000dd6:    2c10        .,      CMP      r4,#0x10
        0x01000dd8:    d023        #.      BEQ      0x1000e22 ; GPIO_WriteBit + 114
        0x01000dda:    2c20         ,      CMP      r4,#0x20
        0x01000ddc:    d021        !.      BEQ      0x1000e22 ; GPIO_WriteBit + 114
        0x01000dde:    2c40        @,      CMP      r4,#0x40
        0x01000de0:    d01f        ..      BEQ      0x1000e22 ; GPIO_WriteBit + 114
        0x01000de2:    2c80        .,      CMP      r4,#0x80
        0x01000de4:    d01d        ..      BEQ      0x1000e22 ; GPIO_WriteBit + 114
        0x01000de6:    20ff        .       MOVS     r0,#0xff
        0x01000de8:    3001        .0      ADDS     r0,#1
        0x01000dea:    4284        .B      CMP      r4,r0
        0x01000dec:    d019        ..      BEQ      0x1000e22 ; GPIO_WriteBit + 114
        0x01000dee:    0040        @.      LSLS     r0,r0,#1
        0x01000df0:    4284        .B      CMP      r4,r0
        0x01000df2:    d016        ..      BEQ      0x1000e22 ; GPIO_WriteBit + 114
        0x01000df4:    0040        @.      LSLS     r0,r0,#1
        0x01000df6:    4284        .B      CMP      r4,r0
        0x01000df8:    d013        ..      BEQ      0x1000e22 ; GPIO_WriteBit + 114
        0x01000dfa:    0040        @.      LSLS     r0,r0,#1
        0x01000dfc:    4284        .B      CMP      r4,r0
        0x01000dfe:    d010        ..      BEQ      0x1000e22 ; GPIO_WriteBit + 114
        0x01000e00:    0040        @.      LSLS     r0,r0,#1
        0x01000e02:    4284        .B      CMP      r4,r0
        0x01000e04:    d00d        ..      BEQ      0x1000e22 ; GPIO_WriteBit + 114
        0x01000e06:    0040        @.      LSLS     r0,r0,#1
        0x01000e08:    4284        .B      CMP      r4,r0
        0x01000e0a:    d00a        ..      BEQ      0x1000e22 ; GPIO_WriteBit + 114
        0x01000e0c:    0040        @.      LSLS     r0,r0,#1
        0x01000e0e:    4284        .B      CMP      r4,r0
        0x01000e10:    d007        ..      BEQ      0x1000e22 ; GPIO_WriteBit + 114
        0x01000e12:    0040        @.      LSLS     r0,r0,#1
        0x01000e14:    4284        .B      CMP      r4,r0
        0x01000e16:    d004        ..      BEQ      0x1000e22 ; GPIO_WriteBit + 114
        0x01000e18:    4a0e        .J      LDR      r2,[pc,#56] ; [0x1000e54] = 0x10075e4
        0x01000e1a:    21ce        .!      MOVS     r1,#0xce
        0x01000e1c:    4809        .H      LDR      r0,[pc,#36] ; [0x1000e44] = 0x1000c44
        0x01000e1e:    f7fffcf3    ....    BL       _assert_handler ; 0x1000808
        0x01000e22:    2d01        .-      CMP      r5,#1
        0x01000e24:    d104        ..      BNE      0x1000e30 ; GPIO_WriteBit + 128
        0x01000e26:    4621        !F      MOV      r1,r4
        0x01000e28:    4630        0F      MOV      r0,r6
        0x01000e2a:    f7ffff4b    ..K.    BL       GPIO_SetBits ; 0x1000cc4
        0x01000e2e:    e005        ..      B        0x1000e3c ; GPIO_WriteBit + 140
        0x01000e30:    2d00        .-      CMP      r5,#0
        0x01000e32:    d103        ..      BNE      0x1000e3c ; GPIO_WriteBit + 140
        0x01000e34:    4621        !F      MOV      r1,r4
        0x01000e36:    4630        0F      MOV      r0,r6
        0x01000e38:    f7fffecf    ....    BL       GPIO_ResetBits ; 0x1000bda
        0x01000e3c:    bd70        p.      POP      {r4-r6,pc}
    $d
        0x01000e3e:    0000        ..      DCW    0
        0x01000e40:    010075bd    .u..    DCD    16807357
        0x01000e44:    01000c44    D...    DCD    16780356
        0x01000e48:    000f8700    ....    DCD    1017600
        0x01000e4c:    010075cc    .u..    DCD    16807372
        0x01000e50:    010075d9    .u..    DCD    16807385
        0x01000e54:    010075e4    .u..    DCD    16807396
    $t
    .text
    EXTI_ClearITPendingBit
        0x01000e58:    b570        p.      PUSH     {r4-r6,lr}
        0x01000e5a:    4604        .F      MOV      r4,r0
        0x01000e5c:    460d        .F      MOV      r5,r1
        0x01000e5e:    2c00        .,      CMP      r4,#0
        0x01000e60:    d008        ..      BEQ      0x1000e74 ; EXTI_ClearITPendingBit + 28
        0x01000e62:    2c01        .,      CMP      r4,#1
        0x01000e64:    d006        ..      BEQ      0x1000e74 ; EXTI_ClearITPendingBit + 28
        0x01000e66:    2c02        .,      CMP      r4,#2
        0x01000e68:    d004        ..      BEQ      0x1000e74 ; EXTI_ClearITPendingBit + 28
        0x01000e6a:    4adc        .J      LDR      r2,[pc,#880] ; [0x10011dc] = 0x10075f2
        0x01000e6c:    210e        .!      MOVS     r1,#0xe
        0x01000e6e:    a0dc        ..      ADR      r0,{pc}+0x372 ; 0x10011e0
        0x01000e70:    f7fffcca    ....    BL       _assert_handler ; 0x1000808
        0x01000e74:    0c28        (.      LSRS     r0,r5,#16
        0x01000e76:    0400        ..      LSLS     r0,r0,#16
        0x01000e78:    2800        .(      CMP      r0,#0
        0x01000e7a:    d101        ..      BNE      0x1000e80 ; EXTI_ClearITPendingBit + 40
        0x01000e7c:    2d00        .-      CMP      r5,#0
        0x01000e7e:    d104        ..      BNE      0x1000e8a ; EXTI_ClearITPendingBit + 50
        0x01000e80:    4ad6        .J      LDR      r2,[pc,#856] ; [0x10011dc] = 0x10075f2
        0x01000e82:    210f        .!      MOVS     r1,#0xf
        0x01000e84:    a0d6        ..      ADR      r0,{pc}+0x35c ; 0x10011e0
        0x01000e86:    f7fffcbf    ....    BL       _assert_handler ; 0x1000808
        0x01000e8a:    0060        `.      LSLS     r0,r4,#1
        0x01000e8c:    49de        .I      LDR      r1,[pc,#888] ; [0x1001208] = 0xf8700
        0x01000e8e:    1840        @.      ADDS     r0,r0,r1
        0x01000e90:    8ec6        ..      LDRH     r6,[r0,#0x36]
        0x01000e92:    4630        0F      MOV      r0,r6
        0x01000e94:    4028        (@      ANDS     r0,r0,r5
        0x01000e96:    2800        .(      CMP      r0,#0
        0x01000e98:    d003        ..      BEQ      0x1000ea2 ; EXTI_ClearITPendingBit + 74
        0x01000e9a:    4630        0F      MOV      r0,r6
        0x01000e9c:    43a8        .C      BICS     r0,r0,r5
        0x01000e9e:    4606        .F      MOV      r6,r0
        0x01000ea0:    e002        ..      B        0x1000ea8 ; EXTI_ClearITPendingBit + 80
        0x01000ea2:    4630        0F      MOV      r0,r6
        0x01000ea4:    4328        (C      ORRS     r0,r0,r5
        0x01000ea6:    4606        .F      MOV      r6,r0
        0x01000ea8:    0060        `.      LSLS     r0,r4,#1
        0x01000eaa:    49d7        .I      LDR      r1,[pc,#860] ; [0x1001208] = 0xf8700
        0x01000eac:    1840        @.      ADDS     r0,r0,r1
        0x01000eae:    86c6        ..      STRH     r6,[r0,#0x36]
        0x01000eb0:    0060        `.      LSLS     r0,r4,#1
        0x01000eb2:    49d6        .I      LDR      r1,[pc,#856] ; [0x100120c] = 0x20012
        0x01000eb4:    5a08        .Z      LDRH     r0,[r1,r0]
        0x01000eb6:    43a8        .C      BICS     r0,r0,r5
        0x01000eb8:    0061        a.      LSLS     r1,r4,#1
        0x01000eba:    4ad4        .J      LDR      r2,[pc,#848] ; [0x100120c] = 0x20012
        0x01000ebc:    5250        PR      STRH     r0,[r2,r1]
        0x01000ebe:    bd70        p.      POP      {r4-r6,pc}
    EXTI_DeInit
        0x01000ec0:    2000        .       MOVS     r0,#0
        0x01000ec2:    e01c        ..      B        0x1000efe ; EXTI_DeInit + 62
        0x01000ec4:    2100        .!      MOVS     r1,#0
        0x01000ec6:    0042        B.      LSLS     r2,r0,#1
        0x01000ec8:    4bd1        .K      LDR      r3,[pc,#836] ; [0x1001210] = 0x20000
        0x01000eca:    5299        .R      STRH     r1,[r3,r2]
        0x01000ecc:    0041        A.      LSLS     r1,r0,#1
        0x01000ece:    461a        .F      MOV      r2,r3
        0x01000ed0:    5a51        QZ      LDRH     r1,[r2,r1]
        0x01000ed2:    0042        B.      LSLS     r2,r0,#1
        0x01000ed4:    4bcc        .K      LDR      r3,[pc,#816] ; [0x1001208] = 0xf8700
        0x01000ed6:    18d2        ..      ADDS     r2,r2,r3
        0x01000ed8:    8611        ..      STRH     r1,[r2,#0x30]
        0x01000eda:    2100        .!      MOVS     r1,#0
        0x01000edc:    0042        B.      LSLS     r2,r0,#1
        0x01000ede:    4bcd        .K      LDR      r3,[pc,#820] ; [0x1001214] = 0x20006
        0x01000ee0:    5299        .R      STRH     r1,[r3,r2]
        0x01000ee2:    0042        B.      LSLS     r2,r0,#1
        0x01000ee4:    4bcc        .K      LDR      r3,[pc,#816] ; [0x1001218] = 0x2000c
        0x01000ee6:    5299        .R      STRH     r1,[r3,r2]
        0x01000ee8:    0042        B.      LSLS     r2,r0,#1
        0x01000eea:    4bc8        .K      LDR      r3,[pc,#800] ; [0x100120c] = 0x20012
        0x01000eec:    5299        .R      STRH     r1,[r3,r2]
        0x01000eee:    0041        A.      LSLS     r1,r0,#1
        0x01000ef0:    4ac8        .J      LDR      r2,[pc,#800] ; [0x1001214] = 0x20006
        0x01000ef2:    5a51        QZ      LDRH     r1,[r2,r1]
        0x01000ef4:    0042        B.      LSLS     r2,r0,#1
        0x01000ef6:    4bc4        .K      LDR      r3,[pc,#784] ; [0x1001208] = 0xf8700
        0x01000ef8:    18d2        ..      ADDS     r2,r2,r3
        0x01000efa:    86d1        ..      STRH     r1,[r2,#0x36]
        0x01000efc:    1c40        @.      ADDS     r0,r0,#1
        0x01000efe:    2803        .(      CMP      r0,#3
        0x01000f00:    d3e0        ..      BCC      0x1000ec4 ; EXTI_DeInit + 4
        0x01000f02:    4770        pG      BX       lr
    EXTI_GetITLineStatus
        0x01000f04:    4601        .F      MOV      r1,r0
        0x01000f06:    0048        H.      LSLS     r0,r1,#1
        0x01000f08:    4ac0        .J      LDR      r2,[pc,#768] ; [0x100120c] = 0x20012
        0x01000f0a:    5a10        .Z      LDRH     r0,[r2,r0]
        0x01000f0c:    4770        pG      BX       lr
    EXTI_LineConfig
        0x01000f0e:    b5f7        ..      PUSH     {r0-r2,r4-r7,lr}
        0x01000f10:    4604        .F      MOV      r4,r0
        0x01000f12:    460d        .F      MOV      r5,r1
        0x01000f14:    2c00        .,      CMP      r4,#0
        0x01000f16:    d008        ..      BEQ      0x1000f2a ; EXTI_LineConfig + 28
        0x01000f18:    2c01        .,      CMP      r4,#1
        0x01000f1a:    d006        ..      BEQ      0x1000f2a ; EXTI_LineConfig + 28
        0x01000f1c:    2c02        .,      CMP      r4,#2
        0x01000f1e:    d004        ..      BEQ      0x1000f2a ; EXTI_LineConfig + 28
        0x01000f20:    4abe        .J      LDR      r2,[pc,#760] ; [0x100121c] = 0x1007609
        0x01000f22:    2134        4!      MOVS     r1,#0x34
        0x01000f24:    a0ae        ..      ADR      r0,{pc}+0x2bc ; 0x10011e0
        0x01000f26:    f7fffc6f    ..o.    BL       _assert_handler ; 0x1000808
        0x01000f2a:    0c28        (.      LSRS     r0,r5,#16
        0x01000f2c:    0400        ..      LSLS     r0,r0,#16
        0x01000f2e:    2800        .(      CMP      r0,#0
        0x01000f30:    d101        ..      BNE      0x1000f36 ; EXTI_LineConfig + 40
        0x01000f32:    2d00        .-      CMP      r5,#0
        0x01000f34:    d104        ..      BNE      0x1000f40 ; EXTI_LineConfig + 50
        0x01000f36:    4ab9        .J      LDR      r2,[pc,#740] ; [0x100121c] = 0x1007609
        0x01000f38:    2135        5!      MOVS     r1,#0x35
        0x01000f3a:    a0a9        ..      ADR      r0,{pc}+0x2a6 ; 0x10011e0
        0x01000f3c:    f7fffc64    ..d.    BL       _assert_handler ; 0x1000808
        0x01000f40:    0060        `.      LSLS     r0,r4,#1
        0x01000f42:    49b1        .I      LDR      r1,[pc,#708] ; [0x1001208] = 0xf8700
        0x01000f44:    1840        @.      ADDS     r0,r0,r1
        0x01000f46:    8ec7        ..      LDRH     r7,[r0,#0x36]
        0x01000f48:    2600        .&      MOVS     r6,#0
        0x01000f4a:    e012        ..      B        0x1000f72 ; EXTI_LineConfig + 100
        0x01000f4c:    0070        p.      LSLS     r0,r6,#1
        0x01000f4e:    49ae        .I      LDR      r1,[pc,#696] ; [0x1001208] = 0xf8700
        0x01000f50:    1840        @.      ADDS     r0,r0,r1
        0x01000f52:    8e00        ..      LDRH     r0,[r0,#0x30]
        0x01000f54:    2800        .(      CMP      r0,#0
        0x01000f56:    d10b        ..      BNE      0x1000f70 ; EXTI_LineConfig + 98
        0x01000f58:    0071        q.      LSLS     r1,r6,#1
        0x01000f5a:    4aad        .J      LDR      r2,[pc,#692] ; [0x1001210] = 0x20000
        0x01000f5c:    5250        PR      STRH     r0,[r2,r1]
        0x01000f5e:    0071        q.      LSLS     r1,r6,#1
        0x01000f60:    4aac        .J      LDR      r2,[pc,#688] ; [0x1001214] = 0x20006
        0x01000f62:    5250        PR      STRH     r0,[r2,r1]
        0x01000f64:    0071        q.      LSLS     r1,r6,#1
        0x01000f66:    4aac        .J      LDR      r2,[pc,#688] ; [0x1001218] = 0x2000c
        0x01000f68:    5250        PR      STRH     r0,[r2,r1]
        0x01000f6a:    0071        q.      LSLS     r1,r6,#1
        0x01000f6c:    4aa7        .J      LDR      r2,[pc,#668] ; [0x100120c] = 0x20012
        0x01000f6e:    5250        PR      STRH     r0,[r2,r1]
        0x01000f70:    1c76        v.      ADDS     r6,r6,#1
        0x01000f72:    2e03        ..      CMP      r6,#3
        0x01000f74:    dbea        ..      BLT      0x1000f4c ; EXTI_LineConfig + 62
        0x01000f76:    9802        ..      LDR      r0,[sp,#8]
        0x01000f78:    2800        .(      CMP      r0,#0
        0x01000f7a:    d006        ..      BEQ      0x1000f8a ; EXTI_LineConfig + 124
        0x01000f7c:    2801        .(      CMP      r0,#1
        0x01000f7e:    d013        ..      BEQ      0x1000fa8 ; EXTI_LineConfig + 154
        0x01000f80:    2802        .(      CMP      r0,#2
        0x01000f82:    d035        5.      BEQ      0x1000ff0 ; EXTI_LineConfig + 226
        0x01000f84:    2803        .(      CMP      r0,#3
        0x01000f86:    d172        r.      BNE      0x100106e ; EXTI_LineConfig + 352
        0x01000f88:    e056        V.      B        0x1001038 ; EXTI_LineConfig + 298
        0x01000f8a:    0060        `.      LSLS     r0,r4,#1
        0x01000f8c:    49a0        .I      LDR      r1,[pc,#640] ; [0x1001210] = 0x20000
        0x01000f8e:    5a08        .Z      LDRH     r0,[r1,r0]
        0x01000f90:    43a8        .C      BICS     r0,r0,r5
        0x01000f92:    0061        a.      LSLS     r1,r4,#1
        0x01000f94:    4a9e        .J      LDR      r2,[pc,#632] ; [0x1001210] = 0x20000
        0x01000f96:    5250        PR      STRH     r0,[r2,r1]
        0x01000f98:    0060        `.      LSLS     r0,r4,#1
        0x01000f9a:    4611        .F      MOV      r1,r2
        0x01000f9c:    5a08        .Z      LDRH     r0,[r1,r0]
        0x01000f9e:    0061        a.      LSLS     r1,r4,#1
        0x01000fa0:    4a99        .J      LDR      r2,[pc,#612] ; [0x1001208] = 0xf8700
        0x01000fa2:    1889        ..      ADDS     r1,r1,r2
        0x01000fa4:    8608        ..      STRH     r0,[r1,#0x30]
        0x01000fa6:    e086        ..      B        0x10010b6 ; EXTI_LineConfig + 424
        0x01000fa8:    0060        `.      LSLS     r0,r4,#1
        0x01000faa:    499a        .I      LDR      r1,[pc,#616] ; [0x1001214] = 0x20006
        0x01000fac:    5a08        .Z      LDRH     r0,[r1,r0]
        0x01000fae:    43a8        .C      BICS     r0,r0,r5
        0x01000fb0:    0061        a.      LSLS     r1,r4,#1
        0x01000fb2:    4a98        .J      LDR      r2,[pc,#608] ; [0x1001214] = 0x20006
        0x01000fb4:    5250        PR      STRH     r0,[r2,r1]
        0x01000fb6:    4638        8F      MOV      r0,r7
        0x01000fb8:    43a8        .C      BICS     r0,r0,r5
        0x01000fba:    4607        .F      MOV      r7,r0
        0x01000fbc:    0060        `.      LSLS     r0,r4,#1
        0x01000fbe:    4996        .I      LDR      r1,[pc,#600] ; [0x1001218] = 0x2000c
        0x01000fc0:    5a08        .Z      LDRH     r0,[r1,r0]
        0x01000fc2:    43a8        .C      BICS     r0,r0,r5
        0x01000fc4:    0061        a.      LSLS     r1,r4,#1
        0x01000fc6:    4a94        .J      LDR      r2,[pc,#592] ; [0x1001218] = 0x2000c
        0x01000fc8:    5250        PR      STRH     r0,[r2,r1]
        0x01000fca:    0060        `.      LSLS     r0,r4,#1
        0x01000fcc:    498e        .I      LDR      r1,[pc,#568] ; [0x1001208] = 0xf8700
        0x01000fce:    1840        @.      ADDS     r0,r0,r1
        0x01000fd0:    86c7        ..      STRH     r7,[r0,#0x36]
        0x01000fd2:    0060        `.      LSLS     r0,r4,#1
        0x01000fd4:    498e        .I      LDR      r1,[pc,#568] ; [0x1001210] = 0x20000
        0x01000fd6:    5a08        .Z      LDRH     r0,[r1,r0]
        0x01000fd8:    4328        (C      ORRS     r0,r0,r5
        0x01000fda:    0061        a.      LSLS     r1,r4,#1
        0x01000fdc:    4a8c        .J      LDR      r2,[pc,#560] ; [0x1001210] = 0x20000
        0x01000fde:    5250        PR      STRH     r0,[r2,r1]
        0x01000fe0:    0060        `.      LSLS     r0,r4,#1
        0x01000fe2:    4611        .F      MOV      r1,r2
        0x01000fe4:    5a08        .Z      LDRH     r0,[r1,r0]
        0x01000fe6:    0061        a.      LSLS     r1,r4,#1
        0x01000fe8:    4a87        .J      LDR      r2,[pc,#540] ; [0x1001208] = 0xf8700
        0x01000fea:    1889        ..      ADDS     r1,r1,r2
        0x01000fec:    8608        ..      STRH     r0,[r1,#0x30]
        0x01000fee:    e062        b.      B        0x10010b6 ; EXTI_LineConfig + 424
        0x01000ff0:    0060        `.      LSLS     r0,r4,#1
        0x01000ff2:    4988        .I      LDR      r1,[pc,#544] ; [0x1001214] = 0x20006
        0x01000ff4:    5a08        .Z      LDRH     r0,[r1,r0]
        0x01000ff6:    4328        (C      ORRS     r0,r0,r5
        0x01000ff8:    0061        a.      LSLS     r1,r4,#1
        0x01000ffa:    4a86        .J      LDR      r2,[pc,#536] ; [0x1001214] = 0x20006
        0x01000ffc:    5250        PR      STRH     r0,[r2,r1]
        0x01000ffe:    4638        8F      MOV      r0,r7
        0x01001000:    4328        (C      ORRS     r0,r0,r5
        0x01001002:    4607        .F      MOV      r7,r0
        0x01001004:    0060        `.      LSLS     r0,r4,#1
        0x01001006:    4984        .I      LDR      r1,[pc,#528] ; [0x1001218] = 0x2000c
        0x01001008:    5a08        .Z      LDRH     r0,[r1,r0]
        0x0100100a:    43a8        .C      BICS     r0,r0,r5
        0x0100100c:    0061        a.      LSLS     r1,r4,#1
        0x0100100e:    4a82        .J      LDR      r2,[pc,#520] ; [0x1001218] = 0x2000c
        0x01001010:    5250        PR      STRH     r0,[r2,r1]
        0x01001012:    0060        `.      LSLS     r0,r4,#1
        0x01001014:    497c        |I      LDR      r1,[pc,#496] ; [0x1001208] = 0xf8700
        0x01001016:    1840        @.      ADDS     r0,r0,r1
        0x01001018:    86c7        ..      STRH     r7,[r0,#0x36]
        0x0100101a:    0060        `.      LSLS     r0,r4,#1
        0x0100101c:    497c        |I      LDR      r1,[pc,#496] ; [0x1001210] = 0x20000
        0x0100101e:    5a08        .Z      LDRH     r0,[r1,r0]
        0x01001020:    4328        (C      ORRS     r0,r0,r5
        0x01001022:    0061        a.      LSLS     r1,r4,#1
        0x01001024:    4a7a        zJ      LDR      r2,[pc,#488] ; [0x1001210] = 0x20000
        0x01001026:    5250        PR      STRH     r0,[r2,r1]
        0x01001028:    0060        `.      LSLS     r0,r4,#1
        0x0100102a:    4611        .F      MOV      r1,r2
        0x0100102c:    5a08        .Z      LDRH     r0,[r1,r0]
        0x0100102e:    0061        a.      LSLS     r1,r4,#1
        0x01001030:    4a75        uJ      LDR      r2,[pc,#468] ; [0x1001208] = 0xf8700
        0x01001032:    1889        ..      ADDS     r1,r1,r2
        0x01001034:    8608        ..      STRH     r0,[r1,#0x30]
        0x01001036:    e03e        >.      B        0x10010b6 ; EXTI_LineConfig + 424
        0x01001038:    0060        `.      LSLS     r0,r4,#1
        0x0100103a:    4976        vI      LDR      r1,[pc,#472] ; [0x1001214] = 0x20006
        0x0100103c:    5a08        .Z      LDRH     r0,[r1,r0]
        0x0100103e:    43a8        .C      BICS     r0,r0,r5
        0x01001040:    0061        a.      LSLS     r1,r4,#1
        0x01001042:    4a74        tJ      LDR      r2,[pc,#464] ; [0x1001214] = 0x20006
        0x01001044:    5250        PR      STRH     r0,[r2,r1]
        0x01001046:    2600        .&      MOVS     r6,#0
        0x01001048:    e018        ..      B        0x100107c ; EXTI_LineConfig + 366
        0x0100104a:    2001        .       MOVS     r0,#1
        0x0100104c:    40b0        .@      LSLS     r0,r0,r6
        0x0100104e:    4028        (@      ANDS     r0,r0,r5
        0x01001050:    2800        .(      CMP      r0,#0
        0x01001052:    d012        ..      BEQ      0x100107a ; EXTI_LineConfig + 364
        0x01001054:    2201        ."      MOVS     r2,#1
        0x01001056:    40b2        .@      LSLS     r2,r2,r6
        0x01001058:    b291        ..      UXTH     r1,r2
        0x0100105a:    b2e0        ..      UXTB     r0,r4
        0x0100105c:    f7fffd29    ..).    BL       GPIO_ReadInputDataBit ; 0x1000ab2
        0x01001060:    2800        .(      CMP      r0,#0
        0x01001062:    d005        ..      BEQ      0x1001070 ; EXTI_LineConfig + 354
        0x01001064:    2001        .       MOVS     r0,#1
        0x01001066:    40b0        .@      LSLS     r0,r0,r6
        0x01001068:    4338        8C      ORRS     r0,r0,r7
        0x0100106a:    b287        ..      UXTH     r7,r0
        0x0100106c:    e005        ..      B        0x100107a ; EXTI_LineConfig + 364
        0x0100106e:    e021        !.      B        0x10010b4 ; EXTI_LineConfig + 422
        0x01001070:    2001        .       MOVS     r0,#1
        0x01001072:    40b0        .@      LSLS     r0,r0,r6
        0x01001074:    4639        9F      MOV      r1,r7
        0x01001076:    4381        .C      BICS     r1,r1,r0
        0x01001078:    460f        .F      MOV      r7,r1
        0x0100107a:    1c76        v.      ADDS     r6,r6,#1
        0x0100107c:    2e10        ..      CMP      r6,#0x10
        0x0100107e:    dbe4        ..      BLT      0x100104a ; EXTI_LineConfig + 316
        0x01001080:    0060        `.      LSLS     r0,r4,#1
        0x01001082:    4965        eI      LDR      r1,[pc,#404] ; [0x1001218] = 0x2000c
        0x01001084:    5a08        .Z      LDRH     r0,[r1,r0]
        0x01001086:    4328        (C      ORRS     r0,r0,r5
        0x01001088:    0061        a.      LSLS     r1,r4,#1
        0x0100108a:    4a63        cJ      LDR      r2,[pc,#396] ; [0x1001218] = 0x2000c
        0x0100108c:    5250        PR      STRH     r0,[r2,r1]
        0x0100108e:    0060        `.      LSLS     r0,r4,#1
        0x01001090:    495d        ]I      LDR      r1,[pc,#372] ; [0x1001208] = 0xf8700
        0x01001092:    1840        @.      ADDS     r0,r0,r1
        0x01001094:    86c7        ..      STRH     r7,[r0,#0x36]
        0x01001096:    0060        `.      LSLS     r0,r4,#1
        0x01001098:    495d        ]I      LDR      r1,[pc,#372] ; [0x1001210] = 0x20000
        0x0100109a:    5a08        .Z      LDRH     r0,[r1,r0]
        0x0100109c:    4328        (C      ORRS     r0,r0,r5
        0x0100109e:    0061        a.      LSLS     r1,r4,#1
        0x010010a0:    4a5b        [J      LDR      r2,[pc,#364] ; [0x1001210] = 0x20000
        0x010010a2:    5250        PR      STRH     r0,[r2,r1]
        0x010010a4:    0060        `.      LSLS     r0,r4,#1
        0x010010a6:    4611        .F      MOV      r1,r2
        0x010010a8:    5a08        .Z      LDRH     r0,[r1,r0]
        0x010010aa:    0061        a.      LSLS     r1,r4,#1
        0x010010ac:    4a56        VJ      LDR      r2,[pc,#344] ; [0x1001208] = 0xf8700
        0x010010ae:    1889        ..      ADDS     r1,r1,r2
        0x010010b0:    8608        ..      STRH     r0,[r1,#0x30]
        0x010010b2:    e000        ..      B        0x10010b6 ; EXTI_LineConfig + 424
        0x010010b4:    bf00        ..      NOP      
        0x010010b6:    bf00        ..      NOP      
        0x010010b8:    bdfe        ..      POP      {r1-r7,pc}
    GPIO_IRQHandler
        0x010010ba:    b570        p.      PUSH     {r4-r6,lr}
        0x010010bc:    200c        .       MOVS     r0,#0xc
        0x010010be:    2101        .!      MOVS     r1,#1
        0x010010c0:    4081        .@      LSLS     r1,r1,r0
        0x010010c2:    4a57        WJ      LDR      r2,[pc,#348] ; [0x1001220] = 0xe000e180
        0x010010c4:    6011        .`      STR      r1,[r2,#0]
        0x010010c6:    bf00        ..      NOP      
        0x010010c8:    2400        .$      MOVS     r4,#0
        0x010010ca:    e078        x.      B        0x10011be ; GPIO_IRQHandler + 260
        0x010010cc:    2500        .%      MOVS     r5,#0
        0x010010ce:    e073        s.      B        0x10011b8 ; GPIO_IRQHandler + 254
        0x010010d0:    0060        `.      LSLS     r0,r4,#1
        0x010010d2:    494f        OI      LDR      r1,[pc,#316] ; [0x1001210] = 0x20000
        0x010010d4:    5a08        .Z      LDRH     r0,[r1,r0]
        0x010010d6:    2101        .!      MOVS     r1,#1
        0x010010d8:    40a9        .@      LSLS     r1,r1,r5
        0x010010da:    4008        .@      ANDS     r0,r0,r1
        0x010010dc:    2800        .(      CMP      r0,#0
        0x010010de:    d06a        j.      BEQ      0x10011b6 ; GPIO_IRQHandler + 252
        0x010010e0:    2201        ."      MOVS     r2,#1
        0x010010e2:    40aa        .@      LSLS     r2,r2,r5
        0x010010e4:    b291        ..      UXTH     r1,r2
        0x010010e6:    b2e0        ..      UXTB     r0,r4
        0x010010e8:    f7fffce3    ....    BL       GPIO_ReadInputDataBit ; 0x1000ab2
        0x010010ec:    4601        .F      MOV      r1,r0
        0x010010ee:    2001        .       MOVS     r0,#1
        0x010010f0:    40a8        .@      LSLS     r0,r0,r5
        0x010010f2:    0062        b.      LSLS     r2,r4,#1
        0x010010f4:    4b44        DK      LDR      r3,[pc,#272] ; [0x1001208] = 0xf8700
        0x010010f6:    18d2        ..      ADDS     r2,r2,r3
        0x010010f8:    8ed2        ..      LDRH     r2,[r2,#0x36]
        0x010010fa:    4390        .C      BICS     r0,r0,r2
        0x010010fc:    4128        (A      ASRS     r0,r0,r5
        0x010010fe:    4281        .B      CMP      r1,r0
        0x01001100:    d159        Y.      BNE      0x10011b6 ; GPIO_IRQHandler + 252
        0x01001102:    0060        `.      LSLS     r0,r4,#1
        0x01001104:    4944        DI      LDR      r1,[pc,#272] ; [0x1001218] = 0x2000c
        0x01001106:    5a08        .Z      LDRH     r0,[r1,r0]
        0x01001108:    2101        .!      MOVS     r1,#1
        0x0100110a:    40a9        .@      LSLS     r1,r1,r5
        0x0100110c:    4008        .@      ANDS     r0,r0,r1
        0x0100110e:    2800        .(      CMP      r0,#0
        0x01001110:    d021        !.      BEQ      0x1001156 ; GPIO_IRQHandler + 156
        0x01001112:    0060        `.      LSLS     r0,r4,#1
        0x01001114:    493d        =I      LDR      r1,[pc,#244] ; [0x100120c] = 0x20012
        0x01001116:    5a08        .Z      LDRH     r0,[r1,r0]
        0x01001118:    2101        .!      MOVS     r1,#1
        0x0100111a:    40a9        .@      LSLS     r1,r1,r5
        0x0100111c:    4308        .C      ORRS     r0,r0,r1
        0x0100111e:    0061        a.      LSLS     r1,r4,#1
        0x01001120:    4a3a        :J      LDR      r2,[pc,#232] ; [0x100120c] = 0x20012
        0x01001122:    5250        PR      STRH     r0,[r2,r1]
        0x01001124:    2c00        .,      CMP      r4,#0
        0x01001126:    d004        ..      BEQ      0x1001132 ; GPIO_IRQHandler + 120
        0x01001128:    2c01        .,      CMP      r4,#1
        0x0100112a:    d005        ..      BEQ      0x1001138 ; GPIO_IRQHandler + 126
        0x0100112c:    2c02        .,      CMP      r4,#2
        0x0100112e:    d109        ..      BNE      0x1001144 ; GPIO_IRQHandler + 138
        0x01001130:    e005        ..      B        0x100113e ; GPIO_IRQHandler + 132
        0x01001132:    f7fff8c0    ....    BL       EXTI0_IRQHandler ; 0x10002b6
        0x01001136:    e006        ..      B        0x1001146 ; GPIO_IRQHandler + 140
        0x01001138:    f7fff8be    ....    BL       EXTI1_IRQHandler ; 0x10002b8
        0x0100113c:    e003        ..      B        0x1001146 ; GPIO_IRQHandler + 140
        0x0100113e:    f7fff8bc    ....    BL       EXTI2_IRQHandler ; 0x10002ba
        0x01001142:    e000        ..      B        0x1001146 ; GPIO_IRQHandler + 140
        0x01001144:    bf00        ..      NOP      
        0x01001146:    bf00        ..      NOP      
        0x01001148:    2001        .       MOVS     r0,#1
        0x0100114a:    40a8        .@      LSLS     r0,r0,r5
        0x0100114c:    b281        ..      UXTH     r1,r0
        0x0100114e:    4620         F      MOV      r0,r4
        0x01001150:    f7fffe82    ....    BL       EXTI_ClearITPendingBit ; 0x1000e58
        0x01001154:    e02f        /.      B        0x10011b6 ; GPIO_IRQHandler + 252
        0x01001156:    0060        `.      LSLS     r0,r4,#1
        0x01001158:    492e        .I      LDR      r1,[pc,#184] ; [0x1001214] = 0x20006
        0x0100115a:    5a08        .Z      LDRH     r0,[r1,r0]
        0x0100115c:    2101        .!      MOVS     r1,#1
        0x0100115e:    40a9        .@      LSLS     r1,r1,r5
        0x01001160:    4008        .@      ANDS     r0,r0,r1
        0x01001162:    0061        a.      LSLS     r1,r4,#1
        0x01001164:    4a28        (J      LDR      r2,[pc,#160] ; [0x1001208] = 0xf8700
        0x01001166:    1889        ..      ADDS     r1,r1,r2
        0x01001168:    8ec9        ..      LDRH     r1,[r1,#0x36]
        0x0100116a:    2201        ."      MOVS     r2,#1
        0x0100116c:    40aa        .@      LSLS     r2,r2,r5
        0x0100116e:    4011        .@      ANDS     r1,r1,r2
        0x01001170:    4288        .B      CMP      r0,r1
        0x01001172:    d11a        ..      BNE      0x10011aa ; GPIO_IRQHandler + 240
        0x01001174:    0060        `.      LSLS     r0,r4,#1
        0x01001176:    4925        %I      LDR      r1,[pc,#148] ; [0x100120c] = 0x20012
        0x01001178:    5a08        .Z      LDRH     r0,[r1,r0]
        0x0100117a:    2101        .!      MOVS     r1,#1
        0x0100117c:    40a9        .@      LSLS     r1,r1,r5
        0x0100117e:    4308        .C      ORRS     r0,r0,r1
        0x01001180:    0061        a.      LSLS     r1,r4,#1
        0x01001182:    4a22        "J      LDR      r2,[pc,#136] ; [0x100120c] = 0x20012
        0x01001184:    5250        PR      STRH     r0,[r2,r1]
        0x01001186:    2c00        .,      CMP      r4,#0
        0x01001188:    d004        ..      BEQ      0x1001194 ; GPIO_IRQHandler + 218
        0x0100118a:    2c01        .,      CMP      r4,#1
        0x0100118c:    d005        ..      BEQ      0x100119a ; GPIO_IRQHandler + 224
        0x0100118e:    2c02        .,      CMP      r4,#2
        0x01001190:    d109        ..      BNE      0x10011a6 ; GPIO_IRQHandler + 236
        0x01001192:    e005        ..      B        0x10011a0 ; GPIO_IRQHandler + 230
        0x01001194:    f7fff88f    ....    BL       EXTI0_IRQHandler ; 0x10002b6
        0x01001198:    e006        ..      B        0x10011a8 ; GPIO_IRQHandler + 238
        0x0100119a:    f7fff88d    ....    BL       EXTI1_IRQHandler ; 0x10002b8
        0x0100119e:    e003        ..      B        0x10011a8 ; GPIO_IRQHandler + 238
        0x010011a0:    f7fff88b    ....    BL       EXTI2_IRQHandler ; 0x10002ba
        0x010011a4:    e000        ..      B        0x10011a8 ; GPIO_IRQHandler + 238
        0x010011a6:    bf00        ..      NOP      
        0x010011a8:    bf00        ..      NOP      
        0x010011aa:    2001        .       MOVS     r0,#1
        0x010011ac:    40a8        .@      LSLS     r0,r0,r5
        0x010011ae:    b281        ..      UXTH     r1,r0
        0x010011b0:    4620         F      MOV      r0,r4
        0x010011b2:    f7fffe51    ..Q.    BL       EXTI_ClearITPendingBit ; 0x1000e58
        0x010011b6:    1c6d        m.      ADDS     r5,r5,#1
        0x010011b8:    2d10        .-      CMP      r5,#0x10
        0x010011ba:    db89        ..      BLT      0x10010d0 ; GPIO_IRQHandler + 22
        0x010011bc:    1c64        d.      ADDS     r4,r4,#1
        0x010011be:    2c03        .,      CMP      r4,#3
        0x010011c0:    db84        ..      BLT      0x10010cc ; GPIO_IRQHandler + 18
        0x010011c2:    200c        .       MOVS     r0,#0xc
        0x010011c4:    4916        .I      LDR      r1,[pc,#88] ; [0x1001220] = 0xe000e180
        0x010011c6:    3980        .9      SUBS     r1,r1,#0x80
        0x010011c8:    6809        .h      LDR      r1,[r1,#0]
        0x010011ca:    2201        ."      MOVS     r2,#1
        0x010011cc:    4082        .@      LSLS     r2,r2,r0
        0x010011ce:    4311        .C      ORRS     r1,r1,r2
        0x010011d0:    4a13        .J      LDR      r2,[pc,#76] ; [0x1001220] = 0xe000e180
        0x010011d2:    3a80        .:      SUBS     r2,r2,#0x80
        0x010011d4:    6011        .`      STR      r1,[r2,#0]
        0x010011d6:    bf00        ..      NOP      
        0x010011d8:    bd70        p.      POP      {r4-r6,pc}
    $d
        0x010011da:    0000        ..      DCW    0
        0x010011dc:    010075f2    .u..    DCD    16807410
        0x010011e0:    2e5c2e2e    ..\.    DCD    777793070
        0x010011e4:    61685c2e    .\ha    DCD    1634229294
        0x010011e8:    61776472    rdwa    DCD    1635214450
        0x010011ec:    4c5c6572    re\L    DCD    1281123698
        0x010011f0:    61726269    ibra    DCD    1634886249
        0x010011f4:    72656972    rier    DCD    1919248754
        0x010011f8:    6b64735c    \sdk    DCD    1801745244
        0x010011fc:    5f63795c    \yc_    DCD    1600354652
        0x01001200:    69747865    exti    DCD    1769240677
        0x01001204:    0000632e    .c..    DCD    25390
        0x01001208:    000f8700    ....    DCD    1017600
        0x0100120c:    00020012    ....    DCD    131090
        0x01001210:    00020000    ....    DCD    131072
        0x01001214:    00020006    ....    DCD    131078
        0x01001218:    0002000c    ....    DCD    131084
        0x0100121c:    01007609    .v..    DCD    16807433
        0x01001220:    e000e180    ....    DCD    3758154112
    $t
    .text
    UART_AutoFlowCtrlCmd
        0x01001224:    b570        p.      PUSH     {r4-r6,lr}
        0x01001226:    4604        .F      MOV      r4,r0
        0x01001228:    460d        .F      MOV      r5,r1
        0x0100122a:    2c00        .,      CMP      r4,#0
        0x0100122c:    d006        ..      BEQ      0x100123c ; UART_AutoFlowCtrlCmd + 24
        0x0100122e:    2c01        .,      CMP      r4,#1
        0x01001230:    d004        ..      BEQ      0x100123c ; UART_AutoFlowCtrlCmd + 24
        0x01001232:    4af3        .J      LDR      r2,[pc,#972] ; [0x1001600] = 0x1007619
        0x01001234:    211c        .!      MOVS     r1,#0x1c
        0x01001236:    a0f3        ..      ADR      r0,{pc}+0x3ce ; 0x1001604
        0x01001238:    f7fffae6    ....    BL       _assert_handler ; 0x1000808
        0x0100123c:    2d01        .-      CMP      r5,#1
        0x0100123e:    d113        ..      BNE      0x1001268 ; UART_AutoFlowCtrlCmd + 68
        0x01001240:    2c00        .,      CMP      r4,#0
        0x01001242:    d002        ..      BEQ      0x100124a ; UART_AutoFlowCtrlCmd + 38
        0x01001244:    2c01        .,      CMP      r4,#1
        0x01001246:    d10e        ..      BNE      0x1001266 ; UART_AutoFlowCtrlCmd + 66
        0x01001248:    e006        ..      B        0x1001258 ; UART_AutoFlowCtrlCmd + 52
        0x0100124a:    48f8        .H      LDR      r0,[pc,#992] ; [0x100162c] = 0xf8b00
        0x0100124c:    69c0        .i      LDR      r0,[r0,#0x1c]
        0x0100124e:    2110        .!      MOVS     r1,#0x10
        0x01001250:    4308        .C      ORRS     r0,r0,r1
        0x01001252:    49f6        .I      LDR      r1,[pc,#984] ; [0x100162c] = 0xf8b00
        0x01001254:    61c8        .a      STR      r0,[r1,#0x1c]
        0x01001256:    e006        ..      B        0x1001266 ; UART_AutoFlowCtrlCmd + 66
        0x01001258:    48f5        .H      LDR      r0,[pc,#980] ; [0x1001630] = 0xf8c00
        0x0100125a:    69c0        .i      LDR      r0,[r0,#0x1c]
        0x0100125c:    2110        .!      MOVS     r1,#0x10
        0x0100125e:    4308        .C      ORRS     r0,r0,r1
        0x01001260:    49f3        .I      LDR      r1,[pc,#972] ; [0x1001630] = 0xf8c00
        0x01001262:    61c8        .a      STR      r0,[r1,#0x1c]
        0x01001264:    bf00        ..      NOP      
        0x01001266:    e013        ..      B        0x1001290 ; UART_AutoFlowCtrlCmd + 108
        0x01001268:    2c00        .,      CMP      r4,#0
        0x0100126a:    d002        ..      BEQ      0x1001272 ; UART_AutoFlowCtrlCmd + 78
        0x0100126c:    2c01        .,      CMP      r4,#1
        0x0100126e:    d10e        ..      BNE      0x100128e ; UART_AutoFlowCtrlCmd + 106
        0x01001270:    e006        ..      B        0x1001280 ; UART_AutoFlowCtrlCmd + 92
        0x01001272:    48ee        .H      LDR      r0,[pc,#952] ; [0x100162c] = 0xf8b00
        0x01001274:    69c0        .i      LDR      r0,[r0,#0x1c]
        0x01001276:    2110        .!      MOVS     r1,#0x10
        0x01001278:    4388        .C      BICS     r0,r0,r1
        0x0100127a:    49ec        .I      LDR      r1,[pc,#944] ; [0x100162c] = 0xf8b00
        0x0100127c:    61c8        .a      STR      r0,[r1,#0x1c]
        0x0100127e:    e006        ..      B        0x100128e ; UART_AutoFlowCtrlCmd + 106
        0x01001280:    48eb        .H      LDR      r0,[pc,#940] ; [0x1001630] = 0xf8c00
        0x01001282:    69c0        .i      LDR      r0,[r0,#0x1c]
        0x01001284:    2110        .!      MOVS     r1,#0x10
        0x01001286:    4388        .C      BICS     r0,r0,r1
        0x01001288:    49e9        .I      LDR      r1,[pc,#932] ; [0x1001630] = 0xf8c00
        0x0100128a:    61c8        .a      STR      r0,[r1,#0x1c]
        0x0100128c:    bf00        ..      NOP      
        0x0100128e:    bf00        ..      NOP      
        0x01001290:    bd70        p.      POP      {r4-r6,pc}
    UART_ITConfig
        0x01001292:    b570        p.      PUSH     {r4-r6,lr}
        0x01001294:    4606        .F      MOV      r6,r0
        0x01001296:    460c        .F      MOV      r4,r1
        0x01001298:    4615        .F      MOV      r5,r2
        0x0100129a:    2e00        ..      CMP      r6,#0
        0x0100129c:    d006        ..      BEQ      0x10012ac ; UART_ITConfig + 26
        0x0100129e:    2e01        ..      CMP      r6,#1
        0x010012a0:    d004        ..      BEQ      0x10012ac ; UART_ITConfig + 26
        0x010012a2:    4ae4        .J      LDR      r2,[pc,#912] ; [0x1001634] = 0x100768c
        0x010012a4:    21f3        .!      MOVS     r1,#0xf3
        0x010012a6:    a0d7        ..      ADR      r0,{pc}+0x35e ; 0x1001604
        0x010012a8:    f7fffaae    ....    BL       _assert_handler ; 0x1000808
        0x010012ac:    2c01        .,      CMP      r4,#1
        0x010012ae:    d006        ..      BEQ      0x10012be ; UART_ITConfig + 44
        0x010012b0:    2c02        .,      CMP      r4,#2
        0x010012b2:    d004        ..      BEQ      0x10012be ; UART_ITConfig + 44
        0x010012b4:    4adf        .J      LDR      r2,[pc,#892] ; [0x1001634] = 0x100768c
        0x010012b6:    21f4        .!      MOVS     r1,#0xf4
        0x010012b8:    a0d2        ..      ADR      r0,{pc}+0x34c ; 0x1001604
        0x010012ba:    f7fffaa5    ....    BL       _assert_handler ; 0x1000808
        0x010012be:    2e00        ..      CMP      r6,#0
        0x010012c0:    d002        ..      BEQ      0x10012c8 ; UART_ITConfig + 54
        0x010012c2:    2e01        ..      CMP      r6,#1
        0x010012c4:    d144        D.      BNE      0x1001350 ; UART_ITConfig + 190
        0x010012c6:    e021        !.      B        0x100130c ; UART_ITConfig + 122
        0x010012c8:    2c02        .,      CMP      r4,#2
        0x010012ca:    d110        ..      BNE      0x10012ee ; UART_ITConfig + 92
        0x010012cc:    2d00        .-      CMP      r5,#0
        0x010012ce:    d006        ..      BEQ      0x10012de ; UART_ITConfig + 76
        0x010012d0:    48d6        .H      LDR      r0,[pc,#856] ; [0x100162c] = 0xf8b00
        0x010012d2:    69c0        .i      LDR      r0,[r0,#0x1c]
        0x010012d4:    01e1        ..      LSLS     r1,r4,#7
        0x010012d6:    4308        .C      ORRS     r0,r0,r1
        0x010012d8:    49d4        .I      LDR      r1,[pc,#848] ; [0x100162c] = 0xf8b00
        0x010012da:    61c8        .a      STR      r0,[r1,#0x1c]
        0x010012dc:    e015        ..      B        0x100130a ; UART_ITConfig + 120
        0x010012de:    48d3        .H      LDR      r0,[pc,#844] ; [0x100162c] = 0xf8b00
        0x010012e0:    69c0        .i      LDR      r0,[r0,#0x1c]
        0x010012e2:    21ff        .!      MOVS     r1,#0xff
        0x010012e4:    0209        ..      LSLS     r1,r1,#8
        0x010012e6:    4388        .C      BICS     r0,r0,r1
        0x010012e8:    49d0        .I      LDR      r1,[pc,#832] ; [0x100162c] = 0xf8b00
        0x010012ea:    61c8        .a      STR      r0,[r1,#0x1c]
        0x010012ec:    e00d        ..      B        0x100130a ; UART_ITConfig + 120
        0x010012ee:    2c01        .,      CMP      r4,#1
        0x010012f0:    d10b        ..      BNE      0x100130a ; UART_ITConfig + 120
        0x010012f2:    48ce        .H      LDR      r0,[pc,#824] ; [0x100162c] = 0xf8b00
        0x010012f4:    69c0        .i      LDR      r0,[r0,#0x1c]
        0x010012f6:    0040        @.      LSLS     r0,r0,#1
        0x010012f8:    0840        @.      LSRS     r0,r0,#1
        0x010012fa:    49cc        .I      LDR      r1,[pc,#816] ; [0x100162c] = 0xf8b00
        0x010012fc:    61c8        .a      STR      r0,[r1,#0x1c]
        0x010012fe:    4608        .F      MOV      r0,r1
        0x01001300:    69c0        .i      LDR      r0,[r0,#0x1c]
        0x01001302:    07e9        ..      LSLS     r1,r5,#31
        0x01001304:    4308        .C      ORRS     r0,r0,r1
        0x01001306:    49c9        .I      LDR      r1,[pc,#804] ; [0x100162c] = 0xf8b00
        0x01001308:    61c8        .a      STR      r0,[r1,#0x1c]
        0x0100130a:    e021        !.      B        0x1001350 ; UART_ITConfig + 190
        0x0100130c:    2c02        .,      CMP      r4,#2
        0x0100130e:    d110        ..      BNE      0x1001332 ; UART_ITConfig + 160
        0x01001310:    2d00        .-      CMP      r5,#0
        0x01001312:    d006        ..      BEQ      0x1001322 ; UART_ITConfig + 144
        0x01001314:    48c6        .H      LDR      r0,[pc,#792] ; [0x1001630] = 0xf8c00
        0x01001316:    69c0        .i      LDR      r0,[r0,#0x1c]
        0x01001318:    01e1        ..      LSLS     r1,r4,#7
        0x0100131a:    4308        .C      ORRS     r0,r0,r1
        0x0100131c:    49c4        .I      LDR      r1,[pc,#784] ; [0x1001630] = 0xf8c00
        0x0100131e:    61c8        .a      STR      r0,[r1,#0x1c]
        0x01001320:    e015        ..      B        0x100134e ; UART_ITConfig + 188
        0x01001322:    48c3        .H      LDR      r0,[pc,#780] ; [0x1001630] = 0xf8c00
        0x01001324:    69c0        .i      LDR      r0,[r0,#0x1c]
        0x01001326:    21ff        .!      MOVS     r1,#0xff
        0x01001328:    0209        ..      LSLS     r1,r1,#8
        0x0100132a:    4388        .C      BICS     r0,r0,r1
        0x0100132c:    49c0        .I      LDR      r1,[pc,#768] ; [0x1001630] = 0xf8c00
        0x0100132e:    61c8        .a      STR      r0,[r1,#0x1c]
        0x01001330:    e00d        ..      B        0x100134e ; UART_ITConfig + 188
        0x01001332:    2c01        .,      CMP      r4,#1
        0x01001334:    d10b        ..      BNE      0x100134e ; UART_ITConfig + 188
        0x01001336:    48be        .H      LDR      r0,[pc,#760] ; [0x1001630] = 0xf8c00
        0x01001338:    69c0        .i      LDR      r0,[r0,#0x1c]
        0x0100133a:    0040        @.      LSLS     r0,r0,#1
        0x0100133c:    0840        @.      LSRS     r0,r0,#1
        0x0100133e:    49bc        .I      LDR      r1,[pc,#752] ; [0x1001630] = 0xf8c00
        0x01001340:    61c8        .a      STR      r0,[r1,#0x1c]
        0x01001342:    4608        .F      MOV      r0,r1
        0x01001344:    69c0        .i      LDR      r0,[r0,#0x1c]
        0x01001346:    07e9        ..      LSLS     r1,r5,#31
        0x01001348:    4308        .C      ORRS     r0,r0,r1
        0x0100134a:    49b9        .I      LDR      r1,[pc,#740] ; [0x1001630] = 0xf8c00
        0x0100134c:    61c8        .a      STR      r0,[r1,#0x1c]
        0x0100134e:    bf00        ..      NOP      
        0x01001350:    bf00        ..      NOP      
        0x01001352:    bd70        p.      POP      {r4-r6,pc}
    UART_GetITIdentity
        0x01001354:    4601        .F      MOV      r1,r0
        0x01001356:    2000        .       MOVS     r0,#0
        0x01001358:    2900        .)      CMP      r1,#0
        0x0100135a:    d002        ..      BEQ      0x1001362 ; UART_GetITIdentity + 14
        0x0100135c:    2901        .)      CMP      r1,#1
        0x0100135e:    d130        0.      BNE      0x10013c2 ; UART_GetITIdentity + 110
        0x01001360:    e017        ..      B        0x1001392 ; UART_GetITIdentity + 62
        0x01001362:    4ab2        .J      LDR      r2,[pc,#712] ; [0x100162c] = 0xf8b00
        0x01001364:    69d2        .i      LDR      r2,[r2,#0x1c]
        0x01001366:    23ff        .#      MOVS     r3,#0xff
        0x01001368:    021b        ..      LSLS     r3,r3,#8
        0x0100136a:    401a        .@      ANDS     r2,r2,r3
        0x0100136c:    2a00        .*      CMP      r2,#0
        0x0100136e:    dd06        ..      BLE      0x100137e ; UART_GetITIdentity + 42
        0x01001370:    4aae        .J      LDR      r2,[pc,#696] ; [0x100162c] = 0xf8b00
        0x01001372:    6a92        .j      LDR      r2,[r2,#0x28]
        0x01001374:    1412        ..      ASRS     r2,r2,#16
        0x01001376:    2a00        .*      CMP      r2,#0
        0x01001378:    dd01        ..      BLE      0x100137e ; UART_GetITIdentity + 42
        0x0100137a:    2002        .       MOVS     r0,#2
        0x0100137c:    e008        ..      B        0x1001390 ; UART_GetITIdentity + 60
        0x0100137e:    4aab        .J      LDR      r2,[pc,#684] ; [0x100162c] = 0xf8b00
        0x01001380:    69d2        .i      LDR      r2,[r2,#0x1c]
        0x01001382:    0fd2        ..      LSRS     r2,r2,#31
        0x01001384:    07d2        ..      LSLS     r2,r2,#31
        0x01001386:    2a00        .*      CMP      r2,#0
        0x01001388:    d001        ..      BEQ      0x100138e ; UART_GetITIdentity + 58
        0x0100138a:    2001        .       MOVS     r0,#1
        0x0100138c:    e000        ..      B        0x1001390 ; UART_GetITIdentity + 60
        0x0100138e:    2000        .       MOVS     r0,#0
        0x01001390:    e017        ..      B        0x10013c2 ; UART_GetITIdentity + 110
        0x01001392:    4aa7        .J      LDR      r2,[pc,#668] ; [0x1001630] = 0xf8c00
        0x01001394:    69d2        .i      LDR      r2,[r2,#0x1c]
        0x01001396:    23ff        .#      MOVS     r3,#0xff
        0x01001398:    021b        ..      LSLS     r3,r3,#8
        0x0100139a:    401a        .@      ANDS     r2,r2,r3
        0x0100139c:    2a00        .*      CMP      r2,#0
        0x0100139e:    dd06        ..      BLE      0x10013ae ; UART_GetITIdentity + 90
        0x010013a0:    4aa3        .J      LDR      r2,[pc,#652] ; [0x1001630] = 0xf8c00
        0x010013a2:    6a92        .j      LDR      r2,[r2,#0x28]
        0x010013a4:    1412        ..      ASRS     r2,r2,#16
        0x010013a6:    2a00        .*      CMP      r2,#0
        0x010013a8:    dd01        ..      BLE      0x10013ae ; UART_GetITIdentity + 90
        0x010013aa:    2002        .       MOVS     r0,#2
        0x010013ac:    e008        ..      B        0x10013c0 ; UART_GetITIdentity + 108
        0x010013ae:    4aa0        .J      LDR      r2,[pc,#640] ; [0x1001630] = 0xf8c00
        0x010013b0:    69d2        .i      LDR      r2,[r2,#0x1c]
        0x010013b2:    0fd2        ..      LSRS     r2,r2,#31
        0x010013b4:    07d2        ..      LSLS     r2,r2,#31
        0x010013b6:    2a00        .*      CMP      r2,#0
        0x010013b8:    d001        ..      BEQ      0x10013be ; UART_GetITIdentity + 106
        0x010013ba:    2001        .       MOVS     r0,#1
        0x010013bc:    e000        ..      B        0x10013c0 ; UART_GetITIdentity + 108
        0x010013be:    2000        .       MOVS     r0,#0
        0x010013c0:    bf00        ..      NOP      
        0x010013c2:    bf00        ..      NOP      
        0x010013c4:    4770        pG      BX       lr
    UART_ClearIT
        0x010013c6:    b570        p.      PUSH     {r4-r6,lr}
        0x010013c8:    4604        .F      MOV      r4,r0
        0x010013ca:    4620         F      MOV      r0,r4
        0x010013cc:    f7ffffc2    ....    BL       UART_GetITIdentity ; 0x1001354
        0x010013d0:    4605        .F      MOV      r5,r0
        0x010013d2:    2200        ."      MOVS     r2,#0
        0x010013d4:    4629        )F      MOV      r1,r5
        0x010013d6:    4620         F      MOV      r0,r4
        0x010013d8:    f7ffff5b    ..[.    BL       UART_ITConfig ; 0x1001292
        0x010013dc:    bd70        p.      POP      {r4-r6,pc}
    UART_DeInit
        0x010013de:    b510        ..      PUSH     {r4,lr}
        0x010013e0:    4604        .F      MOV      r4,r0
        0x010013e2:    2c00        .,      CMP      r4,#0
        0x010013e4:    d006        ..      BEQ      0x10013f4 ; UART_DeInit + 22
        0x010013e6:    2c01        .,      CMP      r4,#1
        0x010013e8:    d004        ..      BEQ      0x10013f4 ; UART_DeInit + 22
        0x010013ea:    4a93        .J      LDR      r2,[pc,#588] ; [0x1001638] = 0x100762e
        0x010013ec:    2141        A!      MOVS     r1,#0x41
        0x010013ee:    a085        ..      ADR      r0,{pc}+0x216 ; 0x1001604
        0x010013f0:    f7fffa0a    ....    BL       _assert_handler ; 0x1000808
        0x010013f4:    2c00        .,      CMP      r4,#0
        0x010013f6:    d002        ..      BEQ      0x10013fe ; UART_DeInit + 32
        0x010013f8:    2c01        .,      CMP      r4,#1
        0x010013fa:    d108        ..      BNE      0x100140e ; UART_DeInit + 48
        0x010013fc:    e003        ..      B        0x1001406 ; UART_DeInit + 40
        0x010013fe:    2000        .       MOVS     r0,#0
        0x01001400:    498a        .I      LDR      r1,[pc,#552] ; [0x100162c] = 0xf8b00
        0x01001402:    61c8        .a      STR      r0,[r1,#0x1c]
        0x01001404:    e003        ..      B        0x100140e ; UART_DeInit + 48
        0x01001406:    2000        .       MOVS     r0,#0
        0x01001408:    4989        .I      LDR      r1,[pc,#548] ; [0x1001630] = 0xf8c00
        0x0100140a:    61c8        .a      STR      r0,[r1,#0x1c]
        0x0100140c:    bf00        ..      NOP      
        0x0100140e:    bf00        ..      NOP      
        0x01001410:    bd10        ..      POP      {r4,pc}
    UART_DMASendBuf
        0x01001412:    b570        p.      PUSH     {r4-r6,lr}
        0x01001414:    4604        .F      MOV      r4,r0
        0x01001416:    460d        .F      MOV      r5,r1
        0x01001418:    4616        .F      MOV      r6,r2
        0x0100141a:    2c00        .,      CMP      r4,#0
        0x0100141c:    d006        ..      BEQ      0x100142c ; UART_DMASendBuf + 26
        0x0100141e:    2c01        .,      CMP      r4,#1
        0x01001420:    d004        ..      BEQ      0x100142c ; UART_DMASendBuf + 26
        0x01001422:    4a86        .J      LDR      r2,[pc,#536] ; [0x100163c] = 0x100763a
        0x01001424:    2150        P!      MOVS     r1,#0x50
        0x01001426:    a077        w.      ADR      r0,{pc}+0x1de ; 0x1001604
        0x01001428:    f7fff9ee    ....    BL       _assert_handler ; 0x1000808
        0x0100142c:    2d00        .-      CMP      r5,#0
        0x0100142e:    d104        ..      BNE      0x100143a ; UART_DMASendBuf + 40
        0x01001430:    4a82        .J      LDR      r2,[pc,#520] ; [0x100163c] = 0x100763a
        0x01001432:    2151        Q!      MOVS     r1,#0x51
        0x01001434:    a073        s.      ADR      r0,{pc}+0x1d0 ; 0x1001604
        0x01001436:    f7fff9e7    ....    BL       _assert_handler ; 0x1000808
        0x0100143a:    4881        .H      LDR      r0,[pc,#516] ; [0x1001640] = 0xffff
        0x0100143c:    4286        .B      CMP      r6,r0
        0x0100143e:    db04        ..      BLT      0x100144a ; UART_DMASendBuf + 56
        0x01001440:    4a7e        ~J      LDR      r2,[pc,#504] ; [0x100163c] = 0x100763a
        0x01001442:    2152        R!      MOVS     r1,#0x52
        0x01001444:    a06f        o.      ADR      r0,{pc}+0x1c0 ; 0x1001604
        0x01001446:    f7fff9df    ....    BL       _assert_handler ; 0x1000808
        0x0100144a:    2c00        .,      CMP      r4,#0
        0x0100144c:    d10a        ..      BNE      0x1001464 ; UART_DMASendBuf + 82
        0x0100144e:    4877        wH      LDR      r0,[pc,#476] ; [0x100162c] = 0xf8b00
        0x01001450:    6005        .`      STR      r5,[r0,#0]
        0x01001452:    6880        .h      LDR      r0,[r0,#8]
        0x01001454:    b280        ..      UXTH     r0,r0
        0x01001456:    0431        1.      LSLS     r1,r6,#16
        0x01001458:    4308        .C      ORRS     r0,r0,r1
        0x0100145a:    4974        tI      LDR      r1,[pc,#464] ; [0x100162c] = 0xf8b00
        0x0100145c:    6088        .`      STR      r0,[r1,#8]
        0x0100145e:    2080        .       MOVS     r0,#0x80
        0x01001460:    73c8        .s      STRB     r0,[r1,#0xf]
        0x01001462:    e00a        ..      B        0x100147a ; UART_DMASendBuf + 104
        0x01001464:    4872        rH      LDR      r0,[pc,#456] ; [0x1001630] = 0xf8c00
        0x01001466:    6005        .`      STR      r5,[r0,#0]
        0x01001468:    6880        .h      LDR      r0,[r0,#8]
        0x0100146a:    b280        ..      UXTH     r0,r0
        0x0100146c:    0431        1.      LSLS     r1,r6,#16
        0x0100146e:    4308        .C      ORRS     r0,r0,r1
        0x01001470:    496f        oI      LDR      r1,[pc,#444] ; [0x1001630] = 0xf8c00
        0x01001472:    6088        .`      STR      r0,[r1,#8]
        0x01001474:    2080        .       MOVS     r0,#0x80
        0x01001476:    496d        mI      LDR      r1,[pc,#436] ; [0x100162c] = 0xf8b00
        0x01001478:    73c8        .s      STRB     r0,[r1,#0xf]
        0x0100147a:    bd70        p.      POP      {r4-r6,pc}
    UART_Init
        0x0100147c:    b5f8        ..      PUSH     {r3-r7,lr}
        0x0100147e:    4605        .F      MOV      r5,r0
        0x01001480:    460c        .F      MOV      r4,r1
        0x01001482:    2600        .&      MOVS     r6,#0
        0x01001484:    2700        .'      MOVS     r7,#0
        0x01001486:    2d00        .-      CMP      r5,#0
        0x01001488:    d006        ..      BEQ      0x1001498 ; UART_Init + 28
        0x0100148a:    2d01        .-      CMP      r5,#1
        0x0100148c:    d004        ..      BEQ      0x1001498 ; UART_Init + 28
        0x0100148e:    4a6d        mJ      LDR      r2,[pc,#436] ; [0x1001644] = 0x100764a
        0x01001490:    219a        .!      MOVS     r1,#0x9a
        0x01001492:    a05c        \.      ADR      r0,{pc}+0x172 ; 0x1001604
        0x01001494:    f7fff9b8    ....    BL       _assert_handler ; 0x1000808
        0x01001498:    7820         x      LDRB     r0,[r4,#0]
        0x0100149a:    2840        @(      CMP      r0,#0x40
        0x0100149c:    d007        ..      BEQ      0x10014ae ; UART_Init + 50
        0x0100149e:    7820         x      LDRB     r0,[r4,#0]
        0x010014a0:    2800        .(      CMP      r0,#0
        0x010014a2:    d004        ..      BEQ      0x10014ae ; UART_Init + 50
        0x010014a4:    4a67        gJ      LDR      r2,[pc,#412] ; [0x1001644] = 0x100764a
        0x010014a6:    219b        .!      MOVS     r1,#0x9b
        0x010014a8:    a056        V.      ADR      r0,{pc}+0x15c ; 0x1001604
        0x010014aa:    f7fff9ad    ....    BL       _assert_handler ; 0x1000808
        0x010014ae:    21b7        .!      MOVS     r1,#0xb7
        0x010014b0:    00c9        ..      LSLS     r1,r1,#3
        0x010014b2:    6860        `h      LDR      r0,[r4,#4]
        0x010014b4:    4288        .B      CMP      r0,r1
        0x010014b6:    d903        ..      BLS      0x10014c0 ; UART_Init + 68
        0x010014b8:    4963        cI      LDR      r1,[pc,#396] ; [0x1001648] = 0x44aa21
        0x010014ba:    6860        `h      LDR      r0,[r4,#4]
        0x010014bc:    4288        .B      CMP      r0,r1
        0x010014be:    d304        ..      BCC      0x10014ca ; UART_Init + 78
        0x010014c0:    4a60        `J      LDR      r2,[pc,#384] ; [0x1001644] = 0x100764a
        0x010014c2:    219c        .!      MOVS     r1,#0x9c
        0x010014c4:    a04f        O.      ADR      r0,{pc}+0x140 ; 0x1001604
        0x010014c6:    f7fff99f    ....    BL       _assert_handler ; 0x1000808
        0x010014ca:    7aa0        .z      LDRB     r0,[r4,#0xa]
        0x010014cc:    2800        .(      CMP      r0,#0
        0x010014ce:    d00a        ..      BEQ      0x10014e6 ; UART_Init + 106
        0x010014d0:    7aa0        .z      LDRB     r0,[r4,#0xa]
        0x010014d2:    2800        .(      CMP      r0,#0
        0x010014d4:    d007        ..      BEQ      0x10014e6 ; UART_Init + 106
        0x010014d6:    7aa0        .z      LDRB     r0,[r4,#0xa]
        0x010014d8:    2802        .(      CMP      r0,#2
        0x010014da:    d004        ..      BEQ      0x10014e6 ; UART_Init + 106
        0x010014dc:    4a59        YJ      LDR      r2,[pc,#356] ; [0x1001644] = 0x100764a
        0x010014de:    219d        .!      MOVS     r1,#0x9d
        0x010014e0:    a048        H.      ADR      r0,{pc}+0x124 ; 0x1001604
        0x010014e2:    f7fff991    ....    BL       _assert_handler ; 0x1000808
        0x010014e6:    7ae0        .z      LDRB     r0,[r4,#0xb]
        0x010014e8:    2800        .(      CMP      r0,#0
        0x010014ea:    d007        ..      BEQ      0x10014fc ; UART_Init + 128
        0x010014ec:    7ae0        .z      LDRB     r0,[r4,#0xb]
        0x010014ee:    2810        .(      CMP      r0,#0x10
        0x010014f0:    d004        ..      BEQ      0x10014fc ; UART_Init + 128
        0x010014f2:    4a54        TJ      LDR      r2,[pc,#336] ; [0x1001644] = 0x100764a
        0x010014f4:    219e        .!      MOVS     r1,#0x9e
        0x010014f6:    a043        C.      ADR      r0,{pc}+0x10e ; 0x1001604
        0x010014f8:    f7fff986    ....    BL       _assert_handler ; 0x1000808
        0x010014fc:    7a60        `z      LDRB     r0,[r4,#9]
        0x010014fe:    2800        .(      CMP      r0,#0
        0x01001500:    d007        ..      BEQ      0x1001512 ; UART_Init + 150
        0x01001502:    7a60        `z      LDRB     r0,[r4,#9]
        0x01001504:    2808        .(      CMP      r0,#8
        0x01001506:    d004        ..      BEQ      0x1001512 ; UART_Init + 150
        0x01001508:    4a4e        NJ      LDR      r2,[pc,#312] ; [0x1001644] = 0x100764a
        0x0100150a:    219f        .!      MOVS     r1,#0x9f
        0x0100150c:    a03d        =.      ADR      r0,{pc}+0xf8 ; 0x1001604
        0x0100150e:    f7fff97b    ..{.    BL       _assert_handler ; 0x1000808
        0x01001512:    484e        NH      LDR      r0,[pc,#312] ; [0x100164c] = 0x2dc6c00
        0x01001514:    6861        ah      LDR      r1,[r4,#4]
        0x01001516:    f005f851    ..Q.    BL       __aeabi_uidiv ; 0x10065bc
        0x0100151a:    0407        ..      LSLS     r7,r0,#16
        0x0100151c:    7aa0        .z      LDRB     r0,[r4,#0xa]
        0x0100151e:    2101        .!      MOVS     r1,#1
        0x01001520:    4308        .C      ORRS     r0,r0,r1
        0x01001522:    7a21        !z      LDRB     r1,[r4,#8]
        0x01001524:    4308        .C      ORRS     r0,r0,r1
        0x01001526:    7a61        az      LDRB     r1,[r4,#9]
        0x01001528:    4308        .C      ORRS     r0,r0,r1
        0x0100152a:    7ae1        .z      LDRB     r1,[r4,#0xb]
        0x0100152c:    4308        .C      ORRS     r0,r0,r1
        0x0100152e:    7821        !x      LDRB     r1,[r4,#0]
        0x01001530:    4308        .C      ORRS     r0,r0,r1
        0x01001532:    2180        .!      MOVS     r1,#0x80
        0x01001534:    4308        .C      ORRS     r0,r0,r1
        0x01001536:    4338        8C      ORRS     r0,r0,r7
        0x01001538:    4606        .F      MOV      r6,r0
        0x0100153a:    2d00        .-      CMP      r5,#0
        0x0100153c:    d11a        ..      BNE      0x1001574 ; UART_Init + 248
        0x0100153e:    2000        .       MOVS     r0,#0
        0x01001540:    493a        :I      LDR      r1,[pc,#232] ; [0x100162c] = 0xf8b00
        0x01001542:    61c8        .a      STR      r0,[r1,#0x1c]
        0x01001544:    4842        BH      LDR      r0,[pc,#264] ; [0x1001650] = 0x2006c
        0x01001546:    6048        H`      STR      r0,[r1,#4]
        0x01001548:    2001        .       MOVS     r0,#1
        0x0100154a:    0280        ..      LSLS     r0,r0,#10
        0x0100154c:    6088        .`      STR      r0,[r1,#8]
        0x0100154e:    2001        .       MOVS     r0,#1
        0x01001550:    7308        .s      STRB     r0,[r1,#0xc]
        0x01001552:    4608        .F      MOV      r0,r1
        0x01001554:    7bc0        .{      LDRB     r0,[r0,#0xf]
        0x01001556:    2120         !      MOVS     r1,#0x20
        0x01001558:    4308        .C      ORRS     r0,r0,r1
        0x0100155a:    4934        4I      LDR      r1,[pc,#208] ; [0x100162c] = 0xf8b00
        0x0100155c:    73c8        .s      STRB     r0,[r1,#0xf]
        0x0100155e:    4608        .F      MOV      r0,r1
        0x01001560:    7bc0        .{      LDRB     r0,[r0,#0xf]
        0x01001562:    2120         !      MOVS     r1,#0x20
        0x01001564:    4388        .C      BICS     r0,r0,r1
        0x01001566:    4931        1I      LDR      r1,[pc,#196] ; [0x100162c] = 0xf8b00
        0x01001568:    73c8        .s      STRB     r0,[r1,#0xf]
        0x0100156a:    2000        .       MOVS     r0,#0
        0x0100156c:    61c8        .a      STR      r0,[r1,#0x1c]
        0x0100156e:    4608        .F      MOV      r0,r1
        0x01001570:    61c6        .a      STR      r6,[r0,#0x1c]
        0x01001572:    e019        ..      B        0x10015a8 ; UART_Init + 300
        0x01001574:    2000        .       MOVS     r0,#0
        0x01001576:    492e        .I      LDR      r1,[pc,#184] ; [0x1001630] = 0xf8c00
        0x01001578:    61c8        .a      STR      r0,[r1,#0x1c]
        0x0100157a:    4836        6H      LDR      r0,[pc,#216] ; [0x1001654] = 0x2046c
        0x0100157c:    6048        H`      STR      r0,[r1,#4]
        0x0100157e:    2001        .       MOVS     r0,#1
        0x01001580:    0280        ..      LSLS     r0,r0,#10
        0x01001582:    6088        .`      STR      r0,[r1,#8]
        0x01001584:    2001        .       MOVS     r0,#1
        0x01001586:    7308        .s      STRB     r0,[r1,#0xc]
        0x01001588:    4608        .F      MOV      r0,r1
        0x0100158a:    7bc0        .{      LDRB     r0,[r0,#0xf]
        0x0100158c:    2120         !      MOVS     r1,#0x20
        0x0100158e:    4308        .C      ORRS     r0,r0,r1
        0x01001590:    4927        'I      LDR      r1,[pc,#156] ; [0x1001630] = 0xf8c00
        0x01001592:    73c8        .s      STRB     r0,[r1,#0xf]
        0x01001594:    4608        .F      MOV      r0,r1
        0x01001596:    7bc0        .{      LDRB     r0,[r0,#0xf]
        0x01001598:    2120         !      MOVS     r1,#0x20
        0x0100159a:    4388        .C      BICS     r0,r0,r1
        0x0100159c:    4924        $I      LDR      r1,[pc,#144] ; [0x1001630] = 0xf8c00
        0x0100159e:    73c8        .s      STRB     r0,[r1,#0xf]
        0x010015a0:    2000        .       MOVS     r0,#0
        0x010015a2:    61c8        .a      STR      r0,[r1,#0x1c]
        0x010015a4:    4608        .F      MOV      r0,r1
        0x010015a6:    61c6        .a      STR      r6,[r0,#0x1c]
        0x010015a8:    bdf8        ..      POP      {r3-r7,pc}
    UART_IsRXFIFOFull
        0x010015aa:    b510        ..      PUSH     {r4,lr}
        0x010015ac:    4604        .F      MOV      r4,r0
        0x010015ae:    2c00        .,      CMP      r4,#0
        0x010015b0:    d006        ..      BEQ      0x10015c0 ; UART_IsRXFIFOFull + 22
        0x010015b2:    2c01        .,      CMP      r4,#1
        0x010015b4:    d004        ..      BEQ      0x10015c0 ; UART_IsRXFIFOFull + 22
        0x010015b6:    4a28        (J      LDR      r2,[pc,#160] ; [0x1001658] = 0x1007654
        0x010015b8:    21c8        .!      MOVS     r1,#0xc8
        0x010015ba:    a012        ..      ADR      r0,{pc}+0x4a ; 0x1001604
        0x010015bc:    f7fff924    ..$.    BL       _assert_handler ; 0x1000808
        0x010015c0:    2c00        .,      CMP      r4,#0
        0x010015c2:    d104        ..      BNE      0x10015ce ; UART_IsRXFIFOFull + 36
        0x010015c4:    4819        .H      LDR      r0,[pc,#100] ; [0x100162c] = 0xf8b00
        0x010015c6:    6a80        .j      LDR      r0,[r0,#0x28]
        0x010015c8:    2102        .!      MOVS     r1,#2
        0x010015ca:    4008        .@      ANDS     r0,r0,r1
        0x010015cc:    bd10        ..      POP      {r4,pc}
        0x010015ce:    4818        .H      LDR      r0,[pc,#96] ; [0x1001630] = 0xf8c00
        0x010015d0:    6a80        .j      LDR      r0,[r0,#0x28]
        0x010015d2:    2102        .!      MOVS     r1,#2
        0x010015d4:    4008        .@      ANDS     r0,r0,r1
        0x010015d6:    e7f9        ..      B        0x10015cc ; UART_IsRXFIFOFull + 34
    UART_IsRXFIFONotEmpty
        0x010015d8:    b510        ..      PUSH     {r4,lr}
        0x010015da:    4604        .F      MOV      r4,r0
        0x010015dc:    2c00        .,      CMP      r4,#0
        0x010015de:    d006        ..      BEQ      0x10015ee ; UART_IsRXFIFONotEmpty + 22
        0x010015e0:    2c01        .,      CMP      r4,#1
        0x010015e2:    d004        ..      BEQ      0x10015ee ; UART_IsRXFIFONotEmpty + 22
        0x010015e4:    4a1d        .J      LDR      r2,[pc,#116] ; [0x100165c] = 0x1007666
        0x010015e6:    21d7        .!      MOVS     r1,#0xd7
        0x010015e8:    a006        ..      ADR      r0,{pc}+0x1c ; 0x1001604
        0x010015ea:    f7fff90d    ....    BL       _assert_handler ; 0x1000808
        0x010015ee:    2c00        .,      CMP      r4,#0
        0x010015f0:    d138        8.      BNE      0x1001664 ; UART_IsRXFIFONotEmpty + 140
        0x010015f2:    480e        .H      LDR      r0,[pc,#56] ; [0x100162c] = 0xf8b00
        0x010015f4:    6a80        .j      LDR      r0,[r0,#0x28]
        0x010015f6:    1400        ..      ASRS     r0,r0,#16
        0x010015f8:    2800        .(      CMP      r0,#0
        0x010015fa:    d031        1.      BEQ      0x1001660 ; UART_IsRXFIFONotEmpty + 136
        0x010015fc:    2001        .       MOVS     r0,#1
        0x010015fe:    bd10        ..      POP      {r4,pc}
    $d
        0x01001600:    01007619    .v..    DCD    16807449
        0x01001604:    2e5c2e2e    ..\.    DCD    777793070
        0x01001608:    61685c2e    .\ha    DCD    1634229294
        0x0100160c:    61776472    rdwa    DCD    1635214450
        0x01001610:    4c5c6572    re\L    DCD    1281123698
        0x01001614:    61726269    ibra    DCD    1634886249
        0x01001618:    72656972    rier    DCD    1919248754
        0x0100161c:    6b64735c    \sdk    DCD    1801745244
        0x01001620:    5f63795c    \yc_    DCD    1600354652
        0x01001624:    74726175    uart    DCD    1953653109
        0x01001628:    0000632e    .c..    DCD    25390
        0x0100162c:    000f8b00    ....    DCD    1018624
        0x01001630:    000f8c00    ....    DCD    1018880
        0x01001634:    0100768c    .v..    DCD    16807564
        0x01001638:    0100762e    .v..    DCD    16807470
        0x0100163c:    0100763a    :v..    DCD    16807482
        0x01001640:    0000ffff    ....    DCD    65535
        0x01001644:    0100764a    Jv..    DCD    16807498
        0x01001648:    0044aa21    !.D.    DCD    4500001
        0x0100164c:    02dc6c00    .l..    DCD    48000000
        0x01001650:    0002006c    l...    DCD    131180
        0x01001654:    0002046c    l...    DCD    132204
        0x01001658:    01007654    Tv..    DCD    16807508
        0x0100165c:    01007666    fv..    DCD    16807526
    $t
        0x01001660:    2000        .       MOVS     r0,#0
        0x01001662:    bd10        ..      POP      {r4,pc}
        0x01001664:    4899        .H      LDR      r0,[pc,#612] ; [0x10018cc] = 0xf8c00
        0x01001666:    6a80        .j      LDR      r0,[r0,#0x28]
        0x01001668:    1400        ..      ASRS     r0,r0,#16
        0x0100166a:    2800        .(      CMP      r0,#0
        0x0100166c:    d001        ..      BEQ      0x1001672 ; UART_IsRXFIFONotEmpty + 154
        0x0100166e:    2001        .       MOVS     r0,#1
        0x01001670:    e7f7        ..      B        0x1001662 ; UART_IsRXFIFONotEmpty + 138
        0x01001672:    2000        .       MOVS     r0,#0
        0x01001674:    e7f5        ..      B        0x1001662 ; UART_IsRXFIFONotEmpty + 138
    UART_IsUARTBusy
        0x01001676:    b510        ..      PUSH     {r4,lr}
        0x01001678:    4604        .F      MOV      r4,r0
        0x0100167a:    2c00        .,      CMP      r4,#0
        0x0100167c:    d006        ..      BEQ      0x100168c ; UART_IsUARTBusy + 22
        0x0100167e:    2c01        .,      CMP      r4,#1
        0x01001680:    d004        ..      BEQ      0x100168c ; UART_IsUARTBusy + 22
        0x01001682:    4a93        .J      LDR      r2,[pc,#588] ; [0x10018d0] = 0x100767c
        0x01001684:    21e5        .!      MOVS     r1,#0xe5
        0x01001686:    4893        .H      LDR      r0,[pc,#588] ; [0x10018d4] = 0x1001604
        0x01001688:    f7fff8be    ....    BL       _assert_handler ; 0x1000808
        0x0100168c:    2c00        .,      CMP      r4,#0
        0x0100168e:    d106        ..      BNE      0x100169e ; UART_IsUARTBusy + 40
        0x01001690:    4891        .H      LDR      r0,[pc,#580] ; [0x10018d8] = 0xf8b00
        0x01001692:    6900        .i      LDR      r0,[r0,#0x10]
        0x01001694:    07c0        ..      LSLS     r0,r0,#31
        0x01001696:    0fc0        ..      LSRS     r0,r0,#31
        0x01001698:    2101        .!      MOVS     r1,#1
        0x0100169a:    4048        H@      EORS     r0,r0,r1
        0x0100169c:    bd10        ..      POP      {r4,pc}
        0x0100169e:    488b        .H      LDR      r0,[pc,#556] ; [0x10018cc] = 0xf8c00
        0x010016a0:    6900        .i      LDR      r0,[r0,#0x10]
        0x010016a2:    07c0        ..      LSLS     r0,r0,#31
        0x010016a4:    0fc0        ..      LSRS     r0,r0,#31
        0x010016a6:    2101        .!      MOVS     r1,#1
        0x010016a8:    4048        H@      EORS     r0,r0,r1
        0x010016aa:    e7f7        ..      B        0x100169c ; UART_IsUARTBusy + 38
    UART_ReceiveData
        0x010016ac:    b510        ..      PUSH     {r4,lr}
        0x010016ae:    4604        .F      MOV      r4,r0
        0x010016b0:    2c00        .,      CMP      r4,#0
        0x010016b2:    d007        ..      BEQ      0x10016c4 ; UART_ReceiveData + 24
        0x010016b4:    2c01        .,      CMP      r4,#1
        0x010016b6:    d005        ..      BEQ      0x10016c4 ; UART_ReceiveData + 24
        0x010016b8:    4a88        .J      LDR      r2,[pc,#544] ; [0x10018dc] = 0x100769a
        0x010016ba:    21ff        .!      MOVS     r1,#0xff
        0x010016bc:    3128        (1      ADDS     r1,r1,#0x28
        0x010016be:    4885        .H      LDR      r0,[pc,#532] ; [0x10018d4] = 0x1001604
        0x010016c0:    f7fff8a2    ....    BL       _assert_handler ; 0x1000808
        0x010016c4:    2c00        .,      CMP      r4,#0
        0x010016c6:    d103        ..      BNE      0x10016d0 ; UART_ReceiveData + 36
        0x010016c8:    4883        .H      LDR      r0,[pc,#524] ; [0x10018d8] = 0xf8b00
        0x010016ca:    3020         0      ADDS     r0,r0,#0x20
        0x010016cc:    7900        .y      LDRB     r0,[r0,#4]
        0x010016ce:    bd10        ..      POP      {r4,pc}
        0x010016d0:    487e        ~H      LDR      r0,[pc,#504] ; [0x10018cc] = 0xf8c00
        0x010016d2:    3020         0      ADDS     r0,r0,#0x20
        0x010016d4:    7900        .y      LDRB     r0,[r0,#4]
        0x010016d6:    e7fa        ..      B        0x10016ce ; UART_ReceiveData + 34
    UART_RecvBuf
        0x010016d8:    b5fe        ..      PUSH     {r1-r7,lr}
        0x010016da:    4604        .F      MOV      r4,r0
        0x010016dc:    460d        .F      MOV      r5,r1
        0x010016de:    4617        .F      MOV      r7,r2
        0x010016e0:    2600        .&      MOVS     r6,#0
        0x010016e2:    2000        .       MOVS     r0,#0
        0x010016e4:    9001        ..      STR      r0,[sp,#4]
        0x010016e6:    9000        ..      STR      r0,[sp,#0]
        0x010016e8:    2c00        .,      CMP      r4,#0
        0x010016ea:    d007        ..      BEQ      0x10016fc ; UART_RecvBuf + 36
        0x010016ec:    2c01        .,      CMP      r4,#1
        0x010016ee:    d005        ..      BEQ      0x10016fc ; UART_RecvBuf + 36
        0x010016f0:    4a7b        {J      LDR      r2,[pc,#492] ; [0x10018e0] = 0x10076ab
        0x010016f2:    21ff        .!      MOVS     r1,#0xff
        0x010016f4:    3139        91      ADDS     r1,r1,#0x39
        0x010016f6:    4877        wH      LDR      r0,[pc,#476] ; [0x10018d4] = 0x1001604
        0x010016f8:    f7fff886    ....    BL       _assert_handler ; 0x1000808
        0x010016fc:    2d00        .-      CMP      r5,#0
        0x010016fe:    d105        ..      BNE      0x100170c ; UART_RecvBuf + 52
        0x01001700:    4a77        wJ      LDR      r2,[pc,#476] ; [0x10018e0] = 0x10076ab
        0x01001702:    21ff        .!      MOVS     r1,#0xff
        0x01001704:    313a        :1      ADDS     r1,r1,#0x3a
        0x01001706:    4873        sH      LDR      r0,[pc,#460] ; [0x10018d4] = 0x1001604
        0x01001708:    f7fff87e    ..~.    BL       _assert_handler ; 0x1000808
        0x0100170c:    2c00        .,      CMP      r4,#0
        0x0100170e:    d105        ..      BNE      0x100171c ; UART_RecvBuf + 68
        0x01001710:    4871        qH      LDR      r0,[pc,#452] ; [0x10018d8] = 0xf8b00
        0x01001712:    3028        (0      ADDS     r0,r0,#0x28
        0x01001714:    9001        ..      STR      r0,[sp,#4]
        0x01001716:    1f00        ..      SUBS     r0,r0,#4
        0x01001718:    9000        ..      STR      r0,[sp,#0]
        0x0100171a:    e004        ..      B        0x1001726 ; UART_RecvBuf + 78
        0x0100171c:    486b        kH      LDR      r0,[pc,#428] ; [0x10018cc] = 0xf8c00
        0x0100171e:    3028        (0      ADDS     r0,r0,#0x28
        0x01001720:    9001        ..      STR      r0,[sp,#4]
        0x01001722:    1f00        ..      SUBS     r0,r0,#4
        0x01001724:    9000        ..      STR      r0,[sp,#0]
        0x01001726:    e008        ..      B        0x100173a ; UART_RecvBuf + 98
        0x01001728:    42be        .B      CMP      r6,r7
        0x0100172a:    d205        ..      BCS      0x1001738 ; UART_RecvBuf + 96
        0x0100172c:    9800        ..      LDR      r0,[sp,#0]
        0x0100172e:    7802        .x      LDRB     r2,[r0,#0]
        0x01001730:    4630        0F      MOV      r0,r6
        0x01001732:    1c76        v.      ADDS     r6,r6,#1
        0x01001734:    542a        *T      STRB     r2,[r5,r0]
        0x01001736:    e000        ..      B        0x100173a ; UART_RecvBuf + 98
        0x01001738:    e004        ..      B        0x1001744 ; UART_RecvBuf + 108
        0x0100173a:    9801        ..      LDR      r0,[sp,#4]
        0x0100173c:    6800        .h      LDR      r0,[r0,#0]
        0x0100173e:    1400        ..      ASRS     r0,r0,#16
        0x01001740:    2800        .(      CMP      r0,#0
        0x01001742:    dcf1        ..      BGT      0x1001728 ; UART_RecvBuf + 80
        0x01001744:    bf00        ..      NOP      
        0x01001746:    4630        0F      MOV      r0,r6
        0x01001748:    bdfe        ..      POP      {r1-r7,pc}
    UART_SendBuf
        0x0100174a:    b570        p.      PUSH     {r4-r6,lr}
        0x0100174c:    4604        .F      MOV      r4,r0
        0x0100174e:    460d        .F      MOV      r5,r1
        0x01001750:    4616        .F      MOV      r6,r2
        0x01001752:    2c00        .,      CMP      r4,#0
        0x01001754:    d007        ..      BEQ      0x1001766 ; UART_SendBuf + 28
        0x01001756:    2c01        .,      CMP      r4,#1
        0x01001758:    d005        ..      BEQ      0x1001766 ; UART_SendBuf + 28
        0x0100175a:    4a62        bJ      LDR      r2,[pc,#392] ; [0x10018e4] = 0x10076b8
        0x0100175c:    21ff        .!      MOVS     r1,#0xff
        0x0100175e:    3159        Y1      ADDS     r1,r1,#0x59
        0x01001760:    485c        \H      LDR      r0,[pc,#368] ; [0x10018d4] = 0x1001604
        0x01001762:    f7fff851    ..Q.    BL       _assert_handler ; 0x1000808
        0x01001766:    2d00        .-      CMP      r5,#0
        0x01001768:    d105        ..      BNE      0x1001776 ; UART_SendBuf + 44
        0x0100176a:    4a5e        ^J      LDR      r2,[pc,#376] ; [0x10018e4] = 0x10076b8
        0x0100176c:    21ff        .!      MOVS     r1,#0xff
        0x0100176e:    315a        Z1      ADDS     r1,r1,#0x5a
        0x01001770:    4858        XH      LDR      r0,[pc,#352] ; [0x10018d4] = 0x1001604
        0x01001772:    f7fff849    ..I.    BL       _assert_handler ; 0x1000808
        0x01001776:    485c        \H      LDR      r0,[pc,#368] ; [0x10018e8] = 0xffff
        0x01001778:    4286        .B      CMP      r6,r0
        0x0100177a:    db05        ..      BLT      0x1001788 ; UART_SendBuf + 62
        0x0100177c:    4a59        YJ      LDR      r2,[pc,#356] ; [0x10018e4] = 0x10076b8
        0x0100177e:    21ff        .!      MOVS     r1,#0xff
        0x01001780:    315b        [1      ADDS     r1,r1,#0x5b
        0x01001782:    4854        TH      LDR      r0,[pc,#336] ; [0x10018d4] = 0x1001604
        0x01001784:    f7fff840    ..@.    BL       _assert_handler ; 0x1000808
        0x01001788:    2c00        .,      CMP      r4,#0
        0x0100178a:    d111        ..      BNE      0x10017b0 ; UART_SendBuf + 102
        0x0100178c:    4852        RH      LDR      r0,[pc,#328] ; [0x10018d8] = 0xf8b00
        0x0100178e:    6005        .`      STR      r5,[r0,#0]
        0x01001790:    6880        .h      LDR      r0,[r0,#8]
        0x01001792:    b280        ..      UXTH     r0,r0
        0x01001794:    0431        1.      LSLS     r1,r6,#16
        0x01001796:    4308        .C      ORRS     r0,r0,r1
        0x01001798:    494f        OI      LDR      r1,[pc,#316] ; [0x10018d8] = 0xf8b00
        0x0100179a:    6088        .`      STR      r0,[r1,#8]
        0x0100179c:    2080        .       MOVS     r0,#0x80
        0x0100179e:    73c8        .s      STRB     r0,[r1,#0xf]
        0x010017a0:    bf00        ..      NOP      
        0x010017a2:    484d        MH      LDR      r0,[pc,#308] ; [0x10018d8] = 0xf8b00
        0x010017a4:    6900        .i      LDR      r0,[r0,#0x10]
        0x010017a6:    07c0        ..      LSLS     r0,r0,#31
        0x010017a8:    0fc0        ..      LSRS     r0,r0,#31
        0x010017aa:    2800        .(      CMP      r0,#0
        0x010017ac:    d0f9        ..      BEQ      0x10017a2 ; UART_SendBuf + 88
        0x010017ae:    e010        ..      B        0x10017d2 ; UART_SendBuf + 136
        0x010017b0:    4846        FH      LDR      r0,[pc,#280] ; [0x10018cc] = 0xf8c00
        0x010017b2:    6005        .`      STR      r5,[r0,#0]
        0x010017b4:    6880        .h      LDR      r0,[r0,#8]
        0x010017b6:    b280        ..      UXTH     r0,r0
        0x010017b8:    0431        1.      LSLS     r1,r6,#16
        0x010017ba:    4308        .C      ORRS     r0,r0,r1
        0x010017bc:    4943        CI      LDR      r1,[pc,#268] ; [0x10018cc] = 0xf8c00
        0x010017be:    6088        .`      STR      r0,[r1,#8]
        0x010017c0:    2080        .       MOVS     r0,#0x80
        0x010017c2:    73c8        .s      STRB     r0,[r1,#0xf]
        0x010017c4:    bf00        ..      NOP      
        0x010017c6:    4841        AH      LDR      r0,[pc,#260] ; [0x10018cc] = 0xf8c00
        0x010017c8:    6900        .i      LDR      r0,[r0,#0x10]
        0x010017ca:    07c0        ..      LSLS     r0,r0,#31
        0x010017cc:    0fc0        ..      LSRS     r0,r0,#31
        0x010017ce:    2800        .(      CMP      r0,#0
        0x010017d0:    d0f9        ..      BEQ      0x10017c6 ; UART_SendBuf + 124
        0x010017d2:    bd70        p.      POP      {r4-r6,pc}
    UART_SendData
        0x010017d4:    b508        ..      PUSH     {r3,lr}
        0x010017d6:    9100        ..      STR      r1,[sp,#0]
        0x010017d8:    2800        .(      CMP      r0,#0
        0x010017da:    d114        ..      BNE      0x1001806 ; UART_SendData + 50
        0x010017dc:    466a        jF      MOV      r2,sp
        0x010017de:    4b3e        >K      LDR      r3,[pc,#248] ; [0x10018d8] = 0xf8b00
        0x010017e0:    601a        .`      STR      r2,[r3,#0]
        0x010017e2:    461a        .F      MOV      r2,r3
        0x010017e4:    6892        .h      LDR      r2,[r2,#8]
        0x010017e6:    b292        ..      UXTH     r2,r2
        0x010017e8:    2301        .#      MOVS     r3,#1
        0x010017ea:    041b        ..      LSLS     r3,r3,#16
        0x010017ec:    18d2        ..      ADDS     r2,r2,r3
        0x010017ee:    4b3a        :K      LDR      r3,[pc,#232] ; [0x10018d8] = 0xf8b00
        0x010017f0:    609a        .`      STR      r2,[r3,#8]
        0x010017f2:    2280        ."      MOVS     r2,#0x80
        0x010017f4:    73da        .s      STRB     r2,[r3,#0xf]
        0x010017f6:    bf00        ..      NOP      
        0x010017f8:    4a37        7J      LDR      r2,[pc,#220] ; [0x10018d8] = 0xf8b00
        0x010017fa:    6912        .i      LDR      r2,[r2,#0x10]
        0x010017fc:    07d2        ..      LSLS     r2,r2,#31
        0x010017fe:    0fd2        ..      LSRS     r2,r2,#31
        0x01001800:    2a00        .*      CMP      r2,#0
        0x01001802:    d0f9        ..      BEQ      0x10017f8 ; UART_SendData + 36
        0x01001804:    e013        ..      B        0x100182e ; UART_SendData + 90
        0x01001806:    466a        jF      MOV      r2,sp
        0x01001808:    4b30        0K      LDR      r3,[pc,#192] ; [0x10018cc] = 0xf8c00
        0x0100180a:    601a        .`      STR      r2,[r3,#0]
        0x0100180c:    461a        .F      MOV      r2,r3
        0x0100180e:    6892        .h      LDR      r2,[r2,#8]
        0x01001810:    b292        ..      UXTH     r2,r2
        0x01001812:    2301        .#      MOVS     r3,#1
        0x01001814:    041b        ..      LSLS     r3,r3,#16
        0x01001816:    18d2        ..      ADDS     r2,r2,r3
        0x01001818:    4b2c        ,K      LDR      r3,[pc,#176] ; [0x10018cc] = 0xf8c00
        0x0100181a:    609a        .`      STR      r2,[r3,#8]
        0x0100181c:    2280        ."      MOVS     r2,#0x80
        0x0100181e:    73da        .s      STRB     r2,[r3,#0xf]
        0x01001820:    bf00        ..      NOP      
        0x01001822:    4a2a        *J      LDR      r2,[pc,#168] ; [0x10018cc] = 0xf8c00
        0x01001824:    6912        .i      LDR      r2,[r2,#0x10]
        0x01001826:    07d2        ..      LSLS     r2,r2,#31
        0x01001828:    0fd2        ..      LSRS     r2,r2,#31
        0x0100182a:    2a00        .*      CMP      r2,#0
        0x0100182c:    d0f9        ..      BEQ      0x1001822 ; UART_SendData + 78
        0x0100182e:    bd08        ..      POP      {r3,pc}
    UART_SetITTimeout
        0x01001830:    2800        .(      CMP      r0,#0
        0x01001832:    d102        ..      BNE      0x100183a ; UART_SetITTimeout + 10
        0x01001834:    4a28        (J      LDR      r2,[pc,#160] ; [0x10018d8] = 0xf8b00
        0x01001836:    6211        .b      STR      r1,[r2,#0x20]
        0x01001838:    e001        ..      B        0x100183e ; UART_SetITTimeout + 14
        0x0100183a:    4a24        $J      LDR      r2,[pc,#144] ; [0x10018cc] = 0xf8c00
        0x0100183c:    6211        .b      STR      r1,[r2,#0x20]
        0x0100183e:    4770        pG      BX       lr
    UART_SetRxITNum
        0x01001840:    b570        p.      PUSH     {r4-r6,lr}
        0x01001842:    4604        .F      MOV      r4,r0
        0x01001844:    460d        .F      MOV      r5,r1
        0x01001846:    2c00        .,      CMP      r4,#0
        0x01001848:    d007        ..      BEQ      0x100185a ; UART_SetRxITNum + 26
        0x0100184a:    2c01        .,      CMP      r4,#1
        0x0100184c:    d005        ..      BEQ      0x100185a ; UART_SetRxITNum + 26
        0x0100184e:    4a27        'J      LDR      r2,[pc,#156] ; [0x10018ec] = 0x10076c5
        0x01001850:    21ff        .!      MOVS     r1,#0xff
        0x01001852:    318f        .1      ADDS     r1,r1,#0x8f
        0x01001854:    481f        .H      LDR      r0,[pc,#124] ; [0x10018d4] = 0x1001604
        0x01001856:    f7feffd7    ....    BL       _assert_handler ; 0x1000808
        0x0100185a:    2c00        .,      CMP      r4,#0
        0x0100185c:    d10a        ..      BNE      0x1001874 ; UART_SetRxITNum + 52
        0x0100185e:    481e        .H      LDR      r0,[pc,#120] ; [0x10018d8] = 0xf8b00
        0x01001860:    69c0        .i      LDR      r0,[r0,#0x1c]
        0x01001862:    21ff        .!      MOVS     r1,#0xff
        0x01001864:    0209        ..      LSLS     r1,r1,#8
        0x01001866:    4388        .C      BICS     r0,r0,r1
        0x01001868:    0629        ).      LSLS     r1,r5,#24
        0x0100186a:    0c09        ..      LSRS     r1,r1,#16
        0x0100186c:    4308        .C      ORRS     r0,r0,r1
        0x0100186e:    491a        .I      LDR      r1,[pc,#104] ; [0x10018d8] = 0xf8b00
        0x01001870:    61c8        .a      STR      r0,[r1,#0x1c]
        0x01001872:    e009        ..      B        0x1001888 ; UART_SetRxITNum + 72
        0x01001874:    4815        .H      LDR      r0,[pc,#84] ; [0x10018cc] = 0xf8c00
        0x01001876:    69c0        .i      LDR      r0,[r0,#0x1c]
        0x01001878:    21ff        .!      MOVS     r1,#0xff
        0x0100187a:    0209        ..      LSLS     r1,r1,#8
        0x0100187c:    4388        .C      BICS     r0,r0,r1
        0x0100187e:    0629        ).      LSLS     r1,r5,#24
        0x01001880:    0c09        ..      LSRS     r1,r1,#16
        0x01001882:    4308        .C      ORRS     r0,r0,r1
        0x01001884:    4911        .I      LDR      r1,[pc,#68] ; [0x10018cc] = 0xf8c00
        0x01001886:    61c8        .a      STR      r0,[r1,#0x1c]
        0x01001888:    bd70        p.      POP      {r4-r6,pc}
    UART_StructInit
        0x0100188a:    214b        K!      MOVS     r1,#0x4b
        0x0100188c:    01c9        ..      LSLS     r1,r1,#7
        0x0100188e:    6041        A`      STR      r1,[r0,#4]
        0x01001890:    2100        .!      MOVS     r1,#0
        0x01001892:    7201        .r      STRB     r1,[r0,#8]
        0x01001894:    72c1        .r      STRB     r1,[r0,#0xb]
        0x01001896:    7001        .p      STRB     r1,[r0,#0]
        0x01001898:    7241        Ar      STRB     r1,[r0,#9]
        0x0100189a:    7281        .r      STRB     r1,[r0,#0xa]
        0x0100189c:    4770        pG      BX       lr
    UART_ReceiveDataLen
        0x0100189e:    b510        ..      PUSH     {r4,lr}
        0x010018a0:    4604        .F      MOV      r4,r0
        0x010018a2:    2c00        .,      CMP      r4,#0
        0x010018a4:    d007        ..      BEQ      0x10018b6 ; UART_ReceiveDataLen + 24
        0x010018a6:    2c01        .,      CMP      r4,#1
        0x010018a8:    d005        ..      BEQ      0x10018b6 ; UART_ReceiveDataLen + 24
        0x010018aa:    4a11        .J      LDR      r2,[pc,#68] ; [0x10018f0] = 0x10076d5
        0x010018ac:    21ff        .!      MOVS     r1,#0xff
        0x010018ae:    31a8        .1      ADDS     r1,r1,#0xa8
        0x010018b0:    4808        .H      LDR      r0,[pc,#32] ; [0x10018d4] = 0x1001604
        0x010018b2:    f7feffa9    ....    BL       _assert_handler ; 0x1000808
        0x010018b6:    2c00        .,      CMP      r4,#0
        0x010018b8:    d103        ..      BNE      0x10018c2 ; UART_ReceiveDataLen + 36
        0x010018ba:    4807        .H      LDR      r0,[pc,#28] ; [0x10018d8] = 0xf8b00
        0x010018bc:    6a80        .j      LDR      r0,[r0,#0x28]
        0x010018be:    0c00        ..      LSRS     r0,r0,#16
        0x010018c0:    bd10        ..      POP      {r4,pc}
        0x010018c2:    4802        .H      LDR      r0,[pc,#8] ; [0x10018cc] = 0xf8c00
        0x010018c4:    6a80        .j      LDR      r0,[r0,#0x28]
        0x010018c6:    0c00        ..      LSRS     r0,r0,#16
        0x010018c8:    e7fa        ..      B        0x10018c0 ; UART_ReceiveDataLen + 34
    $d
        0x010018ca:    0000        ..      DCW    0
        0x010018cc:    000f8c00    ....    DCD    1018880
        0x010018d0:    0100767c    |v..    DCD    16807548
        0x010018d4:    01001604    ....    DCD    16782852
        0x010018d8:    000f8b00    ....    DCD    1018624
        0x010018dc:    0100769a    .v..    DCD    16807578
        0x010018e0:    010076ab    .v..    DCD    16807595
        0x010018e4:    010076b8    .v..    DCD    16807608
        0x010018e8:    0000ffff    ....    DCD    65535
        0x010018ec:    010076c5    .v..    DCD    16807621
        0x010018f0:    010076d5    .v..    DCD    16807637
    $t
    .text
    sysTick_delay_ms
        0x010018f4:    b570        p.      PUSH     {r4-r6,lr}
        0x010018f6:    4604        .F      MOV      r4,r0
        0x010018f8:    20ff        .       MOVS     r0,#0xff
        0x010018fa:    305e        ^0      ADDS     r0,r0,#0x5e
        0x010018fc:    4284        .B      CMP      r4,r0
        0x010018fe:    d904        ..      BLS      0x100190a ; sysTick_delay_ms + 22
        0x01001900:    4a81        .J      LDR      r2,[pc,#516] ; [0x1001b08] = 0x10076e9
        0x01001902:    2112        .!      MOVS     r1,#0x12
        0x01001904:    a081        ..      ADR      r0,{pc}+0x208 ; 0x1001b0c
        0x01001906:    f7feff7f    ....    BL       _assert_handler ; 0x1000808
        0x0100190a:    488b        .H      LDR      r0,[pc,#556] ; [0x1001b38] = 0xf8540
        0x0100190c:    6a00        .j      LDR      r0,[r0,#0x20]
        0x0100190e:    0700        ..      LSLS     r0,r0,#28
        0x01001910:    0f00        ..      LSRS     r0,r0,#28
        0x01001912:    1c81        ..      ADDS     r1,r0,#2
        0x01001914:    4889        .H      LDR      r0,[pc,#548] ; [0x1001b3c] = 0xb71b000
        0x01001916:    f004fe67    ..g.    BL       __aeabi_idiv ; 0x10065e8
        0x0100191a:    4606        .F      MOV      r6,r0
        0x0100191c:    217d        }!      MOVS     r1,#0x7d
        0x0100191e:    00c9        ..      LSLS     r1,r1,#3
        0x01001920:    f004fe62    ..b.    BL       __aeabi_idiv ; 0x10065e8
        0x01001924:    4360        `C      MULS     r0,r4,r0
        0x01001926:    4605        .F      MOV      r5,r0
        0x01001928:    1e6d        m.      SUBS     r5,r5,#1
        0x0100192a:    4885        .H      LDR      r0,[pc,#532] ; [0x1001b40] = 0xe000e000
        0x0100192c:    6145        Ea      STR      r5,[r0,#0x14]
        0x0100192e:    2000        .       MOVS     r0,#0
        0x01001930:    4983        .I      LDR      r1,[pc,#524] ; [0x1001b40] = 0xe000e000
        0x01001932:    6188        .a      STR      r0,[r1,#0x18]
        0x01001934:    4608        .F      MOV      r0,r1
        0x01001936:    6900        .i      LDR      r0,[r0,#0x10]
        0x01001938:    2102        .!      MOVS     r1,#2
        0x0100193a:    4388        .C      BICS     r0,r0,r1
        0x0100193c:    4980        .I      LDR      r1,[pc,#512] ; [0x1001b40] = 0xe000e000
        0x0100193e:    6108        .a      STR      r0,[r1,#0x10]
        0x01001940:    4608        .F      MOV      r0,r1
        0x01001942:    6900        .i      LDR      r0,[r0,#0x10]
        0x01001944:    2105        .!      MOVS     r1,#5
        0x01001946:    4308        .C      ORRS     r0,r0,r1
        0x01001948:    497d        }I      LDR      r1,[pc,#500] ; [0x1001b40] = 0xe000e000
        0x0100194a:    6108        .a      STR      r0,[r1,#0x10]
        0x0100194c:    bf00        ..      NOP      
        0x0100194e:    487c        |H      LDR      r0,[pc,#496] ; [0x1001b40] = 0xe000e000
        0x01001950:    6900        .i      LDR      r0,[r0,#0x10]
        0x01001952:    0c00        ..      LSRS     r0,r0,#16
        0x01001954:    2800        .(      CMP      r0,#0
        0x01001956:    d101        ..      BNE      0x100195c ; sysTick_delay_ms + 104
        0x01001958:    2001        .       MOVS     r0,#1
        0x0100195a:    e000        ..      B        0x100195e ; sysTick_delay_ms + 106
        0x0100195c:    2000        .       MOVS     r0,#0
        0x0100195e:    07c0        ..      LSLS     r0,r0,#31
        0x01001960:    0fc0        ..      LSRS     r0,r0,#31
        0x01001962:    2800        .(      CMP      r0,#0
        0x01001964:    d1f3        ..      BNE      0x100194e ; sysTick_delay_ms + 90
        0x01001966:    4876        vH      LDR      r0,[pc,#472] ; [0x1001b40] = 0xe000e000
        0x01001968:    6900        .i      LDR      r0,[r0,#0x10]
        0x0100196a:    4975        uI      LDR      r1,[pc,#468] ; [0x1001b40] = 0xe000e000
        0x0100196c:    6108        .a      STR      r0,[r1,#0x10]
        0x0100196e:    bd70        p.      POP      {r4-r6,pc}
    SysTick_Delay_Ms
        0x01001970:    b570        p.      PUSH     {r4-r6,lr}
        0x01001972:    4606        .F      MOV      r6,r0
        0x01001974:    21ff        .!      MOVS     r1,#0xff
        0x01001976:    312d        -1      ADDS     r1,r1,#0x2d
        0x01001978:    4630        0F      MOV      r0,r6
        0x0100197a:    f004fe1f    ....    BL       __aeabi_uidiv ; 0x10065bc
        0x0100197e:    4604        .F      MOV      r4,r0
        0x01001980:    21ff        .!      MOVS     r1,#0xff
        0x01001982:    312d        -1      ADDS     r1,r1,#0x2d
        0x01001984:    4630        0F      MOV      r0,r6
        0x01001986:    f004fe19    ....    BL       __aeabi_uidiv ; 0x10065bc
        0x0100198a:    460d        .F      MOV      r5,r1
        0x0100198c:    e004        ..      B        0x1001998 ; SysTick_Delay_Ms + 40
        0x0100198e:    20ff        .       MOVS     r0,#0xff
        0x01001990:    302d        -0      ADDS     r0,r0,#0x2d
        0x01001992:    f7ffffaf    ....    BL       sysTick_delay_ms ; 0x10018f4
        0x01001996:    1e64        d.      SUBS     r4,r4,#1
        0x01001998:    2c00        .,      CMP      r4,#0
        0x0100199a:    d1f8        ..      BNE      0x100198e ; SysTick_Delay_Ms + 30
        0x0100199c:    2d00        .-      CMP      r5,#0
        0x0100199e:    d002        ..      BEQ      0x10019a6 ; SysTick_Delay_Ms + 54
        0x010019a0:    4628        (F      MOV      r0,r5
        0x010019a2:    f7ffffa7    ....    BL       sysTick_delay_ms ; 0x10018f4
        0x010019a6:    bd70        p.      POP      {r4-r6,pc}
    SysTick_Delay_Us
        0x010019a8:    b570        p.      PUSH     {r4-r6,lr}
        0x010019aa:    4604        .F      MOV      r4,r0
        0x010019ac:    4865        eH      LDR      r0,[pc,#404] ; [0x1001b44] = 0x55348
        0x010019ae:    4284        .B      CMP      r4,r0
        0x010019b0:    d904        ..      BLS      0x10019bc ; SysTick_Delay_Us + 20
        0x010019b2:    4a65        eJ      LDR      r2,[pc,#404] ; [0x1001b48] = 0x10076fa
        0x010019b4:    2130        0!      MOVS     r1,#0x30
        0x010019b6:    a055        U.      ADR      r0,{pc}+0x156 ; 0x1001b0c
        0x010019b8:    f7feff26    ..&.    BL       _assert_handler ; 0x1000808
        0x010019bc:    485e        ^H      LDR      r0,[pc,#376] ; [0x1001b38] = 0xf8540
        0x010019be:    6a00        .j      LDR      r0,[r0,#0x20]
        0x010019c0:    0700        ..      LSLS     r0,r0,#28
        0x010019c2:    0f00        ..      LSRS     r0,r0,#28
        0x010019c4:    1c81        ..      ADDS     r1,r0,#2
        0x010019c6:    485d        ]H      LDR      r0,[pc,#372] ; [0x1001b3c] = 0xb71b000
        0x010019c8:    f004fe0e    ....    BL       __aeabi_idiv ; 0x10065e8
        0x010019cc:    4606        .F      MOV      r6,r0
        0x010019ce:    495f        _I      LDR      r1,[pc,#380] ; [0x1001b4c] = 0xf4240
        0x010019d0:    f004fe0a    ....    BL       __aeabi_idiv ; 0x10065e8
        0x010019d4:    4360        `C      MULS     r0,r4,r0
        0x010019d6:    4605        .F      MOV      r5,r0
        0x010019d8:    1e6d        m.      SUBS     r5,r5,#1
        0x010019da:    4859        YH      LDR      r0,[pc,#356] ; [0x1001b40] = 0xe000e000
        0x010019dc:    6145        Ea      STR      r5,[r0,#0x14]
        0x010019de:    2000        .       MOVS     r0,#0
        0x010019e0:    4957        WI      LDR      r1,[pc,#348] ; [0x1001b40] = 0xe000e000
        0x010019e2:    6188        .a      STR      r0,[r1,#0x18]
        0x010019e4:    4608        .F      MOV      r0,r1
        0x010019e6:    6900        .i      LDR      r0,[r0,#0x10]
        0x010019e8:    2102        .!      MOVS     r1,#2
        0x010019ea:    4388        .C      BICS     r0,r0,r1
        0x010019ec:    4954        TI      LDR      r1,[pc,#336] ; [0x1001b40] = 0xe000e000
        0x010019ee:    6108        .a      STR      r0,[r1,#0x10]
        0x010019f0:    4608        .F      MOV      r0,r1
        0x010019f2:    6900        .i      LDR      r0,[r0,#0x10]
        0x010019f4:    2105        .!      MOVS     r1,#5
        0x010019f6:    4308        .C      ORRS     r0,r0,r1
        0x010019f8:    4951        QI      LDR      r1,[pc,#324] ; [0x1001b40] = 0xe000e000
        0x010019fa:    6108        .a      STR      r0,[r1,#0x10]
        0x010019fc:    bf00        ..      NOP      
        0x010019fe:    4850        PH      LDR      r0,[pc,#320] ; [0x1001b40] = 0xe000e000
        0x01001a00:    6900        .i      LDR      r0,[r0,#0x10]
        0x01001a02:    0c00        ..      LSRS     r0,r0,#16
        0x01001a04:    2800        .(      CMP      r0,#0
        0x01001a06:    d101        ..      BNE      0x1001a0c ; SysTick_Delay_Us + 100
        0x01001a08:    2001        .       MOVS     r0,#1
        0x01001a0a:    e000        ..      B        0x1001a0e ; SysTick_Delay_Us + 102
        0x01001a0c:    2000        .       MOVS     r0,#0
        0x01001a0e:    07c0        ..      LSLS     r0,r0,#31
        0x01001a10:    0fc0        ..      LSRS     r0,r0,#31
        0x01001a12:    2800        .(      CMP      r0,#0
        0x01001a14:    d1f3        ..      BNE      0x10019fe ; SysTick_Delay_Us + 86
        0x01001a16:    484a        JH      LDR      r0,[pc,#296] ; [0x1001b40] = 0xe000e000
        0x01001a18:    6900        .i      LDR      r0,[r0,#0x10]
        0x01001a1a:    4949        II      LDR      r1,[pc,#292] ; [0x1001b40] = 0xe000e000
        0x01001a1c:    6108        .a      STR      r0,[r1,#0x10]
        0x01001a1e:    bd70        p.      POP      {r4-r6,pc}
    SysTick_Config
        0x01001a20:    b510        ..      PUSH     {r4,lr}
        0x01001a22:    4604        .F      MOV      r4,r0
        0x01001a24:    484a        JH      LDR      r0,[pc,#296] ; [0x1001b50] = 0xffffff
        0x01001a26:    4284        .B      CMP      r4,r0
        0x01001a28:    d904        ..      BLS      0x1001a34 ; SysTick_Config + 20
        0x01001a2a:    4a4a        JJ      LDR      r2,[pc,#296] ; [0x1001b54] = 0x100770b
        0x01001a2c:    2142        B!      MOVS     r1,#0x42
        0x01001a2e:    a037        7.      ADR      r0,{pc}+0xde ; 0x1001b0c
        0x01001a30:    f7fefeea    ....    BL       _assert_handler ; 0x1000808
        0x01001a34:    1e64        d.      SUBS     r4,r4,#1
        0x01001a36:    4842        BH      LDR      r0,[pc,#264] ; [0x1001b40] = 0xe000e000
        0x01001a38:    6900        .i      LDR      r0,[r0,#0x10]
        0x01001a3a:    0840        @.      LSRS     r0,r0,#1
        0x01001a3c:    0040        @.      LSLS     r0,r0,#1
        0x01001a3e:    4940        @I      LDR      r1,[pc,#256] ; [0x1001b40] = 0xe000e000
        0x01001a40:    6108        .a      STR      r0,[r1,#0x10]
        0x01001a42:    4608        .F      MOV      r0,r1
        0x01001a44:    6144        Da      STR      r4,[r0,#0x14]
        0x01001a46:    2000        .       MOVS     r0,#0
        0x01001a48:    6188        .a      STR      r0,[r1,#0x18]
        0x01001a4a:    4943        CI      LDR      r1,[pc,#268] ; [0x1001b58] = 0x20018
        0x01001a4c:    6008        .`      STR      r0,[r1,#0]
        0x01001a4e:    483c        <H      LDR      r0,[pc,#240] ; [0x1001b40] = 0xe000e000
        0x01001a50:    6900        .i      LDR      r0,[r0,#0x10]
        0x01001a52:    2107        .!      MOVS     r1,#7
        0x01001a54:    4308        .C      ORRS     r0,r0,r1
        0x01001a56:    493a        :I      LDR      r1,[pc,#232] ; [0x1001b40] = 0xe000e000
        0x01001a58:    6108        .a      STR      r0,[r1,#0x10]
        0x01001a5a:    bd10        ..      POP      {r4,pc}
    SysTick_disable
        0x01001a5c:    4838        8H      LDR      r0,[pc,#224] ; [0x1001b40] = 0xe000e000
        0x01001a5e:    6900        .i      LDR      r0,[r0,#0x10]
        0x01001a60:    0840        @.      LSRS     r0,r0,#1
        0x01001a62:    0040        @.      LSLS     r0,r0,#1
        0x01001a64:    4936        6I      LDR      r1,[pc,#216] ; [0x1001b40] = 0xe000e000
        0x01001a66:    6108        .a      STR      r0,[r1,#0x10]
        0x01001a68:    2000        .       MOVS     r0,#0
        0x01001a6a:    6148        Ha      STR      r0,[r1,#0x14]
        0x01001a6c:    6188        .a      STR      r0,[r1,#0x18]
        0x01001a6e:    493a        :I      LDR      r1,[pc,#232] ; [0x1001b58] = 0x20018
        0x01001a70:    6008        .`      STR      r0,[r1,#0]
        0x01001a72:    4933        3I      LDR      r1,[pc,#204] ; [0x1001b40] = 0xe000e000
        0x01001a74:    6108        .a      STR      r0,[r1,#0x10]
        0x01001a76:    4770        pG      BX       lr
    SysTick_GetTick
        0x01001a78:    4837        7H      LDR      r0,[pc,#220] ; [0x1001b58] = 0x20018
        0x01001a7a:    6800        .h      LDR      r0,[r0,#0]
        0x01001a7c:    4770        pG      BX       lr
    SysTick_IsTimeOut
        0x01001a7e:    b5f8        ..      PUSH     {r3-r7,lr}
        0x01001a80:    4604        .F      MOV      r4,r0
        0x01001a82:    460d        .F      MOV      r5,r1
        0x01001a84:    f7fffff8    ....    BL       SysTick_GetTick ; 0x1001a78
        0x01001a88:    1b04        ..      SUBS     r4,r0,r4
        0x01001a8a:    2c00        .,      CMP      r4,#0
        0x01001a8c:    da01        ..      BGE      0x1001a92 ; SysTick_IsTimeOut + 20
        0x01001a8e:    4833        3H      LDR      r0,[pc,#204] ; [0x1001b5c] = 0x7fffffff
        0x01001a90:    1824        $.      ADDS     r4,r4,r0
        0x01001a92:    4829        )H      LDR      r0,[pc,#164] ; [0x1001b38] = 0xf8540
        0x01001a94:    6a00        .j      LDR      r0,[r0,#0x20]
        0x01001a96:    0700        ..      LSLS     r0,r0,#28
        0x01001a98:    0f00        ..      LSRS     r0,r0,#28
        0x01001a9a:    1c81        ..      ADDS     r1,r0,#2
        0x01001a9c:    4827        'H      LDR      r0,[pc,#156] ; [0x1001b3c] = 0xb71b000
        0x01001a9e:    f004fda3    ....    BL       __aeabi_idiv ; 0x10065e8
        0x01001aa2:    4607        .F      MOV      r7,r0
        0x01001aa4:    217d        }!      MOVS     r1,#0x7d
        0x01001aa6:    00c9        ..      LSLS     r1,r1,#3
        0x01001aa8:    f004fd9e    ....    BL       __aeabi_idiv ; 0x10065e8
        0x01001aac:    4606        .F      MOV      r6,r0
        0x01001aae:    4924        $I      LDR      r1,[pc,#144] ; [0x1001b40] = 0xe000e000
        0x01001ab0:    6949        Ii      LDR      r1,[r1,#0x14]
        0x01001ab2:    4361        aC      MULS     r1,r4,r1
        0x01001ab4:    4608        .F      MOV      r0,r1
        0x01001ab6:    4631        1F      MOV      r1,r6
        0x01001ab8:    f004fd80    ....    BL       __aeabi_uidiv ; 0x10065bc
        0x01001abc:    42a8        .B      CMP      r0,r5
        0x01001abe:    d301        ..      BCC      0x1001ac4 ; SysTick_IsTimeOut + 70
        0x01001ac0:    2001        .       MOVS     r0,#1
        0x01001ac2:    bdf8        ..      POP      {r3-r7,pc}
        0x01001ac4:    2000        .       MOVS     r0,#0
        0x01001ac6:    e7fc        ..      B        0x1001ac2 ; SysTick_IsTimeOut + 68
    SysTick_GetRelativeTime
        0x01001ac8:    b570        p.      PUSH     {r4-r6,lr}
        0x01001aca:    4604        .F      MOV      r4,r0
        0x01001acc:    f7ffffd4    ....    BL       SysTick_GetTick ; 0x1001a78
        0x01001ad0:    1b04        ..      SUBS     r4,r0,r4
        0x01001ad2:    2c00        .,      CMP      r4,#0
        0x01001ad4:    da01        ..      BGE      0x1001ada ; SysTick_GetRelativeTime + 18
        0x01001ad6:    4821        !H      LDR      r0,[pc,#132] ; [0x1001b5c] = 0x7fffffff
        0x01001ad8:    1824        $.      ADDS     r4,r4,r0
        0x01001ada:    4817        .H      LDR      r0,[pc,#92] ; [0x1001b38] = 0xf8540
        0x01001adc:    6a00        .j      LDR      r0,[r0,#0x20]
        0x01001ade:    0700        ..      LSLS     r0,r0,#28
        0x01001ae0:    0f00        ..      LSRS     r0,r0,#28
        0x01001ae2:    1c81        ..      ADDS     r1,r0,#2
        0x01001ae4:    4815        .H      LDR      r0,[pc,#84] ; [0x1001b3c] = 0xb71b000
        0x01001ae6:    f004fd7f    ....    BL       __aeabi_idiv ; 0x10065e8
        0x01001aea:    4606        .F      MOV      r6,r0
        0x01001aec:    217d        }!      MOVS     r1,#0x7d
        0x01001aee:    00c9        ..      LSLS     r1,r1,#3
        0x01001af0:    f004fd7a    ..z.    BL       __aeabi_idiv ; 0x10065e8
        0x01001af4:    4605        .F      MOV      r5,r0
        0x01001af6:    4912        .I      LDR      r1,[pc,#72] ; [0x1001b40] = 0xe000e000
        0x01001af8:    6949        Ii      LDR      r1,[r1,#0x14]
        0x01001afa:    4361        aC      MULS     r1,r4,r1
        0x01001afc:    4608        .F      MOV      r0,r1
        0x01001afe:    4629        )F      MOV      r1,r5
        0x01001b00:    f004fd5c    ..\.    BL       __aeabi_uidiv ; 0x10065bc
        0x01001b04:    bd70        p.      POP      {r4-r6,pc}
    $d
        0x01001b06:    0000        ..      DCW    0
        0x01001b08:    010076e9    .v..    DCD    16807657
        0x01001b0c:    2e5c2e2e    ..\.    DCD    777793070
        0x01001b10:    61685c2e    .\ha    DCD    1634229294
        0x01001b14:    61776472    rdwa    DCD    1635214450
        0x01001b18:    4c5c6572    re\L    DCD    1281123698
        0x01001b1c:    61726269    ibra    DCD    1634886249
        0x01001b20:    72656972    rier    DCD    1919248754
        0x01001b24:    6b64735c    \sdk    DCD    1801745244
        0x01001b28:    5f63795c    \yc_    DCD    1600354652
        0x01001b2c:    74737973    syst    DCD    1953724787
        0x01001b30:    2e6b6369    ick.    DCD    778789737
        0x01001b34:    00000063    c...    DCD    99
        0x01001b38:    000f8540    @...    DCD    1017152
        0x01001b3c:    0b71b000    ..q.    DCD    192000000
        0x01001b40:    e000e000    ....    DCD    3758153728
        0x01001b44:    00055348    HS..    DCD    349000
        0x01001b48:    010076fa    .v..    DCD    16807674
        0x01001b4c:    000f4240    @B..    DCD    1000000
        0x01001b50:    00ffffff    ....    DCD    16777215
        0x01001b54:    0100770b    .w..    DCD    16807691
        0x01001b58:    00020018    ....    DCD    131096
        0x01001b5c:    7fffffff    ....    DCD    2147483647
    $t
    .text
    ADC_Init
        0x01001b60:    b510        ..      PUSH     {r4,lr}
        0x01001b62:    4604        .F      MOV      r4,r0
        0x01001b64:    7820         x      LDRB     r0,[r4,#0]
        0x01001b66:    2800        .(      CMP      r0,#0
        0x01001b68:    d019        ..      BEQ      0x1001b9e ; ADC_Init + 62
        0x01001b6a:    7820         x      LDRB     r0,[r4,#0]
        0x01001b6c:    2801        .(      CMP      r0,#1
        0x01001b6e:    d016        ..      BEQ      0x1001b9e ; ADC_Init + 62
        0x01001b70:    7820         x      LDRB     r0,[r4,#0]
        0x01001b72:    2802        .(      CMP      r0,#2
        0x01001b74:    d013        ..      BEQ      0x1001b9e ; ADC_Init + 62
        0x01001b76:    7820         x      LDRB     r0,[r4,#0]
        0x01001b78:    2803        .(      CMP      r0,#3
        0x01001b7a:    d010        ..      BEQ      0x1001b9e ; ADC_Init + 62
        0x01001b7c:    7820         x      LDRB     r0,[r4,#0]
        0x01001b7e:    2804        .(      CMP      r0,#4
        0x01001b80:    d00d        ..      BEQ      0x1001b9e ; ADC_Init + 62
        0x01001b82:    7820         x      LDRB     r0,[r4,#0]
        0x01001b84:    2805        .(      CMP      r0,#5
        0x01001b86:    d00a        ..      BEQ      0x1001b9e ; ADC_Init + 62
        0x01001b88:    7820         x      LDRB     r0,[r4,#0]
        0x01001b8a:    2806        .(      CMP      r0,#6
        0x01001b8c:    d007        ..      BEQ      0x1001b9e ; ADC_Init + 62
        0x01001b8e:    7820         x      LDRB     r0,[r4,#0]
        0x01001b90:    2807        .(      CMP      r0,#7
        0x01001b92:    d004        ..      BEQ      0x1001b9e ; ADC_Init + 62
        0x01001b94:    4acc        .J      LDR      r2,[pc,#816] ; [0x1001ec8] = 0x100771a
        0x01001b96:    2111        .!      MOVS     r1,#0x11
        0x01001b98:    a0cc        ..      ADR      r0,{pc}+0x334 ; 0x1001ecc
        0x01001b9a:    f7fefe35    ..5.    BL       _assert_handler ; 0x1000808
        0x01001b9e:    7860        `x      LDRB     r0,[r4,#1]
        0x01001ba0:    2800        .(      CMP      r0,#0
        0x01001ba2:    d00d        ..      BEQ      0x1001bc0 ; ADC_Init + 96
        0x01001ba4:    7860        `x      LDRB     r0,[r4,#1]
        0x01001ba6:    2801        .(      CMP      r0,#1
        0x01001ba8:    d00a        ..      BEQ      0x1001bc0 ; ADC_Init + 96
        0x01001baa:    7860        `x      LDRB     r0,[r4,#1]
        0x01001bac:    2802        .(      CMP      r0,#2
        0x01001bae:    d007        ..      BEQ      0x1001bc0 ; ADC_Init + 96
        0x01001bb0:    7860        `x      LDRB     r0,[r4,#1]
        0x01001bb2:    2803        .(      CMP      r0,#3
        0x01001bb4:    d004        ..      BEQ      0x1001bc0 ; ADC_Init + 96
        0x01001bb6:    4ac4        .J      LDR      r2,[pc,#784] ; [0x1001ec8] = 0x100771a
        0x01001bb8:    2112        .!      MOVS     r1,#0x12
        0x01001bba:    a0c4        ..      ADR      r0,{pc}+0x312 ; 0x1001ecc
        0x01001bbc:    f7fefe24    ..$.    BL       _assert_handler ; 0x1000808
        0x01001bc0:    f000ffdb    ....    BL       IpcInit ; 0x1002b7a
        0x01001bc4:    7860        `x      LDRB     r0,[r4,#1]
        0x01001bc6:    0100        ..      LSLS     r0,r0,#4
        0x01001bc8:    218f        .!      MOVS     r1,#0x8f
        0x01001bca:    4308        .C      ORRS     r0,r0,r1
        0x01001bcc:    49c9        .I      LDR      r1,[pc,#804] ; [0x1001ef4] = 0xc8960
        0x01001bce:    7448        Ht      STRB     r0,[r1,#0x11]
        0x01001bd0:    207f        .       MOVS     r0,#0x7f
        0x01001bd2:    7408        .t      STRB     r0,[r1,#0x10]
        0x01001bd4:    20aa        .       MOVS     r0,#0xaa
        0x01001bd6:    7488        .t      STRB     r0,[r1,#0x12]
        0x01001bd8:    7820         x      LDRB     r0,[r4,#0]
        0x01001bda:    2130        0!      MOVS     r1,#0x30
        0x01001bdc:    4308        .C      ORRS     r0,r0,r1
        0x01001bde:    49c5        .I      LDR      r1,[pc,#788] ; [0x1001ef4] = 0xc8960
        0x01001be0:    74c8        .t      STRB     r0,[r1,#0x13]
        0x01001be2:    bd10        ..      POP      {r4,pc}
    ADC_GetResult
        0x01001be4:    4601        .F      MOV      r1,r0
        0x01001be6:    48c4        .H      LDR      r0,[pc,#784] ; [0x1001ef8] = 0x20024
        0x01001be8:    7800        .x      LDRB     r0,[r0,#0]
        0x01001bea:    2800        .(      CMP      r0,#0
        0x01001bec:    d100        ..      BNE      0x1001bf0 ; ADC_GetResult + 12
        0x01001bee:    4770        pG      BX       lr
        0x01001bf0:    4ac2        .J      LDR      r2,[pc,#776] ; [0x1001efc] = 0x1388
        0x01001bf2:    207f        .       MOVS     r0,#0x7f
        0x01001bf4:    4bbf        .K      LDR      r3,[pc,#764] ; [0x1001ef4] = 0xc8960
        0x01001bf6:    7418        .t      STRB     r0,[r3,#0x10]
        0x01001bf8:    20aa        .       MOVS     r0,#0xaa
        0x01001bfa:    7498        .t      STRB     r0,[r3,#0x12]
        0x01001bfc:    2030        0       MOVS     r0,#0x30
        0x01001bfe:    4308        .C      ORRS     r0,r0,r1
        0x01001c00:    74d8        .t      STRB     r0,[r3,#0x13]
        0x01001c02:    bf00        ..      NOP      
        0x01001c04:    4610        .F      MOV      r0,r2
        0x01001c06:    1e52        R.      SUBS     r2,r2,#1
        0x01001c08:    2800        .(      CMP      r0,#0
        0x01001c0a:    d1fb        ..      BNE      0x1001c04 ; ADC_GetResult + 32
        0x01001c0c:    48bc        .H      LDR      r0,[pc,#752] ; [0x1001f00] = 0xf8500
        0x01001c0e:    89c0        ..      LDRH     r0,[r0,#0xe]
        0x01001c10:    4bbc        .K      LDR      r3,[pc,#752] ; [0x1001f04] = 0x7fe
        0x01001c12:    4018        .@      ANDS     r0,r0,r3
        0x01001c14:    e7eb        ..      B        0x1001bee ; ADC_GetResult + 10
    ADC_Filt
        0x01001c16:    b5f0        ..      PUSH     {r4-r7,lr}
        0x01001c18:    b08b        ..      SUB      sp,sp,#0x2c
        0x01001c1a:    4604        .F      MOV      r4,r0
        0x01001c1c:    4eb7        .N      LDR      r6,[pc,#732] ; [0x1001efc] = 0x1388
        0x01001c1e:    20c8        .       MOVS     r0,#0xc8
        0x01001c20:    9000        ..      STR      r0,[sp,#0]
        0x01001c22:    48b5        .H      LDR      r0,[pc,#724] ; [0x1001ef8] = 0x20024
        0x01001c24:    7800        .x      LDRB     r0,[r0,#0]
        0x01001c26:    2800        .(      CMP      r0,#0
        0x01001c28:    d102        ..      BNE      0x1001c30 ; ADC_Filt + 26
        0x01001c2a:    1e40        @.      SUBS     r0,r0,#1
        0x01001c2c:    b00b        ..      ADD      sp,sp,#0x2c
        0x01001c2e:    bdf0        ..      POP      {r4-r7,pc}
        0x01001c30:    207f        .       MOVS     r0,#0x7f
        0x01001c32:    4db0        .M      LDR      r5,[pc,#704] ; [0x1001ef4] = 0xc8960
        0x01001c34:    7428        (t      STRB     r0,[r5,#0x10]
        0x01001c36:    20aa        .       MOVS     r0,#0xaa
        0x01001c38:    74a8        .t      STRB     r0,[r5,#0x12]
        0x01001c3a:    2030        0       MOVS     r0,#0x30
        0x01001c3c:    4320         C      ORRS     r0,r0,r4
        0x01001c3e:    74e8        .t      STRB     r0,[r5,#0x13]
        0x01001c40:    bf00        ..      NOP      
        0x01001c42:    4630        0F      MOV      r0,r6
        0x01001c44:    1e76        v.      SUBS     r6,r6,#1
        0x01001c46:    2800        .(      CMP      r0,#0
        0x01001c48:    d1fb        ..      BNE      0x1001c42 ; ADC_Filt + 44
        0x01001c4a:    2100        .!      MOVS     r1,#0
        0x01001c4c:    e018        ..      B        0x1001c80 ; ADC_Filt + 106
        0x01001c4e:    48ac        .H      LDR      r0,[pc,#688] ; [0x1001f00] = 0xf8500
        0x01001c50:    89c0        ..      LDRH     r0,[r0,#0xe]
        0x01001c52:    4dac        .M      LDR      r5,[pc,#688] ; [0x1001f04] = 0x7fe
        0x01001c54:    4028        (@      ANDS     r0,r0,r5
        0x01001c56:    004d        M.      LSLS     r5,r1,#1
        0x01001c58:    af01        ..      ADD      r7,sp,#4
        0x01001c5a:    5378        xS      STRH     r0,[r7,r5]
        0x01001c5c:    0048        H.      LSLS     r0,r1,#1
        0x01001c5e:    ad01        ..      ADD      r5,sp,#4
        0x01001c60:    5a28        (Z      LDRH     r0,[r5,r0]
        0x01001c62:    2800        .(      CMP      r0,#0
        0x01001c64:    d000        ..      BEQ      0x1001c68 ; ADC_Filt + 82
        0x01001c66:    e009        ..      B        0x1001c7c ; ADC_Filt + 102
        0x01001c68:    1e48        H.      SUBS     r0,r1,#1
        0x01001c6a:    b241        A.      SXTB     r1,r0
        0x01001c6c:    9800        ..      LDR      r0,[sp,#0]
        0x01001c6e:    1e45        E.      SUBS     r5,r0,#1
        0x01001c70:    9500        ..      STR      r5,[sp,#0]
        0x01001c72:    2800        .(      CMP      r0,#0
        0x01001c74:    d101        ..      BNE      0x1001c7a ; ADC_Filt + 100
        0x01001c76:    1e40        @.      SUBS     r0,r0,#1
        0x01001c78:    e7d8        ..      B        0x1001c2c ; ADC_Filt + 22
        0x01001c7a:    bf00        ..      NOP      
        0x01001c7c:    1c48        H.      ADDS     r0,r1,#1
        0x01001c7e:    b241        A.      SXTB     r1,r0
        0x01001c80:    2914        .)      CMP      r1,#0x14
        0x01001c82:    dbe4        ..      BLT      0x1001c4e ; ADC_Filt + 56
        0x01001c84:    2301        .#      MOVS     r3,#1
        0x01001c86:    e01b        ..      B        0x1001cc0 ; ADC_Filt + 170
        0x01001c88:    0058        X.      LSLS     r0,r3,#1
        0x01001c8a:    ad01        ..      ADD      r5,sp,#4
        0x01001c8c:    5a2a        *Z      LDRH     r2,[r5,r0]
        0x01001c8e:    1e58        X.      SUBS     r0,r3,#1
        0x01001c90:    b241        A.      SXTB     r1,r0
        0x01001c92:    e008        ..      B        0x1001ca6 ; ADC_Filt + 144
        0x01001c94:    0048        H.      LSLS     r0,r1,#1
        0x01001c96:    ad01        ..      ADD      r5,sp,#4
        0x01001c98:    5a2d        -Z      LDRH     r5,[r5,r0]
        0x01001c9a:    1c48        H.      ADDS     r0,r1,#1
        0x01001c9c:    0040        @.      LSLS     r0,r0,#1
        0x01001c9e:    af01        ..      ADD      r7,sp,#4
        0x01001ca0:    523d        =R      STRH     r5,[r7,r0]
        0x01001ca2:    1e48        H.      SUBS     r0,r1,#1
        0x01001ca4:    b241        A.      SXTB     r1,r0
        0x01001ca6:    2900        .)      CMP      r1,#0
        0x01001ca8:    db04        ..      BLT      0x1001cb4 ; ADC_Filt + 158
        0x01001caa:    0048        H.      LSLS     r0,r1,#1
        0x01001cac:    ad01        ..      ADD      r5,sp,#4
        0x01001cae:    5a28        (Z      LDRH     r0,[r5,r0]
        0x01001cb0:    4290        .B      CMP      r0,r2
        0x01001cb2:    dcef        ..      BGT      0x1001c94 ; ADC_Filt + 126
        0x01001cb4:    1c48        H.      ADDS     r0,r1,#1
        0x01001cb6:    0040        @.      LSLS     r0,r0,#1
        0x01001cb8:    ad01        ..      ADD      r5,sp,#4
        0x01001cba:    522a        *R      STRH     r2,[r5,r0]
        0x01001cbc:    1c58        X.      ADDS     r0,r3,#1
        0x01001cbe:    b243        C.      SXTB     r3,r0
        0x01001cc0:    2b14        .+      CMP      r3,#0x14
        0x01001cc2:    dbe1        ..      BLT      0x1001c88 ; ADC_Filt + 114
        0x01001cc4:    2200        ."      MOVS     r2,#0
        0x01001cc6:    2106        .!      MOVS     r1,#6
        0x01001cc8:    e006        ..      B        0x1001cd8 ; ADC_Filt + 194
        0x01001cca:    0048        H.      LSLS     r0,r1,#1
        0x01001ccc:    ad01        ..      ADD      r5,sp,#4
        0x01001cce:    5a28        (Z      LDRH     r0,[r5,r0]
        0x01001cd0:    1880        ..      ADDS     r0,r0,r2
        0x01001cd2:    b282        ..      UXTH     r2,r0
        0x01001cd4:    1c48        H.      ADDS     r0,r1,#1
        0x01001cd6:    b241        A.      SXTB     r1,r0
        0x01001cd8:    290e        .)      CMP      r1,#0xe
        0x01001cda:    dbf6        ..      BLT      0x1001cca ; ADC_Filt + 180
        0x01001cdc:    4615        .F      MOV      r5,r2
        0x01001cde:    17d0        ..      ASRS     r0,r2,#31
        0x01001ce0:    0f40        @.      LSRS     r0,r0,#29
        0x01001ce2:    1940        @.      ADDS     r0,r0,r5
        0x01001ce4:    10c0        ..      ASRS     r0,r0,#3
        0x01001ce6:    e7a1        ..      B        0x1001c2c ; ADC_Filt + 22
    calculate_voltage
        0x01001ce8:    b5f0        ..      PUSH     {r4-r7,lr}
        0x01001cea:    b085        ..      SUB      sp,sp,#0x14
        0x01001cec:    4605        .F      MOV      r5,r0
        0x01001cee:    460e        .F      MOV      r6,r1
        0x01001cf0:    4614        .F      MOV      r4,r2
        0x01001cf2:    461f        .F      MOV      r7,r3
        0x01001cf4:    207d        }       MOVS     r0,#0x7d
        0x01001cf6:    00c0        ..      LSLS     r0,r0,#3
        0x01001cf8:    4368        hC      MULS     r0,r5,r0
        0x01001cfa:    1b00        ..      SUBS     r0,r0,r4
        0x01001cfc:    9003        ..      STR      r0,[sp,#0xc]
        0x01001cfe:    1b30        0.      SUBS     r0,r6,r4
        0x01001d00:    9002        ..      STR      r0,[sp,#8]
        0x01001d02:    980a        ..      LDR      r0,[sp,#0x28]
        0x01001d04:    1a38        8.      SUBS     r0,r7,r0
        0x01001d06:    9001        ..      STR      r0,[sp,#4]
        0x01001d08:    9a01        ..      LDR      r2,[sp,#4]
        0x01001d0a:    9903        ..      LDR      r1,[sp,#0xc]
        0x01001d0c:    4351        QC      MULS     r1,r2,r1
        0x01001d0e:    4608        .F      MOV      r0,r1
        0x01001d10:    9902        ..      LDR      r1,[sp,#8]
        0x01001d12:    f004fc69    ..i.    BL       __aeabi_idiv ; 0x10065e8
        0x01001d16:    990a        ..      LDR      r1,[sp,#0x28]
        0x01001d18:    1840        @.      ADDS     r0,r0,r1
        0x01001d1a:    9000        ..      STR      r0,[sp,#0]
        0x01001d1c:    9800        ..      LDR      r0,[sp,#0]
        0x01001d1e:    b005        ..      ADD      sp,sp,#0x14
        0x01001d20:    bdf0        ..      POP      {r4-r7,pc}
    ADC_GetVoltage
        0x01001d22:    b5f1        ..      PUSH     {r0,r4-r7,lr}
        0x01001d24:    b09e        ..      SUB      sp,sp,#0x78
        0x01001d26:    2500        .%      MOVS     r5,#0
        0x01001d28:    2400        .$      MOVS     r4,#0
        0x01001d2a:    2600        .&      MOVS     r6,#0
        0x01001d2c:    20af        .       MOVS     r0,#0xaf
        0x01001d2e:    0100        ..      LSLS     r0,r0,#4
        0x01001d30:    901d        ..      STR      r0,[sp,#0x74]
        0x01001d32:    4872        rH      LDR      r0,[pc,#456] ; [0x1001efc] = 0x1388
        0x01001d34:    901c        ..      STR      r0,[sp,#0x70]
        0x01001d36:    01c7        ..      LSLS     r7,r0,#7
        0x01001d38:    4873        sH      LDR      r0,[pc,#460] ; [0x1001f08] = 0xb5a40
        0x01001d3a:    901b        ..      STR      r0,[sp,#0x6c]
        0x01001d3c:    2150        P!      MOVS     r1,#0x50
        0x01001d3e:    a807        ..      ADD      r0,sp,#0x1c
        0x01001d40:    f004fc7f    ....    BL       __aeabi_memclr ; 0x1006642
        0x01001d44:    486b        kH      LDR      r0,[pc,#428] ; [0x1001ef4] = 0xc8960
        0x01001d46:    7c40        @|      LDRB     r0,[r0,#0x11]
        0x01001d48:    2170        p!      MOVS     r1,#0x70
        0x01001d4a:    4008        .@      ANDS     r0,r0,r1
        0x01001d4c:    1100        ..      ASRS     r0,r0,#4
        0x01001d4e:    9006        ..      STR      r0,[sp,#0x18]
        0x01001d50:    2000        .       MOVS     r0,#0
        0x01001d52:    9002        ..      STR      r0,[sp,#8]
        0x01001d54:    9003        ..      STR      r0,[sp,#0xc]
        0x01001d56:    9004        ..      STR      r0,[sp,#0x10]
        0x01001d58:    9005        ..      STR      r0,[sp,#0x14]
        0x01001d5a:    4867        gH      LDR      r0,[pc,#412] ; [0x1001ef8] = 0x20024
        0x01001d5c:    7800        .x      LDRB     r0,[r0,#0]
        0x01001d5e:    2800        .(      CMP      r0,#0
        0x01001d60:    d102        ..      BNE      0x1001d68 ; ADC_GetVoltage + 70
        0x01001d62:    1e40        @.      SUBS     r0,r0,#1
        0x01001d64:    b01f        ..      ADD      sp,sp,#0x7c
        0x01001d66:    bdf0        ..      POP      {r4-r7,pc}
        0x01001d68:    2210        ."      MOVS     r2,#0x10
        0x01001d6a:    a902        ..      ADD      r1,sp,#8
        0x01001d6c:    20ff        .       MOVS     r0,#0xff
        0x01001d6e:    302d        -0      ADDS     r0,r0,#0x2d
        0x01001d70:    f000fc21    ..!.    BL       read_otp ; 0x10025b6
        0x01001d74:    9806        ..      LDR      r0,[sp,#0x18]
        0x01001d76:    2800        .(      CMP      r0,#0
        0x01001d78:    d004        ..      BEQ      0x1001d84 ; ADC_GetVoltage + 98
        0x01001d7a:    2802        .(      CMP      r0,#2
        0x01001d7c:    d01b        ..      BEQ      0x1001db6 ; ADC_GetVoltage + 148
        0x01001d7e:    2803        .(      CMP      r0,#3
        0x01001d80:    d14b        K.      BNE      0x1001e1a ; ADC_GetVoltage + 248
        0x01001d82:    e031        1.      B        0x1001de8 ; ADC_GetVoltage + 198
        0x01001d84:    4668        hF      MOV      r0,sp
        0x01001d86:    7ac0        .z      LDRB     r0,[r0,#0xb]
        0x01001d88:    0201        ..      LSLS     r1,r0,#8
        0x01001d8a:    4668        hF      MOV      r0,sp
        0x01001d8c:    7a80        .z      LDRB     r0,[r0,#0xa]
        0x01001d8e:    4308        .C      ORRS     r0,r0,r1
        0x01001d90:    217d        }!      MOVS     r1,#0x7d
        0x01001d92:    00c9        ..      LSLS     r1,r1,#3
        0x01001d94:    4348        HC      MULS     r0,r1,r0
        0x01001d96:    4607        .F      MOV      r7,r0
        0x01001d98:    4668        hF      MOV      r0,sp
        0x01001d9a:    7c40        @|      LDRB     r0,[r0,#0x11]
        0x01001d9c:    0200        ..      LSLS     r0,r0,#8
        0x01001d9e:    4669        iF      MOV      r1,sp
        0x01001da0:    7c09        .|      LDRB     r1,[r1,#0x10]
        0x01001da2:    4308        .C      ORRS     r0,r0,r1
        0x01001da4:    217d        }!      MOVS     r1,#0x7d
        0x01001da6:    00c9        ..      LSLS     r1,r1,#3
        0x01001da8:    4348        HC      MULS     r0,r1,r0
        0x01001daa:    901b        ..      STR      r0,[sp,#0x6c]
        0x01001dac:    1048        H.      ASRS     r0,r1,#1
        0x01001dae:    901d        ..      STR      r0,[sp,#0x74]
        0x01001db0:    0040        @.      LSLS     r0,r0,#1
        0x01001db2:    901c        ..      STR      r0,[sp,#0x70]
        0x01001db4:    e034        4.      B        0x1001e20 ; ADC_GetVoltage + 254
        0x01001db6:    4668        hF      MOV      r0,sp
        0x01001db8:    7b40        @{      LDRB     r0,[r0,#0xd]
        0x01001dba:    0201        ..      LSLS     r1,r0,#8
        0x01001dbc:    4668        hF      MOV      r0,sp
        0x01001dbe:    7b00        .{      LDRB     r0,[r0,#0xc]
        0x01001dc0:    4308        .C      ORRS     r0,r0,r1
        0x01001dc2:    217d        }!      MOVS     r1,#0x7d
        0x01001dc4:    00c9        ..      LSLS     r1,r1,#3
        0x01001dc6:    4348        HC      MULS     r0,r1,r0
        0x01001dc8:    4607        .F      MOV      r7,r0
        0x01001dca:    4668        hF      MOV      r0,sp
        0x01001dcc:    7cc0        .|      LDRB     r0,[r0,#0x13]
        0x01001dce:    0200        ..      LSLS     r0,r0,#8
        0x01001dd0:    4669        iF      MOV      r1,sp
        0x01001dd2:    7c89        .|      LDRB     r1,[r1,#0x12]
        0x01001dd4:    4308        .C      ORRS     r0,r0,r1
        0x01001dd6:    217d        }!      MOVS     r1,#0x7d
        0x01001dd8:    00c9        ..      LSLS     r1,r1,#3
        0x01001dda:    4348        HC      MULS     r0,r1,r0
        0x01001ddc:    901b        ..      STR      r0,[sp,#0x6c]
        0x01001dde:    484b        KH      LDR      r0,[pc,#300] ; [0x1001f0c] = 0xce4
        0x01001de0:    901d        ..      STR      r0,[sp,#0x74]
        0x01001de2:    4846        FH      LDR      r0,[pc,#280] ; [0x1001efc] = 0x1388
        0x01001de4:    901c        ..      STR      r0,[sp,#0x70]
        0x01001de6:    e01b        ..      B        0x1001e20 ; ADC_GetVoltage + 254
        0x01001de8:    4668        hF      MOV      r0,sp
        0x01001dea:    7b40        @{      LDRB     r0,[r0,#0xd]
        0x01001dec:    0201        ..      LSLS     r1,r0,#8
        0x01001dee:    4668        hF      MOV      r0,sp
        0x01001df0:    7b00        .{      LDRB     r0,[r0,#0xc]
        0x01001df2:    4308        .C      ORRS     r0,r0,r1
        0x01001df4:    217d        }!      MOVS     r1,#0x7d
        0x01001df6:    00c9        ..      LSLS     r1,r1,#3
        0x01001df8:    4348        HC      MULS     r0,r1,r0
        0x01001dfa:    4607        .F      MOV      r7,r0
        0x01001dfc:    4668        hF      MOV      r0,sp
        0x01001dfe:    7cc0        .|      LDRB     r0,[r0,#0x13]
        0x01001e00:    0200        ..      LSLS     r0,r0,#8
        0x01001e02:    4669        iF      MOV      r1,sp
        0x01001e04:    7c89        .|      LDRB     r1,[r1,#0x12]
        0x01001e06:    4308        .C      ORRS     r0,r0,r1
        0x01001e08:    217d        }!      MOVS     r1,#0x7d
        0x01001e0a:    00c9        ..      LSLS     r1,r1,#3
        0x01001e0c:    4348        HC      MULS     r0,r1,r0
        0x01001e0e:    901b        ..      STR      r0,[sp,#0x6c]
        0x01001e10:    0048        H.      LSLS     r0,r1,#1
        0x01001e12:    901d        ..      STR      r0,[sp,#0x74]
        0x01001e14:    483e        >H      LDR      r0,[pc,#248] ; [0x1001f10] = 0xbb8
        0x01001e16:    901c        ..      STR      r0,[sp,#0x70]
        0x01001e18:    e002        ..      B        0x1001e20 ; ADC_GetVoltage + 254
        0x01001e1a:    2000        .       MOVS     r0,#0
        0x01001e1c:    43c0        .C      MVNS     r0,r0
        0x01001e1e:    e7a1        ..      B        0x1001d64 ; ADC_GetVoltage + 66
        0x01001e20:    bf00        ..      NOP      
        0x01001e22:    2f00        ./      CMP      r7,#0
        0x01001e24:    d002        ..      BEQ      0x1001e2c ; ADC_GetVoltage + 266
        0x01001e26:    981b        ..      LDR      r0,[sp,#0x6c]
        0x01001e28:    2800        .(      CMP      r0,#0
        0x01001e2a:    d102        ..      BNE      0x1001e32 ; ADC_GetVoltage + 272
        0x01001e2c:    2000        .       MOVS     r0,#0
        0x01001e2e:    43c0        .C      MVNS     r0,r0
        0x01001e30:    e798        ..      B        0x1001d64 ; ADC_GetVoltage + 66
        0x01001e32:    e019        ..      B        0x1001e68 ; ADC_GetVoltage + 326
        0x01001e34:    981e        ..      LDR      r0,[sp,#0x78]
        0x01001e36:    f7fffed5    ....    BL       ADC_GetResult ; 0x1001be4
        0x01001e3a:    4605        .F      MOV      r5,r0
        0x01001e3c:    2d00        .-      CMP      r5,#0
        0x01001e3e:    dd0c        ..      BLE      0x1001e5a ; ADC_GetVoltage + 312
        0x01001e40:    981d        ..      LDR      r0,[sp,#0x74]
        0x01001e42:    9000        ..      STR      r0,[sp,#0]
        0x01001e44:    463a        :F      MOV      r2,r7
        0x01001e46:    4628        (F      MOV      r0,r5
        0x01001e48:    9b1c        ..      LDR      r3,[sp,#0x70]
        0x01001e4a:    991b        ..      LDR      r1,[sp,#0x6c]
        0x01001e4c:    f7ffff4c    ..L.    BL       calculate_voltage ; 0x1001ce8
        0x01001e50:    4621        !F      MOV      r1,r4
        0x01001e52:    1c64        d.      ADDS     r4,r4,#1
        0x01001e54:    0089        ..      LSLS     r1,r1,#2
        0x01001e56:    aa07        ..      ADD      r2,sp,#0x1c
        0x01001e58:    5050        PP      STR      r0,[r2,r1]
        0x01001e5a:    1c70        p.      ADDS     r0,r6,#1
        0x01001e5c:    4606        .F      MOV      r6,r0
        0x01001e5e:    281e        .(      CMP      r0,#0x1e
        0x01001e60:    dd02        ..      BLE      0x1001e68 ; ADC_GetVoltage + 326
        0x01001e62:    2000        .       MOVS     r0,#0
        0x01001e64:    43c0        .C      MVNS     r0,r0
        0x01001e66:    e77d        }.      B        0x1001d64 ; ADC_GetVoltage + 66
        0x01001e68:    2c14        .,      CMP      r4,#0x14
        0x01001e6a:    dbe3        ..      BLT      0x1001e34 ; ADC_GetVoltage + 274
        0x01001e6c:    2601        .&      MOVS     r6,#1
        0x01001e6e:    e018        ..      B        0x1001ea2 ; ADC_GetVoltage + 384
        0x01001e70:    00b0        ..      LSLS     r0,r6,#2
        0x01001e72:    a907        ..      ADD      r1,sp,#0x1c
        0x01001e74:    580d        .X      LDR      r5,[r1,r0]
        0x01001e76:    1e74        t.      SUBS     r4,r6,#1
        0x01001e78:    e007        ..      B        0x1001e8a ; ADC_GetVoltage + 360
        0x01001e7a:    00a0        ..      LSLS     r0,r4,#2
        0x01001e7c:    a907        ..      ADD      r1,sp,#0x1c
        0x01001e7e:    5809        .X      LDR      r1,[r1,r0]
        0x01001e80:    1c60        `.      ADDS     r0,r4,#1
        0x01001e82:    0080        ..      LSLS     r0,r0,#2
        0x01001e84:    aa07        ..      ADD      r2,sp,#0x1c
        0x01001e86:    5011        .P      STR      r1,[r2,r0]
        0x01001e88:    1e64        d.      SUBS     r4,r4,#1
        0x01001e8a:    2c00        .,      CMP      r4,#0
        0x01001e8c:    db04        ..      BLT      0x1001e98 ; ADC_GetVoltage + 374
        0x01001e8e:    00a0        ..      LSLS     r0,r4,#2
        0x01001e90:    a907        ..      ADD      r1,sp,#0x1c
        0x01001e92:    5808        .X      LDR      r0,[r1,r0]
        0x01001e94:    42a8        .B      CMP      r0,r5
        0x01001e96:    dcf0        ..      BGT      0x1001e7a ; ADC_GetVoltage + 344
        0x01001e98:    1c60        `.      ADDS     r0,r4,#1
        0x01001e9a:    0080        ..      LSLS     r0,r0,#2
        0x01001e9c:    a907        ..      ADD      r1,sp,#0x1c
        0x01001e9e:    500d        .P      STR      r5,[r1,r0]
        0x01001ea0:    1c76        v.      ADDS     r6,r6,#1
        0x01001ea2:    2e14        ..      CMP      r6,#0x14
        0x01001ea4:    dbe4        ..      BLT      0x1001e70 ; ADC_GetVoltage + 334
        0x01001ea6:    2500        .%      MOVS     r5,#0
        0x01001ea8:    2406        .$      MOVS     r4,#6
        0x01001eaa:    e004        ..      B        0x1001eb6 ; ADC_GetVoltage + 404
        0x01001eac:    00a0        ..      LSLS     r0,r4,#2
        0x01001eae:    a907        ..      ADD      r1,sp,#0x1c
        0x01001eb0:    5808        .X      LDR      r0,[r1,r0]
        0x01001eb2:    1945        E.      ADDS     r5,r0,r5
        0x01001eb4:    1c64        d.      ADDS     r4,r4,#1
        0x01001eb6:    2c0e        .,      CMP      r4,#0xe
        0x01001eb8:    dbf8        ..      BLT      0x1001eac ; ADC_GetVoltage + 394
        0x01001eba:    4629        )F      MOV      r1,r5
        0x01001ebc:    17e8        ..      ASRS     r0,r5,#31
        0x01001ebe:    0f40        @.      LSRS     r0,r0,#29
        0x01001ec0:    1840        @.      ADDS     r0,r0,r1
        0x01001ec2:    10c0        ..      ASRS     r0,r0,#3
        0x01001ec4:    e74e        N.      B        0x1001d64 ; ADC_GetVoltage + 66
    $d
        0x01001ec6:    0000        ..      DCW    0
        0x01001ec8:    0100771a    .w..    DCD    16807706
        0x01001ecc:    2e5c2e2e    ..\.    DCD    777793070
        0x01001ed0:    61685c2e    .\ha    DCD    1634229294
        0x01001ed4:    61776472    rdwa    DCD    1635214450
        0x01001ed8:    4c5c6572    re\L    DCD    1281123698
        0x01001edc:    61726269    ibra    DCD    1634886249
        0x01001ee0:    72656972    rier    DCD    1919248754
        0x01001ee4:    6b64735c    \sdk    DCD    1801745244
        0x01001ee8:    5f63795c    \yc_    DCD    1600354652
        0x01001eec:    2e636461    adc.    DCD    778265697
        0x01001ef0:    00000063    c...    DCD    99
        0x01001ef4:    000c8960    `...    DCD    821600
        0x01001ef8:    00020024    $...    DCD    131108
        0x01001efc:    00001388    ....    DCD    5000
        0x01001f00:    000f8500    ....    DCD    1017088
        0x01001f04:    000007fe    ....    DCD    2046
        0x01001f08:    000b5a40    @Z..    DCD    744000
        0x01001f0c:    00000ce4    ....    DCD    3300
        0x01001f10:    00000bb8    ....    DCD    3000
    $t
    .text
    SYSCTRL_AHBPeriphClockCmd
        0x01001f14:    b570        p.      PUSH     {r4-r6,lr}
        0x01001f16:    4604        .F      MOV      r4,r0
        0x01001f18:    460d        .F      MOV      r5,r1
        0x01001f1a:    4842        BH      LDR      r0,[pc,#264] ; [0x1002024] = 0x7fffe
        0x01001f1c:    4020         @      ANDS     r0,r0,r4
        0x01001f1e:    2800        .(      CMP      r0,#0
        0x01001f20:    d104        ..      BNE      0x1001f2c ; SYSCTRL_AHBPeriphClockCmd + 24
        0x01001f22:    4a41        AJ      LDR      r2,[pc,#260] ; [0x1002028] = 0x1007723
        0x01001f24:    2105        .!      MOVS     r1,#5
        0x01001f26:    a041        A.      ADR      r0,{pc}+0x106 ; 0x100202c
        0x01001f28:    f7fefc6e    ..n.    BL       _assert_handler ; 0x1000808
        0x01001f2c:    2d00        .-      CMP      r5,#0
        0x01001f2e:    d105        ..      BNE      0x1001f3c ; SYSCTRL_AHBPeriphClockCmd + 40
        0x01001f30:    4849        IH      LDR      r0,[pc,#292] ; [0x1002058] = 0xf8540
        0x01001f32:    6ac0        .j      LDR      r0,[r0,#0x2c]
        0x01001f34:    4320         C      ORRS     r0,r0,r4
        0x01001f36:    4948        HI      LDR      r1,[pc,#288] ; [0x1002058] = 0xf8540
        0x01001f38:    62c8        .b      STR      r0,[r1,#0x2c]
        0x01001f3a:    e004        ..      B        0x1001f46 ; SYSCTRL_AHBPeriphClockCmd + 50
        0x01001f3c:    4846        FH      LDR      r0,[pc,#280] ; [0x1002058] = 0xf8540
        0x01001f3e:    6ac0        .j      LDR      r0,[r0,#0x2c]
        0x01001f40:    43a0        .C      BICS     r0,r0,r4
        0x01001f42:    4945        EI      LDR      r1,[pc,#276] ; [0x1002058] = 0xf8540
        0x01001f44:    62c8        .b      STR      r0,[r1,#0x2c]
        0x01001f46:    bd70        p.      POP      {r4-r6,pc}
    SYSCTRL_EnterSleep
        0x01001f48:    b510        ..      PUSH     {r4,lr}
        0x01001f4a:    4604        .F      MOV      r4,r0
        0x01001f4c:    2c02        .,      CMP      r4,#2
        0x01001f4e:    d004        ..      BEQ      0x1001f5a ; SYSCTRL_EnterSleep + 18
        0x01001f50:    4a42        BJ      LDR      r2,[pc,#264] ; [0x100205c] = 0x100773d
        0x01001f52:    2112        .!      MOVS     r1,#0x12
        0x01001f54:    a035        5.      ADR      r0,{pc}+0xd8 ; 0x100202c
        0x01001f56:    f7fefc57    ..W.    BL       _assert_handler ; 0x1000808
        0x01001f5a:    205a        Z       MOVS     r0,#0x5a
        0x01001f5c:    4940        @I      LDR      r1,[pc,#256] ; [0x1002060] = 0xf8400
        0x01001f5e:    6208        .b      STR      r0,[r1,#0x20]
        0x01001f60:    bd10        ..      POP      {r4,pc}
    HCLKConfig_Div_None
    __tagsym$$noinline
        0x01001f62:    4a40        @J      LDR      r2,[pc,#256] ; [0x1002064] = 0xf8800
        0x01001f64:    69d2        .i      LDR      r2,[r2,#0x1c]
        0x01001f66:    2380        .#      MOVS     r3,#0x80
        0x01001f68:    431a        .C      ORRS     r2,r2,r3
        0x01001f6a:    4b3e        >K      LDR      r3,[pc,#248] ; [0x1002064] = 0xf8800
        0x01001f6c:    61da        .a      STR      r2,[r3,#0x1c]
        0x01001f6e:    4a3a        :J      LDR      r2,[pc,#232] ; [0x1002058] = 0xf8540
        0x01001f70:    6a12        .j      LDR      r2,[r2,#0x20]
        0x01001f72:    0912        ..      LSRS     r2,r2,#4
        0x01001f74:    0112        ..      LSLS     r2,r2,#4
        0x01001f76:    4302        .C      ORRS     r2,r2,r0
        0x01001f78:    4611        .F      MOV      r1,r2
        0x01001f7a:    4a37        7J      LDR      r2,[pc,#220] ; [0x1002058] = 0xf8540
        0x01001f7c:    6211        .b      STR      r1,[r2,#0x20]
        0x01001f7e:    4770        pG      BX       lr
    SYSCTRL_HCLKConfig
        0x01001f80:    b570        p.      PUSH     {r4-r6,lr}
        0x01001f82:    4604        .F      MOV      r4,r0
        0x01001f84:    2c00        .,      CMP      r4,#0
        0x01001f86:    d00a        ..      BEQ      0x1001f9e ; SYSCTRL_HCLKConfig + 30
        0x01001f88:    2c02        .,      CMP      r4,#2
        0x01001f8a:    d008        ..      BEQ      0x1001f9e ; SYSCTRL_HCLKConfig + 30
        0x01001f8c:    2c06        .,      CMP      r4,#6
        0x01001f8e:    d006        ..      BEQ      0x1001f9e ; SYSCTRL_HCLKConfig + 30
        0x01001f90:    2c0e        .,      CMP      r4,#0xe
        0x01001f92:    d004        ..      BEQ      0x1001f9e ; SYSCTRL_HCLKConfig + 30
        0x01001f94:    4a34        4J      LDR      r2,[pc,#208] ; [0x1002068] = 0x1007750
        0x01001f96:    211f        .!      MOVS     r1,#0x1f
        0x01001f98:    a024        $.      ADR      r0,{pc}+0x94 ; 0x100202c
        0x01001f9a:    f7fefc35    ..5.    BL       _assert_handler ; 0x1000808
        0x01001f9e:    2c00        .,      CMP      r4,#0
        0x01001fa0:    d109        ..      BNE      0x1001fb6 ; SYSCTRL_HCLKConfig + 54
        0x01001fa2:    4d32        2M      LDR      r5,[pc,#200] ; [0x100206c] = 0x1001f63
        0x01001fa4:    4629        )F      MOV      r1,r5
        0x01001fa6:    3140        @1      ADDS     r1,r1,#0x40
        0x01001fa8:    4628        (F      MOV      r0,r5
        0x01001faa:    4a31        1J      LDR      r2,[pc,#196] ; [0x1002070] = 0x4405
        0x01001fac:    4790        .G      BLX      r2
        0x01001fae:    4620         F      MOV      r0,r4
        0x01001fb0:    f7ffffd7    ....    BL       HCLKConfig_Div_None ; 0x1001f62
        0x01001fb4:    e008        ..      B        0x1001fc8 ; SYSCTRL_HCLKConfig + 72
        0x01001fb6:    4928        (I      LDR      r1,[pc,#160] ; [0x1002058] = 0xf8540
        0x01001fb8:    6a09        .j      LDR      r1,[r1,#0x20]
        0x01001fba:    0909        ..      LSRS     r1,r1,#4
        0x01001fbc:    0109        ..      LSLS     r1,r1,#4
        0x01001fbe:    4321        !C      ORRS     r1,r1,r4
        0x01001fc0:    4608        .F      MOV      r0,r1
        0x01001fc2:    4925        %I      LDR      r1,[pc,#148] ; [0x1002058] = 0xf8540
        0x01001fc4:    6208        .b      STR      r0,[r1,#0x20]
        0x01001fc6:    bf00        ..      NOP      
        0x01001fc8:    bd70        p.      POP      {r4-r6,pc}
    SYSCTRL_GetClocksFreq
        0x01001fca:    b510        ..      PUSH     {r4,lr}
        0x01001fcc:    4604        .F      MOV      r4,r0
        0x01001fce:    4822        "H      LDR      r0,[pc,#136] ; [0x1002058] = 0xf8540
        0x01001fd0:    6a00        .j      LDR      r0,[r0,#0x20]
        0x01001fd2:    0700        ..      LSLS     r0,r0,#28
        0x01001fd4:    0f00        ..      LSRS     r0,r0,#28
        0x01001fd6:    1c81        ..      ADDS     r1,r0,#2
        0x01001fd8:    4826        &H      LDR      r0,[pc,#152] ; [0x1002074] = 0xb71b000
        0x01001fda:    f004fb05    ....    BL       __aeabi_idiv ; 0x10065e8
        0x01001fde:    6020         `      STR      r0,[r4,#0]
        0x01001fe0:    bd10        ..      POP      {r4,pc}
    SYSCTRL_EnableDpllClk
        0x01001fe2:    b510        ..      PUSH     {r4,lr}
        0x01001fe4:    200d        .       MOVS     r0,#0xd
        0x01001fe6:    491c        .I      LDR      r1,[pc,#112] ; [0x1002058] = 0xf8540
        0x01001fe8:    6ac9        .j      LDR      r1,[r1,#0x2c]
        0x01001fea:    2201        ."      MOVS     r2,#1
        0x01001fec:    4082        .@      LSLS     r2,r2,r0
        0x01001fee:    4391        .C      BICS     r1,r1,r2
        0x01001ff0:    4a19        .J      LDR      r2,[pc,#100] ; [0x1002058] = 0xf8540
        0x01001ff2:    62d1        .b      STR      r1,[r2,#0x2c]
        0x01001ff4:    bf00        ..      NOP      
        0x01001ff6:    2094        .       MOVS     r0,#0x94
        0x01001ff8:    4917        .I      LDR      r1,[pc,#92] ; [0x1002058] = 0xf8540
        0x01001ffa:    3920         9      SUBS     r1,r1,#0x20
        0x01001ffc:    7708        .w      STRB     r0,[r1,#0x1c]
        0x01001ffe:    20ff        .       MOVS     r0,#0xff
        0x01002000:    30f5        .0      ADDS     r0,r0,#0xf5
        0x01002002:    f004fdd9    ....    BL       $Ven$TT$L$$delay ; 0x1006bb8
        0x01002006:    207f        .       MOVS     r0,#0x7f
        0x01002008:    491b        .I      LDR      r1,[pc,#108] ; [0x1002078] = 0xc4aa0
        0x0100200a:    7448        Ht      STRB     r0,[r1,#0x11]
        0x0100200c:    20ff        .       MOVS     r0,#0xff
        0x0100200e:    7488        .t      STRB     r0,[r1,#0x12]
        0x01002010:    74c8        .t      STRB     r0,[r1,#0x13]
        0x01002012:    20b1        .       MOVS     r0,#0xb1
        0x01002014:    4919        .I      LDR      r1,[pc,#100] ; [0x100207c] = 0xc40c0
        0x01002016:    70c8        .p      STRB     r0,[r1,#3]
        0x01002018:    204a        J       MOVS     r0,#0x4a
        0x0100201a:    7108        .q      STRB     r0,[r1,#4]
        0x0100201c:    20ff        .       MOVS     r0,#0xff
        0x0100201e:    4918        .I      LDR      r1,[pc,#96] ; [0x1002080] = 0xc8900
        0x01002020:    7148        Hq      STRB     r0,[r1,#5]
        0x01002022:    bd10        ..      POP      {r4,pc}
    $d
        0x01002024:    0007fffe    ....    DCD    524286
        0x01002028:    01007723    #w..    DCD    16807715
        0x0100202c:    2e5c2e2e    ..\.    DCD    777793070
        0x01002030:    61685c2e    .\ha    DCD    1634229294
        0x01002034:    61776472    rdwa    DCD    1635214450
        0x01002038:    4c5c6572    re\L    DCD    1281123698
        0x0100203c:    61726269    ibra    DCD    1634886249
        0x01002040:    72656972    rier    DCD    1919248754
        0x01002044:    6b64735c    \sdk    DCD    1801745244
        0x01002048:    5f63795c    \yc_    DCD    1600354652
        0x0100204c:    63737973    sysc    DCD    1668512115
        0x01002050:    2e6c7274    trl.    DCD    778859124
        0x01002054:    00000063    c...    DCD    99
        0x01002058:    000f8540    @...    DCD    1017152
        0x0100205c:    0100773d    =w..    DCD    16807741
        0x01002060:    000f8400    ....    DCD    1016832
        0x01002064:    000f8800    ....    DCD    1017856
        0x01002068:    01007750    Pw..    DCD    16807760
        0x0100206c:    01001f63    c...    DCD    16785251
        0x01002070:    00004405    .D..    DCD    17413
        0x01002074:    0b71b000    ..q.    DCD    192000000
        0x01002078:    000c4aa0    .J..    DCD    805536
        0x0100207c:    000c40c0    .@..    DCD    803008
        0x01002080:    000c8900    ....    DCD    821504
    $t
    .text
    delay_us
        0x01002084:    b510        ..      PUSH     {r4,lr}
        0x01002086:    4604        .F      MOV      r4,r0
        0x01002088:    4620         F      MOV      r0,r4
        0x0100208a:    49bb        .I      LDR      r1,[pc,#748] ; [0x1002378] = 0x4239
        0x0100208c:    4788        .G      BLX      r1
        0x0100208e:    bd10        ..      POP      {r4,pc}
    delay_ms
        0x01002090:    b510        ..      PUSH     {r4,lr}
        0x01002092:    4604        .F      MOV      r4,r0
        0x01002094:    4620         F      MOV      r0,r4
        0x01002096:    49b8        .I      LDR      r1,[pc,#736] ; [0x1002378] = 0x4239
        0x01002098:    3124        $1      ADDS     r1,r1,#0x24
        0x0100209a:    4788        .G      BLX      r1
        0x0100209c:    bd10        ..      POP      {r4,pc}
    TIM_Cmd
        0x0100209e:    b570        p.      PUSH     {r4-r6,lr}
        0x010020a0:    4604        .F      MOV      r4,r0
        0x010020a2:    460d        .F      MOV      r5,r1
        0x010020a4:    2c09        .,      CMP      r4,#9
        0x010020a6:    db04        ..      BLT      0x10020b2 ; TIM_Cmd + 20
        0x010020a8:    4ab4        .J      LDR      r2,[pc,#720] ; [0x100237c] = 0x100776c
        0x010020aa:    2121        !!      MOVS     r1,#0x21
        0x010020ac:    a0b4        ..      ADR      r0,{pc}+0x2d4 ; 0x1002380
        0x010020ae:    f7fefbab    ....    BL       _assert_handler ; 0x1000808
        0x010020b2:    2d01        .-      CMP      r5,#1
        0x010020b4:    d111        ..      BNE      0x10020da ; TIM_Cmd + 60
        0x010020b6:    2c08        .,      CMP      r4,#8
        0x010020b8:    da08        ..      BGE      0x10020cc ; TIM_Cmd + 46
        0x010020ba:    48bb        .H      LDR      r0,[pc,#748] ; [0x10023a8] = 0xf0c40
        0x010020bc:    6880        .h      LDR      r0,[r0,#8]
        0x010020be:    00a2        ..      LSLS     r2,r4,#2
        0x010020c0:    2101        .!      MOVS     r1,#1
        0x010020c2:    4091        .@      LSLS     r1,r1,r2
        0x010020c4:    4308        .C      ORRS     r0,r0,r1
        0x010020c6:    49b8        .I      LDR      r1,[pc,#736] ; [0x10023a8] = 0xf0c40
        0x010020c8:    6088        .`      STR      r0,[r1,#8]
        0x010020ca:    e017        ..      B        0x10020fc ; TIM_Cmd + 94
        0x010020cc:    48b6        .H      LDR      r0,[pc,#728] ; [0x10023a8] = 0xf0c40
        0x010020ce:    68c0        .h      LDR      r0,[r0,#0xc]
        0x010020d0:    2101        .!      MOVS     r1,#1
        0x010020d2:    4308        .C      ORRS     r0,r0,r1
        0x010020d4:    49b4        .I      LDR      r1,[pc,#720] ; [0x10023a8] = 0xf0c40
        0x010020d6:    60c8        .`      STR      r0,[r1,#0xc]
        0x010020d8:    e010        ..      B        0x10020fc ; TIM_Cmd + 94
        0x010020da:    2c08        .,      CMP      r4,#8
        0x010020dc:    da08        ..      BGE      0x10020f0 ; TIM_Cmd + 82
        0x010020de:    48b2        .H      LDR      r0,[pc,#712] ; [0x10023a8] = 0xf0c40
        0x010020e0:    6880        .h      LDR      r0,[r0,#8]
        0x010020e2:    00a2        ..      LSLS     r2,r4,#2
        0x010020e4:    2101        .!      MOVS     r1,#1
        0x010020e6:    4091        .@      LSLS     r1,r1,r2
        0x010020e8:    4388        .C      BICS     r0,r0,r1
        0x010020ea:    49af        .I      LDR      r1,[pc,#700] ; [0x10023a8] = 0xf0c40
        0x010020ec:    6088        .`      STR      r0,[r1,#8]
        0x010020ee:    e005        ..      B        0x10020fc ; TIM_Cmd + 94
        0x010020f0:    48ad        .H      LDR      r0,[pc,#692] ; [0x10023a8] = 0xf0c40
        0x010020f2:    68c0        .h      LDR      r0,[r0,#0xc]
        0x010020f4:    0840        @.      LSRS     r0,r0,#1
        0x010020f6:    0040        @.      LSLS     r0,r0,#1
        0x010020f8:    49ab        .I      LDR      r1,[pc,#684] ; [0x10023a8] = 0xf0c40
        0x010020fa:    60c8        .`      STR      r0,[r1,#0xc]
        0x010020fc:    bd70        p.      POP      {r4-r6,pc}
    TIM_Init
        0x010020fe:    b510        ..      PUSH     {r4,lr}
        0x01002100:    4604        .F      MOV      r4,r0
        0x01002102:    7820         x      LDRB     r0,[r4,#0]
        0x01002104:    2809        .(      CMP      r0,#9
        0x01002106:    db04        ..      BLT      0x1002112 ; TIM_Init + 20
        0x01002108:    4aa8        .J      LDR      r2,[pc,#672] ; [0x10023ac] = 0x1007763
        0x0100210a:    2110        .!      MOVS     r1,#0x10
        0x0100210c:    a09c        ..      ADR      r0,{pc}+0x274 ; 0x1002380
        0x0100210e:    f7fefb7b    ..{.    BL       _assert_handler ; 0x1000808
        0x01002112:    7820         x      LDRB     r0,[r4,#0]
        0x01002114:    2100        .!      MOVS     r1,#0
        0x01002116:    f7ffffc2    ....    BL       TIM_Cmd ; 0x100209e
        0x0100211a:    7821        !x      LDRB     r1,[r4,#0]
        0x0100211c:    00c9        ..      LSLS     r1,r1,#3
        0x0100211e:    4aa2        .J      LDR      r2,[pc,#648] ; [0x10023a8] = 0xf0c40
        0x01002120:    3a40        @:      SUBS     r2,r2,#0x40
        0x01002122:    1889        ..      ADDS     r1,r1,r2
        0x01002124:    6860        `h      LDR      r0,[r4,#4]
        0x01002126:    6008        .`      STR      r0,[r1,#0]
        0x01002128:    7820         x      LDRB     r0,[r4,#0]
        0x0100212a:    2808        .(      CMP      r0,#8
        0x0100212c:    da09        ..      BGE      0x1002142 ; TIM_Init + 68
        0x0100212e:    489e        .H      LDR      r0,[pc,#632] ; [0x10023a8] = 0xf0c40
        0x01002130:    6880        .h      LDR      r0,[r0,#8]
        0x01002132:    7821        !x      LDRB     r1,[r4,#0]
        0x01002134:    008a        ..      LSLS     r2,r1,#2
        0x01002136:    210c        .!      MOVS     r1,#0xc
        0x01002138:    4091        .@      LSLS     r1,r1,r2
        0x0100213a:    4308        .C      ORRS     r0,r0,r1
        0x0100213c:    499a        .I      LDR      r1,[pc,#616] ; [0x10023a8] = 0xf0c40
        0x0100213e:    6088        .`      STR      r0,[r1,#8]
        0x01002140:    e005        ..      B        0x100214e ; TIM_Init + 80
        0x01002142:    4899        .H      LDR      r0,[pc,#612] ; [0x10023a8] = 0xf0c40
        0x01002144:    68c0        .h      LDR      r0,[r0,#0xc]
        0x01002146:    210c        .!      MOVS     r1,#0xc
        0x01002148:    4308        .C      ORRS     r0,r0,r1
        0x0100214a:    4997        .I      LDR      r1,[pc,#604] ; [0x10023a8] = 0xf0c40
        0x0100214c:    60c8        .`      STR      r0,[r1,#0xc]
        0x0100214e:    bd10        ..      POP      {r4,pc}
    TIM_DeInit
        0x01002150:    2004        .       MOVS     r0,#4
        0x01002152:    4997        .I      LDR      r1,[pc,#604] ; [0x10023b0] = 0xf8540
        0x01002154:    6ac9        .j      LDR      r1,[r1,#0x2c]
        0x01002156:    2201        ."      MOVS     r2,#1
        0x01002158:    4082        .@      LSLS     r2,r2,r0
        0x0100215a:    4311        .C      ORRS     r1,r1,r2
        0x0100215c:    4a94        .J      LDR      r2,[pc,#592] ; [0x10023b0] = 0xf8540
        0x0100215e:    62d1        .b      STR      r1,[r2,#0x2c]
        0x01002160:    bf00        ..      NOP      
        0x01002162:    4770        pG      BX       lr
    TIM_ModeConfig
        0x01002164:    b570        p.      PUSH     {r4-r6,lr}
        0x01002166:    4604        .F      MOV      r4,r0
        0x01002168:    460d        .F      MOV      r5,r1
        0x0100216a:    2c09        .,      CMP      r4,#9
        0x0100216c:    db04        ..      BLT      0x1002178 ; TIM_ModeConfig + 20
        0x0100216e:    4a91        .J      LDR      r2,[pc,#580] ; [0x10023b4] = 0x1007774
        0x01002170:    2135        5!      MOVS     r1,#0x35
        0x01002172:    a083        ..      ADR      r0,{pc}+0x20e ; 0x1002380
        0x01002174:    f7fefb48    ..H.    BL       _assert_handler ; 0x1000808
        0x01002178:    2d01        .-      CMP      r5,#1
        0x0100217a:    d006        ..      BEQ      0x100218a ; TIM_ModeConfig + 38
        0x0100217c:    2d00        .-      CMP      r5,#0
        0x0100217e:    d004        ..      BEQ      0x100218a ; TIM_ModeConfig + 38
        0x01002180:    4a8c        .J      LDR      r2,[pc,#560] ; [0x10023b4] = 0x1007774
        0x01002182:    2136        6!      MOVS     r1,#0x36
        0x01002184:    a07e        ~.      ADR      r0,{pc}+0x1fc ; 0x1002380
        0x01002186:    f7fefb3f    ..?.    BL       _assert_handler ; 0x1000808
        0x0100218a:    2d01        .-      CMP      r5,#1
        0x0100218c:    d111        ..      BNE      0x10021b2 ; TIM_ModeConfig + 78
        0x0100218e:    2c08        .,      CMP      r4,#8
        0x01002190:    da08        ..      BGE      0x10021a4 ; TIM_ModeConfig + 64
        0x01002192:    4885        .H      LDR      r0,[pc,#532] ; [0x10023a8] = 0xf0c40
        0x01002194:    6880        .h      LDR      r0,[r0,#8]
        0x01002196:    00a2        ..      LSLS     r2,r4,#2
        0x01002198:    2104        .!      MOVS     r1,#4
        0x0100219a:    4091        .@      LSLS     r1,r1,r2
        0x0100219c:    4308        .C      ORRS     r0,r0,r1
        0x0100219e:    4982        .I      LDR      r1,[pc,#520] ; [0x10023a8] = 0xf0c40
        0x010021a0:    6088        .`      STR      r0,[r1,#8]
        0x010021a2:    e017        ..      B        0x10021d4 ; TIM_ModeConfig + 112
        0x010021a4:    4880        .H      LDR      r0,[pc,#512] ; [0x10023a8] = 0xf0c40
        0x010021a6:    68c0        .h      LDR      r0,[r0,#0xc]
        0x010021a8:    2104        .!      MOVS     r1,#4
        0x010021aa:    4308        .C      ORRS     r0,r0,r1
        0x010021ac:    497e        ~I      LDR      r1,[pc,#504] ; [0x10023a8] = 0xf0c40
        0x010021ae:    60c8        .`      STR      r0,[r1,#0xc]
        0x010021b0:    e010        ..      B        0x10021d4 ; TIM_ModeConfig + 112
        0x010021b2:    2c08        .,      CMP      r4,#8
        0x010021b4:    da08        ..      BGE      0x10021c8 ; TIM_ModeConfig + 100
        0x010021b6:    487c        |H      LDR      r0,[pc,#496] ; [0x10023a8] = 0xf0c40
        0x010021b8:    6880        .h      LDR      r0,[r0,#8]
        0x010021ba:    00a2        ..      LSLS     r2,r4,#2
        0x010021bc:    2104        .!      MOVS     r1,#4
        0x010021be:    4091        .@      LSLS     r1,r1,r2
        0x010021c0:    4388        .C      BICS     r0,r0,r1
        0x010021c2:    4979        yI      LDR      r1,[pc,#484] ; [0x10023a8] = 0xf0c40
        0x010021c4:    6088        .`      STR      r0,[r1,#8]
        0x010021c6:    e005        ..      B        0x10021d4 ; TIM_ModeConfig + 112
        0x010021c8:    4877        wH      LDR      r0,[pc,#476] ; [0x10023a8] = 0xf0c40
        0x010021ca:    68c0        .h      LDR      r0,[r0,#0xc]
        0x010021cc:    2104        .!      MOVS     r1,#4
        0x010021ce:    4388        .C      BICS     r0,r0,r1
        0x010021d0:    4975        uI      LDR      r1,[pc,#468] ; [0x10023a8] = 0xf0c40
        0x010021d2:    60c8        .`      STR      r0,[r1,#0xc]
        0x010021d4:    bd70        p.      POP      {r4-r6,pc}
    TIM_SetPeriod
        0x010021d6:    b570        p.      PUSH     {r4-r6,lr}
        0x010021d8:    4604        .F      MOV      r4,r0
        0x010021da:    460d        .F      MOV      r5,r1
        0x010021dc:    2c09        .,      CMP      r4,#9
        0x010021de:    db04        ..      BLT      0x10021ea ; TIM_SetPeriod + 20
        0x010021e0:    4a75        uJ      LDR      r2,[pc,#468] ; [0x10023b8] = 0x1007783
        0x010021e2:    214a        J!      MOVS     r1,#0x4a
        0x010021e4:    a066        f.      ADR      r0,{pc}+0x19c ; 0x1002380
        0x010021e6:    f7fefb0f    ....    BL       _assert_handler ; 0x1000808
        0x010021ea:    00e0        ..      LSLS     r0,r4,#3
        0x010021ec:    496e        nI      LDR      r1,[pc,#440] ; [0x10023a8] = 0xf0c40
        0x010021ee:    3940        @9      SUBS     r1,r1,#0x40
        0x010021f0:    1840        @.      ADDS     r0,r0,r1
        0x010021f2:    6005        .`      STR      r5,[r0,#0]
        0x010021f4:    bd70        p.      POP      {r4-r6,pc}
    TIM_PWMInit
        0x010021f6:    b510        ..      PUSH     {r4,lr}
        0x010021f8:    4604        .F      MOV      r4,r0
        0x010021fa:    7820         x      LDRB     r0,[r4,#0]
        0x010021fc:    2809        .(      CMP      r0,#9
        0x010021fe:    db04        ..      BLT      0x100220a ; TIM_PWMInit + 20
        0x01002200:    4a6e        nJ      LDR      r2,[pc,#440] ; [0x10023bc] = 0x1007791
        0x01002202:    2151        Q!      MOVS     r1,#0x51
        0x01002204:    a05e        ^.      ADR      r0,{pc}+0x17c ; 0x1002380
        0x01002206:    f7fefaff    ....    BL       _assert_handler ; 0x1000808
        0x0100220a:    7820         x      LDRB     r0,[r4,#0]
        0x0100220c:    2100        .!      MOVS     r1,#0
        0x0100220e:    f7ffff46    ..F.    BL       TIM_Cmd ; 0x100209e
        0x01002212:    7821        !x      LDRB     r1,[r4,#0]
        0x01002214:    00c9        ..      LSLS     r1,r1,#3
        0x01002216:    4a64        dJ      LDR      r2,[pc,#400] ; [0x10023a8] = 0xf0c40
        0x01002218:    3a40        @:      SUBS     r2,r2,#0x40
        0x0100221a:    1889        ..      ADDS     r1,r1,r2
        0x0100221c:    68a0        .h      LDR      r0,[r4,#8]
        0x0100221e:    6008        .`      STR      r0,[r1,#0]
        0x01002220:    7821        !x      LDRB     r1,[r4,#0]
        0x01002222:    00c9        ..      LSLS     r1,r1,#3
        0x01002224:    1889        ..      ADDS     r1,r1,r2
        0x01002226:    6860        `h      LDR      r0,[r4,#4]
        0x01002228:    6048        H`      STR      r0,[r1,#4]
        0x0100222a:    7b20         {      LDRB     r0,[r4,#0xc]
        0x0100222c:    2801        .(      CMP      r0,#1
        0x0100222e:    d113        ..      BNE      0x1002258 ; TIM_PWMInit + 98
        0x01002230:    7820         x      LDRB     r0,[r4,#0]
        0x01002232:    2808        .(      CMP      r0,#8
        0x01002234:    da09        ..      BGE      0x100224a ; TIM_PWMInit + 84
        0x01002236:    485c        \H      LDR      r0,[pc,#368] ; [0x10023a8] = 0xf0c40
        0x01002238:    6880        .h      LDR      r0,[r0,#8]
        0x0100223a:    7821        !x      LDRB     r1,[r4,#0]
        0x0100223c:    008a        ..      LSLS     r2,r1,#2
        0x0100223e:    2102        .!      MOVS     r1,#2
        0x01002240:    4091        .@      LSLS     r1,r1,r2
        0x01002242:    4308        .C      ORRS     r0,r0,r1
        0x01002244:    4958        XI      LDR      r1,[pc,#352] ; [0x10023a8] = 0xf0c40
        0x01002246:    6088        .`      STR      r0,[r1,#8]
        0x01002248:    e019        ..      B        0x100227e ; TIM_PWMInit + 136
        0x0100224a:    4857        WH      LDR      r0,[pc,#348] ; [0x10023a8] = 0xf0c40
        0x0100224c:    68c0        .h      LDR      r0,[r0,#0xc]
        0x0100224e:    2102        .!      MOVS     r1,#2
        0x01002250:    4308        .C      ORRS     r0,r0,r1
        0x01002252:    4955        UI      LDR      r1,[pc,#340] ; [0x10023a8] = 0xf0c40
        0x01002254:    60c8        .`      STR      r0,[r1,#0xc]
        0x01002256:    e012        ..      B        0x100227e ; TIM_PWMInit + 136
        0x01002258:    7820         x      LDRB     r0,[r4,#0]
        0x0100225a:    2808        .(      CMP      r0,#8
        0x0100225c:    da09        ..      BGE      0x1002272 ; TIM_PWMInit + 124
        0x0100225e:    4852        RH      LDR      r0,[pc,#328] ; [0x10023a8] = 0xf0c40
        0x01002260:    6880        .h      LDR      r0,[r0,#8]
        0x01002262:    7821        !x      LDRB     r1,[r4,#0]
        0x01002264:    008a        ..      LSLS     r2,r1,#2
        0x01002266:    2102        .!      MOVS     r1,#2
        0x01002268:    4091        .@      LSLS     r1,r1,r2
        0x0100226a:    4388        .C      BICS     r0,r0,r1
        0x0100226c:    494e        NI      LDR      r1,[pc,#312] ; [0x10023a8] = 0xf0c40
        0x0100226e:    6088        .`      STR      r0,[r1,#8]
        0x01002270:    e005        ..      B        0x100227e ; TIM_PWMInit + 136
        0x01002272:    484d        MH      LDR      r0,[pc,#308] ; [0x10023a8] = 0xf0c40
        0x01002274:    68c0        .h      LDR      r0,[r0,#0xc]
        0x01002276:    2102        .!      MOVS     r1,#2
        0x01002278:    4388        .C      BICS     r0,r0,r1
        0x0100227a:    494b        KI      LDR      r1,[pc,#300] ; [0x10023a8] = 0xf0c40
        0x0100227c:    60c8        .`      STR      r0,[r1,#0xc]
        0x0100227e:    7820         x      LDRB     r0,[r4,#0]
        0x01002280:    2808        .(      CMP      r0,#8
        0x01002282:    da09        ..      BGE      0x1002298 ; TIM_PWMInit + 162
        0x01002284:    4848        HH      LDR      r0,[pc,#288] ; [0x10023a8] = 0xf0c40
        0x01002286:    6880        .h      LDR      r0,[r0,#8]
        0x01002288:    7821        !x      LDRB     r1,[r4,#0]
        0x0100228a:    008a        ..      LSLS     r2,r1,#2
        0x0100228c:    2104        .!      MOVS     r1,#4
        0x0100228e:    4091        .@      LSLS     r1,r1,r2
        0x01002290:    4388        .C      BICS     r0,r0,r1
        0x01002292:    4945        EI      LDR      r1,[pc,#276] ; [0x10023a8] = 0xf0c40
        0x01002294:    6088        .`      STR      r0,[r1,#8]
        0x01002296:    e005        ..      B        0x10022a4 ; TIM_PWMInit + 174
        0x01002298:    4843        CH      LDR      r0,[pc,#268] ; [0x10023a8] = 0xf0c40
        0x0100229a:    68c0        .h      LDR      r0,[r0,#0xc]
        0x0100229c:    2104        .!      MOVS     r1,#4
        0x0100229e:    4388        .C      BICS     r0,r0,r1
        0x010022a0:    4941        AI      LDR      r1,[pc,#260] ; [0x10023a8] = 0xf0c40
        0x010022a2:    60c8        .`      STR      r0,[r1,#0xc]
        0x010022a4:    bd10        ..      POP      {r4,pc}
    TIM_SetPWMPeriod
        0x010022a6:    b570        p.      PUSH     {r4-r6,lr}
        0x010022a8:    4604        .F      MOV      r4,r0
        0x010022aa:    460d        .F      MOV      r5,r1
        0x010022ac:    4616        .F      MOV      r6,r2
        0x010022ae:    2c09        .,      CMP      r4,#9
        0x010022b0:    db04        ..      BLT      0x10022bc ; TIM_SetPWMPeriod + 22
        0x010022b2:    4a43        CJ      LDR      r2,[pc,#268] ; [0x10023c0] = 0x100779d
        0x010022b4:    216c        l!      MOVS     r1,#0x6c
        0x010022b6:    a032        2.      ADR      r0,{pc}+0xca ; 0x1002380
        0x010022b8:    f7fefaa6    ....    BL       _assert_handler ; 0x1000808
        0x010022bc:    00e0        ..      LSLS     r0,r4,#3
        0x010022be:    493a        :I      LDR      r1,[pc,#232] ; [0x10023a8] = 0xf0c40
        0x010022c0:    3940        @9      SUBS     r1,r1,#0x40
        0x010022c2:    1840        @.      ADDS     r0,r0,r1
        0x010022c4:    6006        .`      STR      r6,[r0,#0]
        0x010022c6:    00e0        ..      LSLS     r0,r4,#3
        0x010022c8:    1840        @.      ADDS     r0,r0,r1
        0x010022ca:    6045        E`      STR      r5,[r0,#4]
        0x010022cc:    bd70        p.      POP      {r4-r6,pc}
    TIM_PWMDifferential
        0x010022ce:    b5f8        ..      PUSH     {r3-r7,lr}
        0x010022d0:    4604        .F      MOV      r4,r0
        0x010022d2:    460d        .F      MOV      r5,r1
        0x010022d4:    4616        .F      MOV      r6,r2
        0x010022d6:    461f        .F      MOV      r7,r3
        0x010022d8:    2c09        .,      CMP      r4,#9
        0x010022da:    db04        ..      BLT      0x10022e6 ; TIM_PWMDifferential + 24
        0x010022dc:    4a39        9J      LDR      r2,[pc,#228] ; [0x10023c4] = 0x10077ae
        0x010022de:    2174        t!      MOVS     r1,#0x74
        0x010022e0:    a027        '.      ADR      r0,{pc}+0xa0 ; 0x1002380
        0x010022e2:    f7fefa91    ....    BL       _assert_handler ; 0x1000808
        0x010022e6:    2d09        .-      CMP      r5,#9
        0x010022e8:    db04        ..      BLT      0x10022f4 ; TIM_PWMDifferential + 38
        0x010022ea:    4a36        6J      LDR      r2,[pc,#216] ; [0x10023c4] = 0x10077ae
        0x010022ec:    2175        u!      MOVS     r1,#0x75
        0x010022ee:    a024        $.      ADR      r0,{pc}+0x92 ; 0x1002380
        0x010022f0:    f7fefa8a    ....    BL       _assert_handler ; 0x1000808
        0x010022f4:    00a9        ..      LSLS     r1,r5,#2
        0x010022f6:    2001        .       MOVS     r0,#1
        0x010022f8:    4088        .@      LSLS     r0,r0,r1
        0x010022fa:    00a2        ..      LSLS     r2,r4,#2
        0x010022fc:    2101        .!      MOVS     r1,#1
        0x010022fe:    4091        .@      LSLS     r1,r1,r2
        0x01002300:    4308        .C      ORRS     r0,r0,r1
        0x01002302:    4929        )I      LDR      r1,[pc,#164] ; [0x10023a8] = 0xf0c40
        0x01002304:    6889        .h      LDR      r1,[r1,#8]
        0x01002306:    4381        .C      BICS     r1,r1,r0
        0x01002308:    4827        'H      LDR      r0,[pc,#156] ; [0x10023a8] = 0xf0c40
        0x0100230a:    6081        .`      STR      r1,[r0,#8]
        0x0100230c:    00e0        ..      LSLS     r0,r4,#3
        0x0100230e:    4926        &I      LDR      r1,[pc,#152] ; [0x10023a8] = 0xf0c40
        0x01002310:    3940        @9      SUBS     r1,r1,#0x40
        0x01002312:    1840        @.      ADDS     r0,r0,r1
        0x01002314:    6007        .`      STR      r7,[r0,#0]
        0x01002316:    00e0        ..      LSLS     r0,r4,#3
        0x01002318:    1840        @.      ADDS     r0,r0,r1
        0x0100231a:    6046        F`      STR      r6,[r0,#4]
        0x0100231c:    00e8        ..      LSLS     r0,r5,#3
        0x0100231e:    1840        @.      ADDS     r0,r0,r1
        0x01002320:    6006        .`      STR      r6,[r0,#0]
        0x01002322:    00e8        ..      LSLS     r0,r5,#3
        0x01002324:    1840        @.      ADDS     r0,r0,r1
        0x01002326:    6047        G`      STR      r7,[r0,#4]
        0x01002328:    481f        .H      LDR      r0,[pc,#124] ; [0x10023a8] = 0xf0c40
        0x0100232a:    6880        .h      LDR      r0,[r0,#8]
        0x0100232c:    00a1        ..      LSLS     r1,r4,#2
        0x0100232e:    1c49        I.      ADDS     r1,r1,#1
        0x01002330:    2201        ."      MOVS     r2,#1
        0x01002332:    408a        .@      LSLS     r2,r2,r1
        0x01002334:    4390        .C      BICS     r0,r0,r2
        0x01002336:    491c        .I      LDR      r1,[pc,#112] ; [0x10023a8] = 0xf0c40
        0x01002338:    6088        .`      STR      r0,[r1,#8]
        0x0100233a:    4608        .F      MOV      r0,r1
        0x0100233c:    6880        .h      LDR      r0,[r0,#8]
        0x0100233e:    9000        ..      STR      r0,[sp,#0]
        0x01002340:    00a9        ..      LSLS     r1,r5,#2
        0x01002342:    2003        .       MOVS     r0,#3
        0x01002344:    4088        .@      LSLS     r0,r0,r1
        0x01002346:    00a2        ..      LSLS     r2,r4,#2
        0x01002348:    2101        .!      MOVS     r1,#1
        0x0100234a:    4091        .@      LSLS     r1,r1,r2
        0x0100234c:    4308        .C      ORRS     r0,r0,r1
        0x0100234e:    9900        ..      LDR      r1,[sp,#0]
        0x01002350:    4308        .C      ORRS     r0,r0,r1
        0x01002352:    9000        ..      STR      r0,[sp,#0]
        0x01002354:    4814        .H      LDR      r0,[pc,#80] ; [0x10023a8] = 0xf0c40
        0x01002356:    6880        .h      LDR      r0,[r0,#8]
        0x01002358:    00a9        ..      LSLS     r1,r5,#2
        0x0100235a:    1c49        I.      ADDS     r1,r1,#1
        0x0100235c:    2201        ."      MOVS     r2,#1
        0x0100235e:    408a        .@      LSLS     r2,r2,r1
        0x01002360:    4310        .C      ORRS     r0,r0,r2
        0x01002362:    4911        .I      LDR      r1,[pc,#68] ; [0x10023a8] = 0xf0c40
        0x01002364:    6088        .`      STR      r0,[r1,#8]
        0x01002366:    4631        1F      MOV      r1,r6
        0x01002368:    3908        .9      SUBS     r1,r1,#8
        0x0100236a:    0888        ..      LSRS     r0,r1,#2
        0x0100236c:    f004fc24    ..$.    BL       $Ven$TT$L$$delay ; 0x1006bb8
        0x01002370:    490d        .I      LDR      r1,[pc,#52] ; [0x10023a8] = 0xf0c40
        0x01002372:    9800        ..      LDR      r0,[sp,#0]
        0x01002374:    6088        .`      STR      r0,[r1,#8]
        0x01002376:    bdf8        ..      POP      {r3-r7,pc}
    $d
        0x01002378:    00004239    9B..    DCD    16953
        0x0100237c:    0100776c    lw..    DCD    16807788
        0x01002380:    2e5c2e2e    ..\.    DCD    777793070
        0x01002384:    61685c2e    .\ha    DCD    1634229294
        0x01002388:    61776472    rdwa    DCD    1635214450
        0x0100238c:    4c5c6572    re\L    DCD    1281123698
        0x01002390:    61726269    ibra    DCD    1634886249
        0x01002394:    72656972    rier    DCD    1919248754
        0x01002398:    6b64735c    \sdk    DCD    1801745244
        0x0100239c:    5f63795c    \yc_    DCD    1600354652
        0x010023a0:    656d6974    time    DCD    1701669236
        0x010023a4:    00632e72    r.c.    DCD    6499954
        0x010023a8:    000f0c40    @...    DCD    986176
        0x010023ac:    01007763    cw..    DCD    16807779
        0x010023b0:    000f8540    @...    DCD    1017152
        0x010023b4:    01007774    tw..    DCD    16807796
        0x010023b8:    01007783    .w..    DCD    16807811
        0x010023bc:    01007791    .w..    DCD    16807825
        0x010023c0:    0100779d    .w..    DCD    16807837
        0x010023c4:    010077ae    .w..    DCD    16807854
    $t
    .text
    SPI_Init
        0x010023c8:    b570        p.      PUSH     {r4-r6,lr}
        0x010023ca:    4605        .F      MOV      r5,r0
        0x010023cc:    460c        .F      MOV      r4,r1
        0x010023ce:    2600        .&      MOVS     r6,#0
        0x010023d0:    7820         x      LDRB     r0,[r4,#0]
        0x010023d2:    2800        .(      CMP      r0,#0
        0x010023d4:    d007        ..      BEQ      0x10023e6 ; SPI_Init + 30
        0x010023d6:    7820         x      LDRB     r0,[r4,#0]
        0x010023d8:    2808        .(      CMP      r0,#8
        0x010023da:    d004        ..      BEQ      0x10023e6 ; SPI_Init + 30
        0x010023dc:    4a58        XJ      LDR      r2,[pc,#352] ; [0x1002540] = 0x10077c2
        0x010023de:    210f        .!      MOVS     r1,#0xf
        0x010023e0:    a058        X.      ADR      r0,{pc}+0x164 ; 0x1002544
        0x010023e2:    f7fefa11    ....    BL       _assert_handler ; 0x1000808
        0x010023e6:    78e0        .x      LDRB     r0,[r4,#3]
        0x010023e8:    2800        .(      CMP      r0,#0
        0x010023ea:    d019        ..      BEQ      0x1002420 ; SPI_Init + 88
        0x010023ec:    78e0        .x      LDRB     r0,[r4,#3]
        0x010023ee:    2801        .(      CMP      r0,#1
        0x010023f0:    d016        ..      BEQ      0x1002420 ; SPI_Init + 88
        0x010023f2:    78e0        .x      LDRB     r0,[r4,#3]
        0x010023f4:    2802        .(      CMP      r0,#2
        0x010023f6:    d013        ..      BEQ      0x1002420 ; SPI_Init + 88
        0x010023f8:    78e0        .x      LDRB     r0,[r4,#3]
        0x010023fa:    2803        .(      CMP      r0,#3
        0x010023fc:    d010        ..      BEQ      0x1002420 ; SPI_Init + 88
        0x010023fe:    78e0        .x      LDRB     r0,[r4,#3]
        0x01002400:    2804        .(      CMP      r0,#4
        0x01002402:    d00d        ..      BEQ      0x1002420 ; SPI_Init + 88
        0x01002404:    78e0        .x      LDRB     r0,[r4,#3]
        0x01002406:    2805        .(      CMP      r0,#5
        0x01002408:    d00a        ..      BEQ      0x1002420 ; SPI_Init + 88
        0x0100240a:    78e0        .x      LDRB     r0,[r4,#3]
        0x0100240c:    2806        .(      CMP      r0,#6
        0x0100240e:    d007        ..      BEQ      0x1002420 ; SPI_Init + 88
        0x01002410:    78e0        .x      LDRB     r0,[r4,#3]
        0x01002412:    2807        .(      CMP      r0,#7
        0x01002414:    d004        ..      BEQ      0x1002420 ; SPI_Init + 88
        0x01002416:    4a4a        JJ      LDR      r2,[pc,#296] ; [0x1002540] = 0x10077c2
        0x01002418:    2110        .!      MOVS     r1,#0x10
        0x0100241a:    a04a        J.      ADR      r0,{pc}+0x12a ; 0x1002544
        0x0100241c:    f7fef9f4    ....    BL       _assert_handler ; 0x1000808
        0x01002420:    7860        `x      LDRB     r0,[r4,#1]
        0x01002422:    2820         (      CMP      r0,#0x20
        0x01002424:    d007        ..      BEQ      0x1002436 ; SPI_Init + 110
        0x01002426:    7860        `x      LDRB     r0,[r4,#1]
        0x01002428:    2800        .(      CMP      r0,#0
        0x0100242a:    d004        ..      BEQ      0x1002436 ; SPI_Init + 110
        0x0100242c:    4a44        DJ      LDR      r2,[pc,#272] ; [0x1002540] = 0x10077c2
        0x0100242e:    2111        .!      MOVS     r1,#0x11
        0x01002430:    a044        D.      ADR      r0,{pc}+0x114 ; 0x1002544
        0x01002432:    f7fef9e9    ....    BL       _assert_handler ; 0x1000808
        0x01002436:    78a0        .x      LDRB     r0,[r4,#2]
        0x01002438:    2800        .(      CMP      r0,#0
        0x0100243a:    d007        ..      BEQ      0x100244c ; SPI_Init + 132
        0x0100243c:    78a0        .x      LDRB     r0,[r4,#2]
        0x0100243e:    2810        .(      CMP      r0,#0x10
        0x01002440:    d004        ..      BEQ      0x100244c ; SPI_Init + 132
        0x01002442:    4a3f        ?J      LDR      r2,[pc,#252] ; [0x1002540] = 0x10077c2
        0x01002444:    2112        .!      MOVS     r1,#0x12
        0x01002446:    a03f        ?.      ADR      r0,{pc}+0xfe ; 0x1002544
        0x01002448:    f7fef9de    ....    BL       _assert_handler ; 0x1000808
        0x0100244c:    7920         y      LDRB     r0,[r4,#4]
        0x0100244e:    2800        .(      CMP      r0,#0
        0x01002450:    dd02        ..      BLE      0x1002458 ; SPI_Init + 144
        0x01002452:    7920         y      LDRB     r0,[r4,#4]
        0x01002454:    287f        .(      CMP      r0,#0x7f
        0x01002456:    db04        ..      BLT      0x1002462 ; SPI_Init + 154
        0x01002458:    4a39        9J      LDR      r2,[pc,#228] ; [0x1002540] = 0x10077c2
        0x0100245a:    2113        .!      MOVS     r1,#0x13
        0x0100245c:    a039        9.      ADR      r0,{pc}+0xe8 ; 0x1002544
        0x0100245e:    f7fef9d3    ....    BL       _assert_handler ; 0x1000808
        0x01002462:    7820         x      LDRB     r0,[r4,#0]
        0x01002464:    78e1        .x      LDRB     r1,[r4,#3]
        0x01002466:    4308        .C      ORRS     r0,r0,r1
        0x01002468:    7861        ax      LDRB     r1,[r4,#1]
        0x0100246a:    4308        .C      ORRS     r0,r0,r1
        0x0100246c:    78a1        .x      LDRB     r1,[r4,#2]
        0x0100246e:    4308        .C      ORRS     r0,r0,r1
        0x01002470:    7921        !y      LDRB     r1,[r4,#4]
        0x01002472:    0209        ..      LSLS     r1,r1,#8
        0x01002474:    4308        .C      ORRS     r0,r0,r1
        0x01002476:    4606        .F      MOV      r6,r0
        0x01002478:    2d01        .-      CMP      r5,#1
        0x0100247a:    d002        ..      BEQ      0x1002482 ; SPI_Init + 186
        0x0100247c:    2d02        .-      CMP      r5,#2
        0x0100247e:    d106        ..      BNE      0x100248e ; SPI_Init + 198
        0x01002480:    e002        ..      B        0x1002488 ; SPI_Init + 192
        0x01002482:    483a        :H      LDR      r0,[pc,#232] ; [0x100256c] = 0xf8900
        0x01002484:    61c6        .a      STR      r6,[r0,#0x1c]
        0x01002486:    e002        ..      B        0x100248e ; SPI_Init + 198
        0x01002488:    4839        9H      LDR      r0,[pc,#228] ; [0x1002570] = 0xf8a00
        0x0100248a:    61c6        .a      STR      r6,[r0,#0x1c]
        0x0100248c:    bf00        ..      NOP      
        0x0100248e:    bf00        ..      NOP      
        0x01002490:    bd70        p.      POP      {r4-r6,pc}
    SPI_SendData
        0x01002492:    b518        ..      PUSH     {r3,r4,lr}
        0x01002494:    9100        ..      STR      r1,[sp,#0]
        0x01002496:    466a        jF      MOV      r2,sp
        0x01002498:    0203        ..      LSLS     r3,r0,#8
        0x0100249a:    4c36        6L      LDR      r4,[pc,#216] ; [0x1002574] = 0xf8800
        0x0100249c:    191b        ..      ADDS     r3,r3,r4
        0x0100249e:    601a        .`      STR      r2,[r3,#0]
        0x010024a0:    2201        ."      MOVS     r2,#1
        0x010024a2:    0412        ..      LSLS     r2,r2,#16
        0x010024a4:    0203        ..      LSLS     r3,r0,#8
        0x010024a6:    191b        ..      ADDS     r3,r3,r4
        0x010024a8:    609a        .`      STR      r2,[r3,#8]
        0x010024aa:    2280        ."      MOVS     r2,#0x80
        0x010024ac:    0203        ..      LSLS     r3,r0,#8
        0x010024ae:    191b        ..      ADDS     r3,r3,r4
        0x010024b0:    73da        .s      STRB     r2,[r3,#0xf]
        0x010024b2:    bf00        ..      NOP      
        0x010024b4:    0202        ..      LSLS     r2,r0,#8
        0x010024b6:    4b2f        /K      LDR      r3,[pc,#188] ; [0x1002574] = 0xf8800
        0x010024b8:    18d2        ..      ADDS     r2,r2,r3
        0x010024ba:    6912        .i      LDR      r2,[r2,#0x10]
        0x010024bc:    07d2        ..      LSLS     r2,r2,#31
        0x010024be:    0fd2        ..      LSRS     r2,r2,#31
        0x010024c0:    2a00        .*      CMP      r2,#0
        0x010024c2:    d0f7        ..      BEQ      0x10024b4 ; SPI_SendData + 34
        0x010024c4:    bd18        ..      POP      {r3,r4,pc}
    SPI_SendBuff
        0x010024c6:    b530        0.      PUSH     {r4,r5,lr}
        0x010024c8:    2a01        .*      CMP      r2,#1
        0x010024ca:    da00        ..      BGE      0x10024ce ; SPI_SendBuff + 8
        0x010024cc:    bd30        0.      POP      {r4,r5,pc}
        0x010024ce:    0203        ..      LSLS     r3,r0,#8
        0x010024d0:    4c28        (L      LDR      r4,[pc,#160] ; [0x1002574] = 0xf8800
        0x010024d2:    191b        ..      ADDS     r3,r3,r4
        0x010024d4:    6019        .`      STR      r1,[r3,#0]
        0x010024d6:    0413        ..      LSLS     r3,r2,#16
        0x010024d8:    0204        ..      LSLS     r4,r0,#8
        0x010024da:    4d26        &M      LDR      r5,[pc,#152] ; [0x1002574] = 0xf8800
        0x010024dc:    1964        d.      ADDS     r4,r4,r5
        0x010024de:    60a3        .`      STR      r3,[r4,#8]
        0x010024e0:    2380        .#      MOVS     r3,#0x80
        0x010024e2:    0204        ..      LSLS     r4,r0,#8
        0x010024e4:    1964        d.      ADDS     r4,r4,r5
        0x010024e6:    73e3        .s      STRB     r3,[r4,#0xf]
        0x010024e8:    bf00        ..      NOP      
        0x010024ea:    0203        ..      LSLS     r3,r0,#8
        0x010024ec:    4c21        !L      LDR      r4,[pc,#132] ; [0x1002574] = 0xf8800
        0x010024ee:    191b        ..      ADDS     r3,r3,r4
        0x010024f0:    691b        .i      LDR      r3,[r3,#0x10]
        0x010024f2:    07db        ..      LSLS     r3,r3,#31
        0x010024f4:    0fdb        ..      LSRS     r3,r3,#31
        0x010024f6:    2b00        .+      CMP      r3,#0
        0x010024f8:    d0f7        ..      BEQ      0x10024ea ; SPI_SendBuff + 36
        0x010024fa:    bf00        ..      NOP      
        0x010024fc:    e7e6        ..      B        0x10024cc ; SPI_SendBuff + 6
    SPI_SendAndReceiveData
        0x010024fe:    b5f0        ..      PUSH     {r4-r7,lr}
        0x01002500:    9c05        ..      LDR      r4,[sp,#0x14]
        0x01002502:    2a01        .*      CMP      r2,#1
        0x01002504:    da00        ..      BGE      0x1002508 ; SPI_SendAndReceiveData + 10
        0x01002506:    bdf0        ..      POP      {r4-r7,pc}
        0x01002508:    0205        ..      LSLS     r5,r0,#8
        0x0100250a:    4e1a        .N      LDR      r6,[pc,#104] ; [0x1002574] = 0xf8800
        0x0100250c:    19ad        ..      ADDS     r5,r5,r6
        0x0100250e:    6029        )`      STR      r1,[r5,#0]
        0x01002510:    0205        ..      LSLS     r5,r0,#8
        0x01002512:    19ad        ..      ADDS     r5,r5,r6
        0x01002514:    606b        k`      STR      r3,[r5,#4]
        0x01002516:    0415        ..      LSLS     r5,r2,#16
        0x01002518:    4325        %C      ORRS     r5,r5,r4
        0x0100251a:    0206        ..      LSLS     r6,r0,#8
        0x0100251c:    4f15        .O      LDR      r7,[pc,#84] ; [0x1002574] = 0xf8800
        0x0100251e:    19f6        ..      ADDS     r6,r6,r7
        0x01002520:    60b5        .`      STR      r5,[r6,#8]
        0x01002522:    2580        .%      MOVS     r5,#0x80
        0x01002524:    0206        ..      LSLS     r6,r0,#8
        0x01002526:    19f6        ..      ADDS     r6,r6,r7
        0x01002528:    73f5        .s      STRB     r5,[r6,#0xf]
        0x0100252a:    bf00        ..      NOP      
        0x0100252c:    0205        ..      LSLS     r5,r0,#8
        0x0100252e:    4e11        .N      LDR      r6,[pc,#68] ; [0x1002574] = 0xf8800
        0x01002530:    19ad        ..      ADDS     r5,r5,r6
        0x01002532:    692d        -i      LDR      r5,[r5,#0x10]
        0x01002534:    07ed        ..      LSLS     r5,r5,#31
        0x01002536:    0fed        ..      LSRS     r5,r5,#31
        0x01002538:    2d00        .-      CMP      r5,#0
        0x0100253a:    d0f7        ..      BEQ      0x100252c ; SPI_SendAndReceiveData + 46
        0x0100253c:    bf00        ..      NOP      
        0x0100253e:    e7e2        ..      B        0x1002506 ; SPI_SendAndReceiveData + 8
    $d
        0x01002540:    010077c2    .w..    DCD    16807874
        0x01002544:    2e5c2e2e    ..\.    DCD    777793070
        0x01002548:    61685c2e    .\ha    DCD    1634229294
        0x0100254c:    61776472    rdwa    DCD    1635214450
        0x01002550:    4c5c6572    re\L    DCD    1281123698
        0x01002554:    61726269    ibra    DCD    1634886249
        0x01002558:    72656972    rier    DCD    1919248754
        0x0100255c:    6b64735c    \sdk    DCD    1801745244
        0x01002560:    5f63795c    \yc_    DCD    1600354652
        0x01002564:    2e697073    spi.    DCD    778662003
        0x01002568:    00000063    c...    DCD    99
        0x0100256c:    000f8900    ....    DCD    1018112
        0x01002570:    000f8a00    ....    DCD    1018368
        0x01002574:    000f8800    ....    DCD    1017856
    $t
    .text
    deinit_otp
        0x01002578:    b510        ..      PUSH     {r4,lr}
        0x0100257a:    481e        .H      LDR      r0,[pc,#120] ; [0x10025f4] = 0x4481
        0x0100257c:    4780        .G      BLX      r0
        0x0100257e:    bd10        ..      POP      {r4,pc}
    init_otp
        0x01002580:    b510        ..      PUSH     {r4,lr}
        0x01002582:    481c        .H      LDR      r0,[pc,#112] ; [0x10025f4] = 0x4481
        0x01002584:    3854        T8      SUBS     r0,r0,#0x54
        0x01002586:    4780        .G      BLX      r0
        0x01002588:    bd10        ..      POP      {r4,pc}
    read_chip_life
        0x0100258a:    b510        ..      PUSH     {r4,lr}
        0x0100258c:    2400        .$      MOVS     r4,#0
        0x0100258e:    f7fffff7    ....    BL       init_otp ; 0x1002580
        0x01002592:    4819        .H      LDR      r0,[pc,#100] ; [0x10025f8] = 0x45e7
        0x01002594:    4780        .G      BLX      r0
        0x01002596:    4604        .F      MOV      r4,r0
        0x01002598:    f7ffffee    ....    BL       deinit_otp ; 0x1002578
        0x0100259c:    4620         F      MOV      r0,r4
        0x0100259e:    bd10        ..      POP      {r4,pc}
    read_chipid
        0x010025a0:    b510        ..      PUSH     {r4,lr}
        0x010025a2:    4604        .F      MOV      r4,r0
        0x010025a4:    f7ffffec    ....    BL       init_otp ; 0x1002580
        0x010025a8:    4620         F      MOV      r0,r4
        0x010025aa:    4913        .I      LDR      r1,[pc,#76] ; [0x10025f8] = 0x45e7
        0x010025ac:    390e        .9      SUBS     r1,r1,#0xe
        0x010025ae:    4788        .G      BLX      r1
        0x010025b0:    f7ffffe2    ....    BL       deinit_otp ; 0x1002578
        0x010025b4:    bd10        ..      POP      {r4,pc}
    read_otp
        0x010025b6:    b570        p.      PUSH     {r4-r6,lr}
        0x010025b8:    4604        .F      MOV      r4,r0
        0x010025ba:    460d        .F      MOV      r5,r1
        0x010025bc:    4616        .F      MOV      r6,r2
        0x010025be:    f7ffffdf    ....    BL       init_otp ; 0x1002580
        0x010025c2:    4632        2F      MOV      r2,r6
        0x010025c4:    4629        )F      MOV      r1,r5
        0x010025c6:    4620         F      MOV      r0,r4
        0x010025c8:    4b0a        .K      LDR      r3,[pc,#40] ; [0x10025f4] = 0x4481
        0x010025ca:    331c        .3      ADDS     r3,r3,#0x1c
        0x010025cc:    4798        .G      BLX      r3
        0x010025ce:    f7ffffd3    ....    BL       deinit_otp ; 0x1002578
        0x010025d2:    2001        .       MOVS     r0,#1
        0x010025d4:    bd70        p.      POP      {r4-r6,pc}
    write_otp
        0x010025d6:    b5f8        ..      PUSH     {r3-r7,lr}
        0x010025d8:    4604        .F      MOV      r4,r0
        0x010025da:    460d        .F      MOV      r5,r1
        0x010025dc:    4616        .F      MOV      r6,r2
        0x010025de:    2700        .'      MOVS     r7,#0
        0x010025e0:    4632        2F      MOV      r2,r6
        0x010025e2:    4629        )F      MOV      r1,r5
        0x010025e4:    4620         F      MOV      r0,r4
        0x010025e6:    4b04        .K      LDR      r3,[pc,#16] ; [0x10025f8] = 0x45e7
        0x010025e8:    3b52        R;      SUBS     r3,r3,#0x52
        0x010025ea:    4798        .G      BLX      r3
        0x010025ec:    4607        .F      MOV      r7,r0
        0x010025ee:    4638        8F      MOV      r0,r7
        0x010025f0:    bdf8        ..      POP      {r3-r7,pc}
    $d
        0x010025f2:    0000        ..      DCW    0
        0x010025f4:    00004481    .D..    DCD    17537
        0x010025f8:    000045e7    .E..    DCD    17895
    $t
    .text
    IPC_have_data
        0x010025fc:    48fd        .H      LDR      r0,[pc,#1012] ; [0x10029f4] = 0x2001c
        0x010025fe:    6800        .h      LDR      r0,[r0,#0]
        0x01002600:    7900        .y      LDRB     r0,[r0,#4]
        0x01002602:    49fc        .I      LDR      r1,[pc,#1008] ; [0x10029f4] = 0x2001c
        0x01002604:    6809        .h      LDR      r1,[r1,#0]
        0x01002606:    7949        Iy      LDRB     r1,[r1,#5]
        0x01002608:    0209        ..      LSLS     r1,r1,#8
        0x0100260a:    22ff        ."      MOVS     r2,#0xff
        0x0100260c:    0212        ..      LSLS     r2,r2,#8
        0x0100260e:    4011        .@      ANDS     r1,r1,r2
        0x01002610:    4308        .C      ORRS     r0,r0,r1
        0x01002612:    49f8        .I      LDR      r1,[pc,#992] ; [0x10029f4] = 0x2001c
        0x01002614:    6809        .h      LDR      r1,[r1,#0]
        0x01002616:    7989        .y      LDRB     r1,[r1,#6]
        0x01002618:    4af6        .J      LDR      r2,[pc,#984] ; [0x10029f4] = 0x2001c
        0x0100261a:    6812        .h      LDR      r2,[r2,#0]
        0x0100261c:    79d2        .y      LDRB     r2,[r2,#7]
        0x0100261e:    0212        ..      LSLS     r2,r2,#8
        0x01002620:    23ff        .#      MOVS     r3,#0xff
        0x01002622:    021b        ..      LSLS     r3,r3,#8
        0x01002624:    401a        .@      ANDS     r2,r2,r3
        0x01002626:    4311        .C      ORRS     r1,r1,r2
        0x01002628:    4288        .B      CMP      r0,r1
        0x0100262a:    d001        ..      BEQ      0x1002630 ; IPC_have_data + 52
        0x0100262c:    2001        .       MOVS     r0,#1
        0x0100262e:    4770        pG      BX       lr
        0x01002630:    2000        .       MOVS     r0,#0
        0x01002632:    e7fc        ..      B        0x100262e ; IPC_have_data + 50
    IPC_get_available_size
        0x01002634:    b570        p.      PUSH     {r4-r6,lr}
        0x01002636:    48f0        .H      LDR      r0,[pc,#960] ; [0x10029f8] = 0x20020
        0x01002638:    6800        .h      LDR      r0,[r0,#0]
        0x0100263a:    7900        .y      LDRB     r0,[r0,#4]
        0x0100263c:    4dee        .M      LDR      r5,[pc,#952] ; [0x10029f8] = 0x20020
        0x0100263e:    682d        -h      LDR      r5,[r5,#0]
        0x01002640:    796d        my      LDRB     r5,[r5,#5]
        0x01002642:    022d        -.      LSLS     r5,r5,#8
        0x01002644:    26ff        .&      MOVS     r6,#0xff
        0x01002646:    0236        6.      LSLS     r6,r6,#8
        0x01002648:    4035        5@      ANDS     r5,r5,r6
        0x0100264a:    4328        (C      ORRS     r0,r0,r5
        0x0100264c:    4601        .F      MOV      r1,r0
        0x0100264e:    48ea        .H      LDR      r0,[pc,#936] ; [0x10029f8] = 0x20020
        0x01002650:    6800        .h      LDR      r0,[r0,#0]
        0x01002652:    7980        .y      LDRB     r0,[r0,#6]
        0x01002654:    4de8        .M      LDR      r5,[pc,#928] ; [0x10029f8] = 0x20020
        0x01002656:    682d        -h      LDR      r5,[r5,#0]
        0x01002658:    79ed        .y      LDRB     r5,[r5,#7]
        0x0100265a:    022d        -.      LSLS     r5,r5,#8
        0x0100265c:    4035        5@      ANDS     r5,r5,r6
        0x0100265e:    4328        (C      ORRS     r0,r0,r5
        0x01002660:    4602        .F      MOV      r2,r0
        0x01002662:    48e5        .H      LDR      r0,[pc,#916] ; [0x10029f8] = 0x20020
        0x01002664:    6800        .h      LDR      r0,[r0,#0]
        0x01002666:    7880        .x      LDRB     r0,[r0,#2]
        0x01002668:    4de3        .M      LDR      r5,[pc,#908] ; [0x10029f8] = 0x20020
        0x0100266a:    682d        -h      LDR      r5,[r5,#0]
        0x0100266c:    78ed        .x      LDRB     r5,[r5,#3]
        0x0100266e:    022d        -.      LSLS     r5,r5,#8
        0x01002670:    4035        5@      ANDS     r5,r5,r6
        0x01002672:    4328        (C      ORRS     r0,r0,r5
        0x01002674:    4603        .F      MOV      r3,r0
        0x01002676:    48e0        .H      LDR      r0,[pc,#896] ; [0x10029f8] = 0x20020
        0x01002678:    6800        .h      LDR      r0,[r0,#0]
        0x0100267a:    7800        .x      LDRB     r0,[r0,#0]
        0x0100267c:    4dde        .M      LDR      r5,[pc,#888] ; [0x10029f8] = 0x20020
        0x0100267e:    682d        -h      LDR      r5,[r5,#0]
        0x01002680:    786d        mx      LDRB     r5,[r5,#1]
        0x01002682:    022d        -.      LSLS     r5,r5,#8
        0x01002684:    4035        5@      ANDS     r5,r5,r6
        0x01002686:    4328        (C      ORRS     r0,r0,r5
        0x01002688:    4604        .F      MOV      r4,r0
        0x0100268a:    4291        .B      CMP      r1,r2
        0x0100268c:    dd02        ..      BLE      0x1002694 ; IPC_get_available_size + 96
        0x0100268e:    1a88        ..      SUBS     r0,r1,r2
        0x01002690:    b280        ..      UXTH     r0,r0
        0x01002692:    bd70        p.      POP      {r4-r6,pc}
        0x01002694:    1b18        ..      SUBS     r0,r3,r4
        0x01002696:    1c40        @.      ADDS     r0,r0,#1
        0x01002698:    1a8d        ..      SUBS     r5,r1,r2
        0x0100269a:    1b40        @.      SUBS     r0,r0,r5
        0x0100269c:    b280        ..      UXTH     r0,r0
        0x0100269e:    e7f8        ..      B        0x1002692 ; IPC_get_available_size + 94
    IPC_TxData
        0x010026a0:    b5f8        ..      PUSH     {r3-r7,lr}
        0x010026a2:    4604        .F      MOV      r4,r0
        0x010026a4:    48d5        .H      LDR      r0,[pc,#852] ; [0x10029fc] = 0xf8520
        0x010026a6:    7f00        ..      LDRB     r0,[r0,#0x1c]
        0x010026a8:    2104        .!      MOVS     r1,#4
        0x010026aa:    4308        .C      ORRS     r0,r0,r1
        0x010026ac:    49d3        .I      LDR      r1,[pc,#844] ; [0x10029fc] = 0xf8520
        0x010026ae:    7708        .w      STRB     r0,[r1,#0x1c]
        0x010026b0:    2001        .       MOVS     r0,#1
        0x010026b2:    49d3        .I      LDR      r1,[pc,#844] ; [0x1002a00] = 0xc4fe0
        0x010026b4:    73c8        .s      STRB     r0,[r1,#0xf]
        0x010026b6:    200a        .       MOVS     r0,#0xa
        0x010026b8:    f7fffcea    ....    BL       delay_ms ; 0x1002090
        0x010026bc:    48ce        .H      LDR      r0,[pc,#824] ; [0x10029f8] = 0x20020
        0x010026be:    6800        .h      LDR      r0,[r0,#0]
        0x010026c0:    7980        .y      LDRB     r0,[r0,#6]
        0x010026c2:    49cd        .I      LDR      r1,[pc,#820] ; [0x10029f8] = 0x20020
        0x010026c4:    6809        .h      LDR      r1,[r1,#0]
        0x010026c6:    79c9        .y      LDRB     r1,[r1,#7]
        0x010026c8:    0209        ..      LSLS     r1,r1,#8
        0x010026ca:    22ff        ."      MOVS     r2,#0xff
        0x010026cc:    0212        ..      LSLS     r2,r2,#8
        0x010026ce:    4011        .@      ANDS     r1,r1,r2
        0x010026d0:    4308        .C      ORRS     r0,r0,r1
        0x010026d2:    4605        .F      MOV      r5,r0
        0x010026d4:    78a0        .x      LDRB     r0,[r4,#2]
        0x010026d6:    1cc6        ..      ADDS     r6,r0,#3
        0x010026d8:    4627        'F      MOV      r7,r4
        0x010026da:    e026        &.      B        0x100272a ; IPC_TxData + 138
        0x010026dc:    7838        8x      LDRB     r0,[r7,#0]
        0x010026de:    2103        .!      MOVS     r1,#3
        0x010026e0:    0489        ..      LSLS     r1,r1,#18
        0x010026e2:    1869        i.      ADDS     r1,r5,r1
        0x010026e4:    7008        .p      STRB     r0,[r1,#0]
        0x010026e6:    1c7f        ..      ADDS     r7,r7,#1
        0x010026e8:    48c3        .H      LDR      r0,[pc,#780] ; [0x10029f8] = 0x20020
        0x010026ea:    6800        .h      LDR      r0,[r0,#0]
        0x010026ec:    7880        .x      LDRB     r0,[r0,#2]
        0x010026ee:    49c2        .I      LDR      r1,[pc,#776] ; [0x10029f8] = 0x20020
        0x010026f0:    6809        .h      LDR      r1,[r1,#0]
        0x010026f2:    78c9        .x      LDRB     r1,[r1,#3]
        0x010026f4:    0209        ..      LSLS     r1,r1,#8
        0x010026f6:    22ff        ."      MOVS     r2,#0xff
        0x010026f8:    0212        ..      LSLS     r2,r2,#8
        0x010026fa:    4011        .@      ANDS     r1,r1,r2
        0x010026fc:    4308        .C      ORRS     r0,r0,r1
        0x010026fe:    42a8        .B      CMP      r0,r5
        0x01002700:    d10a        ..      BNE      0x1002718 ; IPC_TxData + 120
        0x01002702:    48bd        .H      LDR      r0,[pc,#756] ; [0x10029f8] = 0x20020
        0x01002704:    6800        .h      LDR      r0,[r0,#0]
        0x01002706:    7800        .x      LDRB     r0,[r0,#0]
        0x01002708:    49bb        .I      LDR      r1,[pc,#748] ; [0x10029f8] = 0x20020
        0x0100270a:    6809        .h      LDR      r1,[r1,#0]
        0x0100270c:    7849        Ix      LDRB     r1,[r1,#1]
        0x0100270e:    0209        ..      LSLS     r1,r1,#8
        0x01002710:    4011        .@      ANDS     r1,r1,r2
        0x01002712:    4308        .C      ORRS     r0,r0,r1
        0x01002714:    4605        .F      MOV      r5,r0
        0x01002716:    e001        ..      B        0x100271c ; IPC_TxData + 124
        0x01002718:    1c68        h.      ADDS     r0,r5,#1
        0x0100271a:    b285        ..      UXTH     r5,r0
        0x0100271c:    78a0        .x      LDRB     r0,[r4,#2]
        0x0100271e:    42b0        .B      CMP      r0,r6
        0x01002720:    d103        ..      BNE      0x100272a ; IPC_TxData + 138
        0x01002722:    1ce0        ..      ADDS     r0,r4,#3
        0x01002724:    f003ff98    ....    BL       __aeabi_uread4 ; 0x1006658
        0x01002728:    4607        .F      MOV      r7,r0
        0x0100272a:    4630        0F      MOV      r0,r6
        0x0100272c:    1e71        q.      SUBS     r1,r6,#1
        0x0100272e:    b28e        ..      UXTH     r6,r1
        0x01002730:    2800        .(      CMP      r0,#0
        0x01002732:    d1d3        ..      BNE      0x10026dc ; IPC_TxData + 60
        0x01002734:    bf00        ..      NOP      
        0x01002736:    49b0        .I      LDR      r1,[pc,#704] ; [0x10029f8] = 0x20020
        0x01002738:    6809        .h      LDR      r1,[r1,#0]
        0x0100273a:    718d        .q      STRB     r5,[r1,#6]
        0x0100273c:    0a29        ).      LSRS     r1,r5,#8
        0x0100273e:    48ae        .H      LDR      r0,[pc,#696] ; [0x10029f8] = 0x20020
        0x01002740:    6800        .h      LDR      r0,[r0,#0]
        0x01002742:    71c1        .q      STRB     r1,[r0,#7]
        0x01002744:    bf00        ..      NOP      
        0x01002746:    2000        .       MOVS     r0,#0
        0x01002748:    49ad        .I      LDR      r1,[pc,#692] ; [0x1002a00] = 0xc4fe0
        0x0100274a:    73c8        .s      STRB     r0,[r1,#0xf]
        0x0100274c:    48ab        .H      LDR      r0,[pc,#684] ; [0x10029fc] = 0xf8520
        0x0100274e:    7f00        ..      LDRB     r0,[r0,#0x1c]
        0x01002750:    2104        .!      MOVS     r1,#4
        0x01002752:    4388        .C      BICS     r0,r0,r1
        0x01002754:    49a9        .I      LDR      r1,[pc,#676] ; [0x10029fc] = 0xf8520
        0x01002756:    7708        .w      STRB     r0,[r1,#0x1c]
        0x01002758:    bdf8        ..      POP      {r3-r7,pc}
    IPC_PutBtData
        0x0100275a:    b5f8        ..      PUSH     {r3-r7,lr}
        0x0100275c:    4607        .F      MOV      r7,r0
        0x0100275e:    460d        .F      MOV      r5,r1
        0x01002760:    2d00        .-      CMP      r5,#0
        0x01002762:    d003        ..      BEQ      0x100276c ; IPC_PutBtData + 18
        0x01002764:    20ff        .       MOVS     r0,#0xff
        0x01002766:    3003        .0      ADDS     r0,#3
        0x01002768:    4285        .B      CMP      r5,r0
        0x0100276a:    d901        ..      BLS      0x1002770 ; IPC_PutBtData + 22
        0x0100276c:    2000        .       MOVS     r0,#0
        0x0100276e:    bdf8        ..      POP      {r3-r7,pc}
        0x01002770:    48a2        .H      LDR      r0,[pc,#648] ; [0x10029fc] = 0xf8520
        0x01002772:    7f00        ..      LDRB     r0,[r0,#0x1c]
        0x01002774:    2104        .!      MOVS     r1,#4
        0x01002776:    4308        .C      ORRS     r0,r0,r1
        0x01002778:    49a0        .I      LDR      r1,[pc,#640] ; [0x10029fc] = 0xf8520
        0x0100277a:    7708        .w      STRB     r0,[r1,#0x1c]
        0x0100277c:    2001        .       MOVS     r0,#1
        0x0100277e:    49a0        .I      LDR      r1,[pc,#640] ; [0x1002a00] = 0xc4fe0
        0x01002780:    73c8        .s      STRB     r0,[r1,#0xf]
        0x01002782:    200a        .       MOVS     r0,#0xa
        0x01002784:    f7fffc84    ....    BL       delay_ms ; 0x1002090
        0x01002788:    489b        .H      LDR      r0,[pc,#620] ; [0x10029f8] = 0x20020
        0x0100278a:    6800        .h      LDR      r0,[r0,#0]
        0x0100278c:    7984        .y      LDRB     r4,[r0,#6]
        0x0100278e:    499a        .I      LDR      r1,[pc,#616] ; [0x10029f8] = 0x20020
        0x01002790:    6809        .h      LDR      r1,[r1,#0]
        0x01002792:    79c9        .y      LDRB     r1,[r1,#7]
        0x01002794:    0209        ..      LSLS     r1,r1,#8
        0x01002796:    22ff        ."      MOVS     r2,#0xff
        0x01002798:    0212        ..      LSLS     r2,r2,#8
        0x0100279a:    4011        .@      ANDS     r1,r1,r2
        0x0100279c:    430c        .C      ORRS     r4,r4,r1
        0x0100279e:    463e        >F      MOV      r6,r7
        0x010027a0:    e01f        ..      B        0x10027e2 ; IPC_PutBtData + 136
        0x010027a2:    7830        0x      LDRB     r0,[r6,#0]
        0x010027a4:    2103        .!      MOVS     r1,#3
        0x010027a6:    0489        ..      LSLS     r1,r1,#18
        0x010027a8:    1861        a.      ADDS     r1,r4,r1
        0x010027aa:    7008        .p      STRB     r0,[r1,#0]
        0x010027ac:    1c76        v.      ADDS     r6,r6,#1
        0x010027ae:    4892        .H      LDR      r0,[pc,#584] ; [0x10029f8] = 0x20020
        0x010027b0:    6800        .h      LDR      r0,[r0,#0]
        0x010027b2:    7880        .x      LDRB     r0,[r0,#2]
        0x010027b4:    4990        .I      LDR      r1,[pc,#576] ; [0x10029f8] = 0x20020
        0x010027b6:    6809        .h      LDR      r1,[r1,#0]
        0x010027b8:    78c9        .x      LDRB     r1,[r1,#3]
        0x010027ba:    0209        ..      LSLS     r1,r1,#8
        0x010027bc:    22ff        ."      MOVS     r2,#0xff
        0x010027be:    0212        ..      LSLS     r2,r2,#8
        0x010027c0:    4011        .@      ANDS     r1,r1,r2
        0x010027c2:    4308        .C      ORRS     r0,r0,r1
        0x010027c4:    42a0        .B      CMP      r0,r4
        0x010027c6:    d10a        ..      BNE      0x10027de ; IPC_PutBtData + 132
        0x010027c8:    488b        .H      LDR      r0,[pc,#556] ; [0x10029f8] = 0x20020
        0x010027ca:    6800        .h      LDR      r0,[r0,#0]
        0x010027cc:    7800        .x      LDRB     r0,[r0,#0]
        0x010027ce:    498a        .I      LDR      r1,[pc,#552] ; [0x10029f8] = 0x20020
        0x010027d0:    6809        .h      LDR      r1,[r1,#0]
        0x010027d2:    7849        Ix      LDRB     r1,[r1,#1]
        0x010027d4:    0209        ..      LSLS     r1,r1,#8
        0x010027d6:    4011        .@      ANDS     r1,r1,r2
        0x010027d8:    4308        .C      ORRS     r0,r0,r1
        0x010027da:    4604        .F      MOV      r4,r0
        0x010027dc:    e001        ..      B        0x10027e2 ; IPC_PutBtData + 136
        0x010027de:    1c60        `.      ADDS     r0,r4,#1
        0x010027e0:    b284        ..      UXTH     r4,r0
        0x010027e2:    4628        (F      MOV      r0,r5
        0x010027e4:    1e6d        m.      SUBS     r5,r5,#1
        0x010027e6:    2800        .(      CMP      r0,#0
        0x010027e8:    d1db        ..      BNE      0x10027a2 ; IPC_PutBtData + 72
        0x010027ea:    bf00        ..      NOP      
        0x010027ec:    4982        .I      LDR      r1,[pc,#520] ; [0x10029f8] = 0x20020
        0x010027ee:    6809        .h      LDR      r1,[r1,#0]
        0x010027f0:    718c        .q      STRB     r4,[r1,#6]
        0x010027f2:    0a21        !.      LSRS     r1,r4,#8
        0x010027f4:    4880        .H      LDR      r0,[pc,#512] ; [0x10029f8] = 0x20020
        0x010027f6:    6800        .h      LDR      r0,[r0,#0]
        0x010027f8:    71c1        .q      STRB     r1,[r0,#7]
        0x010027fa:    bf00        ..      NOP      
        0x010027fc:    2000        .       MOVS     r0,#0
        0x010027fe:    4980        .I      LDR      r1,[pc,#512] ; [0x1002a00] = 0xc4fe0
        0x01002800:    73c8        .s      STRB     r0,[r1,#0xf]
        0x01002802:    487e        ~H      LDR      r0,[pc,#504] ; [0x10029fc] = 0xf8520
        0x01002804:    7f00        ..      LDRB     r0,[r0,#0x1c]
        0x01002806:    2104        .!      MOVS     r1,#4
        0x01002808:    4388        .C      BICS     r0,r0,r1
        0x0100280a:    497c        |I      LDR      r1,[pc,#496] ; [0x10029fc] = 0xf8520
        0x0100280c:    7708        .w      STRB     r0,[r1,#0x1c]
        0x0100280e:    2001        .       MOVS     r0,#1
        0x01002810:    e7ad        ..      B        0x100276e ; IPC_PutBtData + 20
    IPC_ReadBtData
        0x01002812:    b570        p.      PUSH     {r4-r6,lr}
        0x01002814:    4605        .F      MOV      r5,r0
        0x01002816:    4877        wH      LDR      r0,[pc,#476] ; [0x10029f4] = 0x2001c
        0x01002818:    6800        .h      LDR      r0,[r0,#0]
        0x0100281a:    7901        .y      LDRB     r1,[r0,#4]
        0x0100281c:    4875        uH      LDR      r0,[pc,#468] ; [0x10029f4] = 0x2001c
        0x0100281e:    6800        .h      LDR      r0,[r0,#0]
        0x01002820:    7940        @y      LDRB     r0,[r0,#5]
        0x01002822:    0200        ..      LSLS     r0,r0,#8
        0x01002824:    22ff        ."      MOVS     r2,#0xff
        0x01002826:    0212        ..      LSLS     r2,r2,#8
        0x01002828:    4010        .@      ANDS     r0,r0,r2
        0x0100282a:    4301        .C      ORRS     r1,r1,r0
        0x0100282c:    4871        qH      LDR      r0,[pc,#452] ; [0x10029f4] = 0x2001c
        0x0100282e:    6800        .h      LDR      r0,[r0,#0]
        0x01002830:    7980        .y      LDRB     r0,[r0,#6]
        0x01002832:    4a70        pJ      LDR      r2,[pc,#448] ; [0x10029f4] = 0x2001c
        0x01002834:    6812        .h      LDR      r2,[r2,#0]
        0x01002836:    79d2        .y      LDRB     r2,[r2,#7]
        0x01002838:    0212        ..      LSLS     r2,r2,#8
        0x0100283a:    23ff        .#      MOVS     r3,#0xff
        0x0100283c:    021b        ..      LSLS     r3,r3,#8
        0x0100283e:    401a        .@      ANDS     r2,r2,r3
        0x01002840:    4310        .C      ORRS     r0,r0,r2
        0x01002842:    4281        .B      CMP      r1,r0
        0x01002844:    d07e        ~.      BEQ      0x1002944 ; IPC_ReadBtData + 306
        0x01002846:    486b        kH      LDR      r0,[pc,#428] ; [0x10029f4] = 0x2001c
        0x01002848:    6800        .h      LDR      r0,[r0,#0]
        0x0100284a:    7900        .y      LDRB     r0,[r0,#4]
        0x0100284c:    4969        iI      LDR      r1,[pc,#420] ; [0x10029f4] = 0x2001c
        0x0100284e:    6809        .h      LDR      r1,[r1,#0]
        0x01002850:    7949        Iy      LDRB     r1,[r1,#5]
        0x01002852:    0209        ..      LSLS     r1,r1,#8
        0x01002854:    461a        .F      MOV      r2,r3
        0x01002856:    4011        .@      ANDS     r1,r1,r2
        0x01002858:    4308        .C      ORRS     r0,r0,r1
        0x0100285a:    4604        .F      MOV      r4,r0
        0x0100285c:    2003        .       MOVS     r0,#3
        0x0100285e:    0480        ..      LSLS     r0,r0,#18
        0x01002860:    1820         .      ADDS     r0,r4,r0
        0x01002862:    7800        .x      LDRB     r0,[r0,#0]
        0x01002864:    7028        (p      STRB     r0,[r5,#0]
        0x01002866:    4863        cH      LDR      r0,[pc,#396] ; [0x10029f4] = 0x2001c
        0x01002868:    6800        .h      LDR      r0,[r0,#0]
        0x0100286a:    7880        .x      LDRB     r0,[r0,#2]
        0x0100286c:    4961        aI      LDR      r1,[pc,#388] ; [0x10029f4] = 0x2001c
        0x0100286e:    6809        .h      LDR      r1,[r1,#0]
        0x01002870:    78c9        .x      LDRB     r1,[r1,#3]
        0x01002872:    0209        ..      LSLS     r1,r1,#8
        0x01002874:    4011        .@      ANDS     r1,r1,r2
        0x01002876:    4308        .C      ORRS     r0,r0,r1
        0x01002878:    42a0        .B      CMP      r0,r4
        0x0100287a:    d10a        ..      BNE      0x1002892 ; IPC_ReadBtData + 128
        0x0100287c:    485d        ]H      LDR      r0,[pc,#372] ; [0x10029f4] = 0x2001c
        0x0100287e:    6800        .h      LDR      r0,[r0,#0]
        0x01002880:    7800        .x      LDRB     r0,[r0,#0]
        0x01002882:    495c        \I      LDR      r1,[pc,#368] ; [0x10029f4] = 0x2001c
        0x01002884:    6809        .h      LDR      r1,[r1,#0]
        0x01002886:    7849        Ix      LDRB     r1,[r1,#1]
        0x01002888:    0209        ..      LSLS     r1,r1,#8
        0x0100288a:    4011        .@      ANDS     r1,r1,r2
        0x0100288c:    4308        .C      ORRS     r0,r0,r1
        0x0100288e:    4604        .F      MOV      r4,r0
        0x01002890:    e001        ..      B        0x1002896 ; IPC_ReadBtData + 132
        0x01002892:    1c60        `.      ADDS     r0,r4,#1
        0x01002894:    b284        ..      UXTH     r4,r0
        0x01002896:    2003        .       MOVS     r0,#3
        0x01002898:    0480        ..      LSLS     r0,r0,#18
        0x0100289a:    1820         .      ADDS     r0,r4,r0
        0x0100289c:    7800        .x      LDRB     r0,[r0,#0]
        0x0100289e:    7068        hp      STRB     r0,[r5,#1]
        0x010028a0:    4854        TH      LDR      r0,[pc,#336] ; [0x10029f4] = 0x2001c
        0x010028a2:    6800        .h      LDR      r0,[r0,#0]
        0x010028a4:    7880        .x      LDRB     r0,[r0,#2]
        0x010028a6:    4953        SI      LDR      r1,[pc,#332] ; [0x10029f4] = 0x2001c
        0x010028a8:    6809        .h      LDR      r1,[r1,#0]
        0x010028aa:    78c9        .x      LDRB     r1,[r1,#3]
        0x010028ac:    0209        ..      LSLS     r1,r1,#8
        0x010028ae:    22ff        ."      MOVS     r2,#0xff
        0x010028b0:    0212        ..      LSLS     r2,r2,#8
        0x010028b2:    4011        .@      ANDS     r1,r1,r2
        0x010028b4:    4308        .C      ORRS     r0,r0,r1
        0x010028b6:    42a0        .B      CMP      r0,r4
        0x010028b8:    d10a        ..      BNE      0x10028d0 ; IPC_ReadBtData + 190
        0x010028ba:    484e        NH      LDR      r0,[pc,#312] ; [0x10029f4] = 0x2001c
        0x010028bc:    6800        .h      LDR      r0,[r0,#0]
        0x010028be:    7800        .x      LDRB     r0,[r0,#0]
        0x010028c0:    494c        LI      LDR      r1,[pc,#304] ; [0x10029f4] = 0x2001c
        0x010028c2:    6809        .h      LDR      r1,[r1,#0]
        0x010028c4:    7849        Ix      LDRB     r1,[r1,#1]
        0x010028c6:    0209        ..      LSLS     r1,r1,#8
        0x010028c8:    4011        .@      ANDS     r1,r1,r2
        0x010028ca:    4308        .C      ORRS     r0,r0,r1
        0x010028cc:    4604        .F      MOV      r4,r0
        0x010028ce:    e001        ..      B        0x10028d4 ; IPC_ReadBtData + 194
        0x010028d0:    1c60        `.      ADDS     r0,r4,#1
        0x010028d2:    b284        ..      UXTH     r4,r0
        0x010028d4:    2003        .       MOVS     r0,#3
        0x010028d6:    0480        ..      LSLS     r0,r0,#18
        0x010028d8:    1820         .      ADDS     r0,r4,r0
        0x010028da:    7800        .x      LDRB     r0,[r0,#0]
        0x010028dc:    70a8        .p      STRB     r0,[r5,#2]
        0x010028de:    4845        EH      LDR      r0,[pc,#276] ; [0x10029f4] = 0x2001c
        0x010028e0:    6800        .h      LDR      r0,[r0,#0]
        0x010028e2:    7880        .x      LDRB     r0,[r0,#2]
        0x010028e4:    4943        CI      LDR      r1,[pc,#268] ; [0x10029f4] = 0x2001c
        0x010028e6:    6809        .h      LDR      r1,[r1,#0]
        0x010028e8:    78c9        .x      LDRB     r1,[r1,#3]
        0x010028ea:    0209        ..      LSLS     r1,r1,#8
        0x010028ec:    22ff        ."      MOVS     r2,#0xff
        0x010028ee:    0212        ..      LSLS     r2,r2,#8
        0x010028f0:    4011        .@      ANDS     r1,r1,r2
        0x010028f2:    4308        .C      ORRS     r0,r0,r1
        0x010028f4:    42a0        .B      CMP      r0,r4
        0x010028f6:    d10a        ..      BNE      0x100290e ; IPC_ReadBtData + 252
        0x010028f8:    483e        >H      LDR      r0,[pc,#248] ; [0x10029f4] = 0x2001c
        0x010028fa:    6800        .h      LDR      r0,[r0,#0]
        0x010028fc:    7800        .x      LDRB     r0,[r0,#0]
        0x010028fe:    493d        =I      LDR      r1,[pc,#244] ; [0x10029f4] = 0x2001c
        0x01002900:    6809        .h      LDR      r1,[r1,#0]
        0x01002902:    7849        Ix      LDRB     r1,[r1,#1]
        0x01002904:    0209        ..      LSLS     r1,r1,#8
        0x01002906:    4011        .@      ANDS     r1,r1,r2
        0x01002908:    4308        .C      ORRS     r0,r0,r1
        0x0100290a:    4604        .F      MOV      r4,r0
        0x0100290c:    e001        ..      B        0x1002912 ; IPC_ReadBtData + 256
        0x0100290e:    1c60        `.      ADDS     r0,r4,#1
        0x01002910:    b284        ..      UXTH     r4,r0
        0x01002912:    2600        .&      MOVS     r6,#0
        0x01002914:    e025        %.      B        0x1002962 ; IPC_ReadBtData + 336
        0x01002916:    1ce8        ..      ADDS     r0,r5,#3
        0x01002918:    f003fe9e    ....    BL       __aeabi_uread4 ; 0x1006658
        0x0100291c:    2103        .!      MOVS     r1,#3
        0x0100291e:    0489        ..      LSLS     r1,r1,#18
        0x01002920:    1861        a.      ADDS     r1,r4,r1
        0x01002922:    7809        .x      LDRB     r1,[r1,#0]
        0x01002924:    5581        .U      STRB     r1,[r0,r6]
        0x01002926:    4833        3H      LDR      r0,[pc,#204] ; [0x10029f4] = 0x2001c
        0x01002928:    6800        .h      LDR      r0,[r0,#0]
        0x0100292a:    7880        .x      LDRB     r0,[r0,#2]
        0x0100292c:    4931        1I      LDR      r1,[pc,#196] ; [0x10029f4] = 0x2001c
        0x0100292e:    6809        .h      LDR      r1,[r1,#0]
        0x01002930:    78c9        .x      LDRB     r1,[r1,#3]
        0x01002932:    0209        ..      LSLS     r1,r1,#8
        0x01002934:    22ff        ."      MOVS     r2,#0xff
        0x01002936:    0212        ..      LSLS     r2,r2,#8
        0x01002938:    4011        .@      ANDS     r1,r1,r2
        0x0100293a:    4308        .C      ORRS     r0,r0,r1
        0x0100293c:    42a0        .B      CMP      r0,r4
        0x0100293e:    d10c        ..      BNE      0x100295a ; IPC_ReadBtData + 328
        0x01002940:    482c        ,H      LDR      r0,[pc,#176] ; [0x10029f4] = 0x2001c
        0x01002942:    e000        ..      B        0x1002946 ; IPC_ReadBtData + 308
        0x01002944:    e01b        ..      B        0x100297e ; IPC_ReadBtData + 364
        0x01002946:    6800        .h      LDR      r0,[r0,#0]
        0x01002948:    7800        .x      LDRB     r0,[r0,#0]
        0x0100294a:    492a        *I      LDR      r1,[pc,#168] ; [0x10029f4] = 0x2001c
        0x0100294c:    6809        .h      LDR      r1,[r1,#0]
        0x0100294e:    7849        Ix      LDRB     r1,[r1,#1]
        0x01002950:    0209        ..      LSLS     r1,r1,#8
        0x01002952:    4011        .@      ANDS     r1,r1,r2
        0x01002954:    4308        .C      ORRS     r0,r0,r1
        0x01002956:    4604        .F      MOV      r4,r0
        0x01002958:    e001        ..      B        0x100295e ; IPC_ReadBtData + 332
        0x0100295a:    1c60        `.      ADDS     r0,r4,#1
        0x0100295c:    b284        ..      UXTH     r4,r0
        0x0100295e:    1c70        p.      ADDS     r0,r6,#1
        0x01002960:    b2c6        ..      UXTB     r6,r0
        0x01002962:    78a8        .x      LDRB     r0,[r5,#2]
        0x01002964:    42b0        .B      CMP      r0,r6
        0x01002966:    dcd6        ..      BGT      0x1002916 ; IPC_ReadBtData + 260
        0x01002968:    bf00        ..      NOP      
        0x0100296a:    4922        "I      LDR      r1,[pc,#136] ; [0x10029f4] = 0x2001c
        0x0100296c:    6809        .h      LDR      r1,[r1,#0]
        0x0100296e:    710c        .q      STRB     r4,[r1,#4]
        0x01002970:    0a21        !.      LSRS     r1,r4,#8
        0x01002972:    4820         H      LDR      r0,[pc,#128] ; [0x10029f4] = 0x2001c
        0x01002974:    6800        .h      LDR      r0,[r0,#0]
        0x01002976:    7141        Aq      STRB     r1,[r0,#5]
        0x01002978:    bf00        ..      NOP      
        0x0100297a:    2001        .       MOVS     r0,#1
        0x0100297c:    bd70        p.      POP      {r4-r6,pc}
        0x0100297e:    2000        .       MOVS     r0,#0
        0x01002980:    e7fc        ..      B        0x100297c ; IPC_ReadBtData + 362
    IPC_GetBtData
        0x01002982:    b5f0        ..      PUSH     {r4-r7,lr}
        0x01002984:    4607        .F      MOV      r7,r0
        0x01002986:    460c        .F      MOV      r4,r1
        0x01002988:    2600        .&      MOVS     r6,#0
        0x0100298a:    481a        .H      LDR      r0,[pc,#104] ; [0x10029f4] = 0x2001c
        0x0100298c:    6800        .h      LDR      r0,[r0,#0]
        0x0100298e:    7900        .y      LDRB     r0,[r0,#4]
        0x01002990:    4918        .I      LDR      r1,[pc,#96] ; [0x10029f4] = 0x2001c
        0x01002992:    6809        .h      LDR      r1,[r1,#0]
        0x01002994:    7949        Iy      LDRB     r1,[r1,#5]
        0x01002996:    0209        ..      LSLS     r1,r1,#8
        0x01002998:    22ff        ."      MOVS     r2,#0xff
        0x0100299a:    0212        ..      LSLS     r2,r2,#8
        0x0100299c:    4011        .@      ANDS     r1,r1,r2
        0x0100299e:    4308        .C      ORRS     r0,r0,r1
        0x010029a0:    4605        .F      MOV      r5,r0
        0x010029a2:    6820         h      LDR      r0,[r4,#0]
        0x010029a4:    2800        .(      CMP      r0,#0
        0x010029a6:    d101        ..      BNE      0x10029ac ; IPC_GetBtData + 42
        0x010029a8:    6020         `      STR      r0,[r4,#0]
        0x010029aa:    bdf0        ..      POP      {r4-r7,pc}
        0x010029ac:    f7fffe26    ..&.    BL       IPC_have_data ; 0x10025fc
        0x010029b0:    2801        .(      CMP      r0,#1
        0x010029b2:    d145        E.      BNE      0x1002a40 ; IPC_GetBtData + 190
        0x010029b4:    e028        (.      B        0x1002a08 ; IPC_GetBtData + 134
        0x010029b6:    2003        .       MOVS     r0,#3
        0x010029b8:    0480        ..      LSLS     r0,r0,#18
        0x010029ba:    1828        (.      ADDS     r0,r5,r0
        0x010029bc:    7802        .x      LDRB     r2,[r0,#0]
        0x010029be:    4630        0F      MOV      r0,r6
        0x010029c0:    1c76        v.      ADDS     r6,r6,#1
        0x010029c2:    543a        :T      STRB     r2,[r7,r0]
        0x010029c4:    480b        .H      LDR      r0,[pc,#44] ; [0x10029f4] = 0x2001c
        0x010029c6:    6800        .h      LDR      r0,[r0,#0]
        0x010029c8:    7880        .x      LDRB     r0,[r0,#2]
        0x010029ca:    490a        .I      LDR      r1,[pc,#40] ; [0x10029f4] = 0x2001c
        0x010029cc:    6809        .h      LDR      r1,[r1,#0]
        0x010029ce:    78c9        .x      LDRB     r1,[r1,#3]
        0x010029d0:    0209        ..      LSLS     r1,r1,#8
        0x010029d2:    22ff        ."      MOVS     r2,#0xff
        0x010029d4:    0212        ..      LSLS     r2,r2,#8
        0x010029d6:    4011        .@      ANDS     r1,r1,r2
        0x010029d8:    4308        .C      ORRS     r0,r0,r1
        0x010029da:    42a8        .B      CMP      r0,r5
        0x010029dc:    d112        ..      BNE      0x1002a04 ; IPC_GetBtData + 130
        0x010029de:    4805        .H      LDR      r0,[pc,#20] ; [0x10029f4] = 0x2001c
        0x010029e0:    6800        .h      LDR      r0,[r0,#0]
        0x010029e2:    7800        .x      LDRB     r0,[r0,#0]
        0x010029e4:    4903        .I      LDR      r1,[pc,#12] ; [0x10029f4] = 0x2001c
        0x010029e6:    6809        .h      LDR      r1,[r1,#0]
        0x010029e8:    7849        Ix      LDRB     r1,[r1,#1]
        0x010029ea:    0209        ..      LSLS     r1,r1,#8
        0x010029ec:    4011        .@      ANDS     r1,r1,r2
        0x010029ee:    4308        .C      ORRS     r0,r0,r1
        0x010029f0:    4605        .F      MOV      r5,r0
        0x010029f2:    e009        ..      B        0x1002a08 ; IPC_GetBtData + 134
    $d
        0x010029f4:    0002001c    ....    DCD    131100
        0x010029f8:    00020020     ...    DCD    131104
        0x010029fc:    000f8520     ...    DCD    1017120
        0x01002a00:    000c4fe0    .O..    DCD    806880
    $t
        0x01002a04:    1c68        h.      ADDS     r0,r5,#1
        0x01002a06:    b285        ..      UXTH     r5,r0
        0x01002a08:    4895        .H      LDR      r0,[pc,#596] ; [0x1002c60] = 0x2001c
        0x01002a0a:    6800        .h      LDR      r0,[r0,#0]
        0x01002a0c:    7980        .y      LDRB     r0,[r0,#6]
        0x01002a0e:    4994        .I      LDR      r1,[pc,#592] ; [0x1002c60] = 0x2001c
        0x01002a10:    6809        .h      LDR      r1,[r1,#0]
        0x01002a12:    79c9        .y      LDRB     r1,[r1,#7]
        0x01002a14:    0209        ..      LSLS     r1,r1,#8
        0x01002a16:    22ff        ."      MOVS     r2,#0xff
        0x01002a18:    0212        ..      LSLS     r2,r2,#8
        0x01002a1a:    4011        .@      ANDS     r1,r1,r2
        0x01002a1c:    4308        .C      ORRS     r0,r0,r1
        0x01002a1e:    42a8        .B      CMP      r0,r5
        0x01002a20:    d002        ..      BEQ      0x1002a28 ; IPC_GetBtData + 166
        0x01002a22:    6820         h      LDR      r0,[r4,#0]
        0x01002a24:    42b0        .B      CMP      r0,r6
        0x01002a26:    d8c6        ..      BHI      0x10029b6 ; IPC_GetBtData + 52
        0x01002a28:    bf00        ..      NOP      
        0x01002a2a:    498d        .I      LDR      r1,[pc,#564] ; [0x1002c60] = 0x2001c
        0x01002a2c:    6809        .h      LDR      r1,[r1,#0]
        0x01002a2e:    710d        .q      STRB     r5,[r1,#4]
        0x01002a30:    0a29        ).      LSRS     r1,r5,#8
        0x01002a32:    488b        .H      LDR      r0,[pc,#556] ; [0x1002c60] = 0x2001c
        0x01002a34:    6800        .h      LDR      r0,[r0,#0]
        0x01002a36:    7141        Aq      STRB     r1,[r0,#5]
        0x01002a38:    bf00        ..      NOP      
        0x01002a3a:    6026        &`      STR      r6,[r4,#0]
        0x01002a3c:    2001        .       MOVS     r0,#1
        0x01002a3e:    e7b4        ..      B        0x10029aa ; IPC_GetBtData + 40
        0x01002a40:    2000        .       MOVS     r0,#0
        0x01002a42:    6020         `      STR      r0,[r4,#0]
        0x01002a44:    bf00        ..      NOP      
        0x01002a46:    e7b0        ..      B        0x10029aa ; IPC_GetBtData + 40
    _dma_start
    __tagsym$$noinline
        0x01002a48:    b5f0        ..      PUSH     {r4-r7,lr}
        0x01002a4a:    9c05        ..      LDR      r4,[sp,#0x14]
        0x01002a4c:    0205        ..      LSLS     r5,r0,#8
        0x01002a4e:    4e85        .N      LDR      r6,[pc,#532] ; [0x1002c64] = 0xf8800
        0x01002a50:    19ad        ..      ADDS     r5,r5,r6
        0x01002a52:    6029        )`      STR      r1,[r5,#0]
        0x01002a54:    0205        ..      LSLS     r5,r0,#8
        0x01002a56:    19ad        ..      ADDS     r5,r5,r6
        0x01002a58:    606b        k`      STR      r3,[r5,#4]
        0x01002a5a:    0415        ..      LSLS     r5,r2,#16
        0x01002a5c:    4325        %C      ORRS     r5,r5,r4
        0x01002a5e:    0206        ..      LSLS     r6,r0,#8
        0x01002a60:    4f80        .O      LDR      r7,[pc,#512] ; [0x1002c64] = 0xf8800
        0x01002a62:    19f6        ..      ADDS     r6,r6,r7
        0x01002a64:    60b5        .`      STR      r5,[r6,#8]
        0x01002a66:    2580        .%      MOVS     r5,#0x80
        0x01002a68:    0206        ..      LSLS     r6,r0,#8
        0x01002a6a:    19f6        ..      ADDS     r6,r6,r7
        0x01002a6c:    73f5        .s      STRB     r5,[r6,#0xf]
        0x01002a6e:    bdf0        ..      POP      {r4-r7,pc}
    _dma_wait
    __tagsym$$noinline
        0x01002a70:    bf00        ..      NOP      
        0x01002a72:    0201        ..      LSLS     r1,r0,#8
        0x01002a74:    4a7b        {J      LDR      r2,[pc,#492] ; [0x1002c64] = 0xf8800
        0x01002a76:    1889        ..      ADDS     r1,r1,r2
        0x01002a78:    6909        .i      LDR      r1,[r1,#0x10]
        0x01002a7a:    07c9        ..      LSLS     r1,r1,#31
        0x01002a7c:    0fc9        ..      LSRS     r1,r1,#31
        0x01002a7e:    2900        .)      CMP      r1,#0
        0x01002a80:    d0f7        ..      BEQ      0x1002a72 ; _dma_wait + 2
        0x01002a82:    4770        pG      BX       lr
    _dmacopy
        0x01002a84:    b5f8        ..      PUSH     {r3-r7,lr}
        0x01002a86:    4604        .F      MOV      r4,r0
        0x01002a88:    460e        .F      MOV      r6,r1
        0x01002a8a:    4615        .F      MOV      r5,r2
        0x01002a8c:    4623        #F      MOV      r3,r4
        0x01002a8e:    462a        *F      MOV      r2,r5
        0x01002a90:    4631        1F      MOV      r1,r6
        0x01002a92:    2006        .       MOVS     r0,#6
        0x01002a94:    9500        ..      STR      r5,[sp,#0]
        0x01002a96:    f7ffffd7    ....    BL       _dma_start ; 0x1002a48
        0x01002a9a:    2006        .       MOVS     r0,#6
        0x01002a9c:    f7ffffe8    ....    BL       _dma_wait ; 0x1002a70
        0x01002aa0:    bdf8        ..      POP      {r3-r7,pc}
    _download_btcode
        0x01002aa2:    b570        p.      PUSH     {r4-r6,lr}
        0x01002aa4:    4604        .F      MOV      r4,r0
        0x01002aa6:    1ca4        ..      ADDS     r4,r4,#2
        0x01002aa8:    7820         x      LDRB     r0,[r4,#0]
        0x01002aaa:    7861        ax      LDRB     r1,[r4,#1]
        0x01002aac:    0209        ..      LSLS     r1,r1,#8
        0x01002aae:    22ff        ."      MOVS     r2,#0xff
        0x01002ab0:    0212        ..      LSLS     r2,r2,#8
        0x01002ab2:    4011        .@      ANDS     r1,r1,r2
        0x01002ab4:    4308        .C      ORRS     r0,r0,r1
        0x01002ab6:    496c        lI      LDR      r1,[pc,#432] ; [0x1002c68] = 0x55aa
        0x01002ab8:    4288        .B      CMP      r0,r1
        0x01002aba:    d000        ..      BEQ      0x1002abe ; _download_btcode + 28
        0x01002abc:    bd70        p.      POP      {r4-r6,pc}
        0x01002abe:    1ca4        ..      ADDS     r4,r4,#2
        0x01002ac0:    200d        .       MOVS     r0,#0xd
        0x01002ac2:    496a        jI      LDR      r1,[pc,#424] ; [0x1002c6c] = 0xf8540
        0x01002ac4:    6ac9        .j      LDR      r1,[r1,#0x2c]
        0x01002ac6:    2201        ."      MOVS     r2,#1
        0x01002ac8:    4082        .@      LSLS     r2,r2,r0
        0x01002aca:    4391        .C      BICS     r1,r1,r2
        0x01002acc:    4a67        gJ      LDR      r2,[pc,#412] ; [0x1002c6c] = 0xf8540
        0x01002ace:    62d1        .b      STR      r1,[r2,#0x2c]
        0x01002ad0:    bf00        ..      NOP      
        0x01002ad2:    7825        %x      LDRB     r5,[r4,#0]
        0x01002ad4:    7861        ax      LDRB     r1,[r4,#1]
        0x01002ad6:    0209        ..      LSLS     r1,r1,#8
        0x01002ad8:    22ff        ."      MOVS     r2,#0xff
        0x01002ada:    0212        ..      LSLS     r2,r2,#8
        0x01002adc:    4011        .@      ANDS     r1,r1,r2
        0x01002ade:    430d        .C      ORRS     r5,r5,r1
        0x01002ae0:    1ca4        ..      ADDS     r4,r4,#2
        0x01002ae2:    2000        .       MOVS     r0,#0
        0x01002ae4:    4962        bI      LDR      r1,[pc,#392] ; [0x1002c70] = 0xc8020
        0x01002ae6:    7108        .q      STRB     r0,[r1,#4]
        0x01002ae8:    7088        .p      STRB     r0,[r1,#2]
        0x01002aea:    2080        .       MOVS     r0,#0x80
        0x01002aec:    70c8        .p      STRB     r0,[r1,#3]
        0x01002aee:    2008        .       MOVS     r0,#8
        0x01002af0:    4960        `I      LDR      r1,[pc,#384] ; [0x1002c74] = 0xf8e00
        0x01002af2:    7308        .s      STRB     r0,[r1,#0xc]
        0x01002af4:    462a        *F      MOV      r2,r5
        0x01002af6:    4621        !F      MOV      r1,r4
        0x01002af8:    485d        ]H      LDR      r0,[pc,#372] ; [0x1002c70] = 0xc8020
        0x01002afa:    1d40        @.      ADDS     r0,r0,#5
        0x01002afc:    f7ffffc2    ....    BL       _dmacopy ; 0x1002a84
        0x01002b00:    2000        .       MOVS     r0,#0
        0x01002b02:    495b        [I      LDR      r1,[pc,#364] ; [0x1002c70] = 0xc8020
        0x01002b04:    70c8        .p      STRB     r0,[r1,#3]
        0x01002b06:    1964        d.      ADDS     r4,r4,r5
        0x01002b08:    495a        ZI      LDR      r1,[pc,#360] ; [0x1002c74] = 0xf8e00
        0x01002b0a:    7308        .s      STRB     r0,[r1,#0xc]
        0x01002b0c:    e018        ..      B        0x1002b40 ; _download_btcode + 158
        0x01002b0e:    1ca4        ..      ADDS     r4,r4,#2
        0x01002b10:    7820         x      LDRB     r0,[r4,#0]
        0x01002b12:    7861        ax      LDRB     r1,[r4,#1]
        0x01002b14:    0209        ..      LSLS     r1,r1,#8
        0x01002b16:    22ff        ."      MOVS     r2,#0xff
        0x01002b18:    0212        ..      LSLS     r2,r2,#8
        0x01002b1a:    4011        .@      ANDS     r1,r1,r2
        0x01002b1c:    4308        .C      ORRS     r0,r0,r1
        0x01002b1e:    4605        .F      MOV      r5,r0
        0x01002b20:    1ca4        ..      ADDS     r4,r4,#2
        0x01002b22:    7820         x      LDRB     r0,[r4,#0]
        0x01002b24:    7861        ax      LDRB     r1,[r4,#1]
        0x01002b26:    0209        ..      LSLS     r1,r1,#8
        0x01002b28:    4011        .@      ANDS     r1,r1,r2
        0x01002b2a:    4308        .C      ORRS     r0,r0,r1
        0x01002b2c:    2103        .!      MOVS     r1,#3
        0x01002b2e:    0489        ..      LSLS     r1,r1,#18
        0x01002b30:    1846        F.      ADDS     r6,r0,r1
        0x01002b32:    1ca4        ..      ADDS     r4,r4,#2
        0x01002b34:    462a        *F      MOV      r2,r5
        0x01002b36:    4621        !F      MOV      r1,r4
        0x01002b38:    4630        0F      MOV      r0,r6
        0x01002b3a:    f7ffffa3    ....    BL       _dmacopy ; 0x1002a84
        0x01002b3e:    1964        d.      ADDS     r4,r4,r5
        0x01002b40:    7820         x      LDRB     r0,[r4,#0]
        0x01002b42:    7861        ax      LDRB     r1,[r4,#1]
        0x01002b44:    0209        ..      LSLS     r1,r1,#8
        0x01002b46:    22ff        ."      MOVS     r2,#0xff
        0x01002b48:    0212        ..      LSLS     r2,r2,#8
        0x01002b4a:    4011        .@      ANDS     r1,r1,r2
        0x01002b4c:    4308        .C      ORRS     r0,r0,r1
        0x01002b4e:    4946        FI      LDR      r1,[pc,#280] ; [0x1002c68] = 0x55aa
        0x01002b50:    4288        .B      CMP      r0,r1
        0x01002b52:    d0dc        ..      BEQ      0x1002b0e ; _download_btcode + 108
        0x01002b54:    bf00        ..      NOP      
        0x01002b56:    e7b1        ..      B        0x1002abc ; _download_btcode + 26
    erase_memory
        0x01002b58:    2000        .       MOVS     r0,#0
        0x01002b5a:    e009        ..      B        0x1002b70 ; erase_memory + 24
        0x01002b5c:    2100        .!      MOVS     r1,#0
        0x01002b5e:    2203        ."      MOVS     r2,#3
        0x01002b60:    0492        ..      LSLS     r2,r2,#18
        0x01002b62:    1882        ..      ADDS     r2,r0,r2
        0x01002b64:    7011        .p      STRB     r1,[r2,#0]
        0x01002b66:    2231        1"      MOVS     r2,#0x31
        0x01002b68:    0392        ..      LSLS     r2,r2,#14
        0x01002b6a:    1882        ..      ADDS     r2,r0,r2
        0x01002b6c:    7011        .p      STRB     r1,[r2,#0]
        0x01002b6e:    1c40        @.      ADDS     r0,r0,#1
        0x01002b70:    2101        .!      MOVS     r1,#1
        0x01002b72:    0309        ..      LSLS     r1,r1,#12
        0x01002b74:    4288        .B      CMP      r0,r1
        0x01002b76:    d3f1        ..      BCC      0x1002b5c ; erase_memory + 4
        0x01002b78:    4770        pG      BX       lr
    IpcInit
        0x01002b7a:    b510        ..      PUSH     {r4,lr}
        0x01002b7c:    483e        >H      LDR      r0,[pc,#248] ; [0x1002c78] = 0x20024
        0x01002b7e:    7800        .x      LDRB     r0,[r0,#0]
        0x01002b80:    2800        .(      CMP      r0,#0
        0x01002b82:    d131        1.      BNE      0x1002be8 ; IpcInit + 110
        0x01002b84:    200b        .       MOVS     r0,#0xb
        0x01002b86:    2101        .!      MOVS     r1,#1
        0x01002b88:    4081        .@      LSLS     r1,r1,r0
        0x01002b8a:    4a3c        <J      LDR      r2,[pc,#240] ; [0x1002c7c] = 0xe000e180
        0x01002b8c:    6011        .`      STR      r1,[r2,#0]
        0x01002b8e:    bf00        ..      NOP      
        0x01002b90:    2001        .       MOVS     r0,#1
        0x01002b92:    4939        9I      LDR      r1,[pc,#228] ; [0x1002c78] = 0x20024
        0x01002b94:    7008        .p      STRB     r0,[r1,#0]
        0x01002b96:    2094        .       MOVS     r0,#0x94
        0x01002b98:    4934        4I      LDR      r1,[pc,#208] ; [0x1002c6c] = 0xf8540
        0x01002b9a:    3920         9      SUBS     r1,r1,#0x20
        0x01002b9c:    7708        .w      STRB     r0,[r1,#0x1c]
        0x01002b9e:    4838        8H      LDR      r0,[pc,#224] ; [0x1002c80] = 0x2710
        0x01002ba0:    f004f80a    ....    BL       $Ven$TT$L$$delay ; 0x1006bb8
        0x01002ba4:    2001        .       MOVS     r0,#1
        0x01002ba6:    2119        .!      MOVS     r1,#0x19
        0x01002ba8:    03c9        ..      LSLS     r1,r1,#15
        0x01002baa:    7408        .t      STRB     r0,[r1,#0x10]
        0x01002bac:    4834        4H      LDR      r0,[pc,#208] ; [0x1002c80] = 0x2710
        0x01002bae:    f004f803    ....    BL       $Ven$TT$L$$delay ; 0x1006bb8
        0x01002bb2:    bf00        ..      NOP      
        0x01002bb4:    482e        .H      LDR      r0,[pc,#184] ; [0x1002c70] = 0xc8020
        0x01002bb6:    3020         0      ADDS     r0,r0,#0x20
        0x01002bb8:    78c0        .x      LDRB     r0,[r0,#3]
        0x01002bba:    2180        .!      MOVS     r1,#0x80
        0x01002bbc:    4008        .@      ANDS     r0,r0,r1
        0x01002bbe:    2800        .(      CMP      r0,#0
        0x01002bc0:    d0f8        ..      BEQ      0x1002bb4 ; IpcInit + 58
        0x01002bc2:    482b        +H      LDR      r0,[pc,#172] ; [0x1002c70] = 0xc8020
        0x01002bc4:    3020         0      ADDS     r0,r0,#0x20
        0x01002bc6:    78c0        .x      LDRB     r0,[r0,#3]
        0x01002bc8:    4388        .C      BICS     r0,r0,r1
        0x01002bca:    4929        )I      LDR      r1,[pc,#164] ; [0x1002c70] = 0xc8020
        0x01002bcc:    3120         1      ADDS     r1,r1,#0x20
        0x01002bce:    70c8        .p      STRB     r0,[r1,#3]
        0x01002bd0:    f7ffffc2    ....    BL       erase_memory ; 0x1002b58
        0x01002bd4:    482b        +H      LDR      r0,[pc,#172] ; [0x1002c84] = 0x10077cb
        0x01002bd6:    f7ffff64    ..d.    BL       _download_btcode ; 0x1002aa2
        0x01002bda:    209c        .       MOVS     r0,#0x9c
        0x01002bdc:    4923        #I      LDR      r1,[pc,#140] ; [0x1002c6c] = 0xf8540
        0x01002bde:    3920         9      SUBS     r1,r1,#0x20
        0x01002be0:    7708        .w      STRB     r0,[r1,#0x1c]
        0x01002be2:    2064        d       MOVS     r0,#0x64
        0x01002be4:    f7fffa54    ..T.    BL       delay_ms ; 0x1002090
        0x01002be8:    bd10        ..      POP      {r4,pc}
    PrintHCIPack
        0x01002bea:    b5f8        ..      PUSH     {r3-r7,lr}
        0x01002bec:    4605        .F      MOV      r5,r0
        0x01002bee:    460e        .F      MOV      r6,r1
        0x01002bf0:    4631        1F      MOV      r1,r6
        0x01002bf2:    a025        %.      ADR      r0,{pc}+0x96 ; 0x1002c88
        0x01002bf4:    f7fdfc92    ....    BL       MyPrintf ; 0x100051c
        0x01002bf8:    782a        *x      LDRB     r2,[r5,#0]
        0x01002bfa:    4631        1F      MOV      r1,r6
        0x01002bfc:    a024        $.      ADR      r0,{pc}+0x94 ; 0x1002c90
        0x01002bfe:    f7fdfc8d    ....    BL       MyPrintf ; 0x100051c
        0x01002c02:    786a        jx      LDRB     r2,[r5,#1]
        0x01002c04:    4631        1F      MOV      r1,r6
        0x01002c06:    a026        &.      ADR      r0,{pc}+0x9a ; 0x1002ca0
        0x01002c08:    f7fdfc88    ....    BL       MyPrintf ; 0x100051c
        0x01002c0c:    78aa        .x      LDRB     r2,[r5,#2]
        0x01002c0e:    4631        1F      MOV      r1,r6
        0x01002c10:    a028        (.      ADR      r0,{pc}+0xa4 ; 0x1002cb4
        0x01002c12:    f7fdfc83    ....    BL       MyPrintf ; 0x100051c
        0x01002c16:    4631        1F      MOV      r1,r6
        0x01002c18:    a02b        +.      ADR      r0,{pc}+0xb0 ; 0x1002cc8
        0x01002c1a:    f7fdfc7f    ....    BL       MyPrintf ; 0x100051c
        0x01002c1e:    2400        .$      MOVS     r4,#0
        0x01002c20:    e016        ..      B        0x1002c50 ; PrintHCIPack + 102
        0x01002c22:    1ce8        ..      ADDS     r0,r5,#3
        0x01002c24:    f003fd18    ....    BL       __aeabi_uread4 ; 0x1006658
        0x01002c28:    5d07        .]      LDRB     r7,[r0,r4]
        0x01002c2a:    4639        9F      MOV      r1,r7
        0x01002c2c:    a029        ).      ADR      r0,{pc}+0xa8 ; 0x1002cd4
        0x01002c2e:    f7fdfc75    ..u.    BL       MyPrintf ; 0x100051c
        0x01002c32:    4620         F      MOV      r0,r4
        0x01002c34:    17e1        ..      ASRS     r1,r4,#31
        0x01002c36:    0f09        ..      LSRS     r1,r1,#28
        0x01002c38:    1809        ..      ADDS     r1,r1,r0
        0x01002c3a:    1109        ..      ASRS     r1,r1,#4
        0x01002c3c:    0109        ..      LSLS     r1,r1,#4
        0x01002c3e:    1a61        a.      SUBS     r1,r4,r1
        0x01002c40:    d104        ..      BNE      0x1002c4c ; PrintHCIPack + 98
        0x01002c42:    2c00        .,      CMP      r4,#0
        0x01002c44:    d002        ..      BEQ      0x1002c4c ; PrintHCIPack + 98
        0x01002c46:    a015        ..      ADR      r0,{pc}+0x56 ; 0x1002c9c
        0x01002c48:    f7fdfc68    ..h.    BL       MyPrintf ; 0x100051c
        0x01002c4c:    1c60        `.      ADDS     r0,r4,#1
        0x01002c4e:    b2c4        ..      UXTB     r4,r0
        0x01002c50:    78a8        .x      LDRB     r0,[r5,#2]
        0x01002c52:    42a0        .B      CMP      r0,r4
        0x01002c54:    dce5        ..      BGT      0x1002c22 ; PrintHCIPack + 56
        0x01002c56:    a011        ..      ADR      r0,{pc}+0x46 ; 0x1002c9c
        0x01002c58:    f7fdfc60    ..`.    BL       MyPrintf ; 0x100051c
        0x01002c5c:    bdf8        ..      POP      {r3-r7,pc}
    $d
        0x01002c5e:    0000        ..      DCW    0
        0x01002c60:    0002001c    ....    DCD    131100
        0x01002c64:    000f8800    ....    DCD    1017856
        0x01002c68:    000055aa    .U..    DCD    21930
        0x01002c6c:    000f8540    @...    DCD    1017152
        0x01002c70:    000c8020     ...    DCD    819232
        0x01002c74:    000f8e00    ....    DCD    1019392
        0x01002c78:    00020024    $...    DCD    131108
        0x01002c7c:    e000e180    ....    DCD    3758154112
        0x01002c80:    00002710    .'..    DCD    10000
        0x01002c84:    010077cb    .w..    DCD    16807883
        0x01002c88:    2520304d    M0 %    DCD    622866509
        0x01002c8c:    000a3a73    s:..    DCD    670323
        0x01002c90:    54207325    %s T    DCD    1411412773
        0x01002c94:    3a657079    ype:    DCD    979726457
        0x01002c98:    78323025    %02x    DCD    2016555045
        0x01002c9c:    0000000a    ....    DCD    10
        0x01002ca0:    4f207325    %s O    DCD    1327526693
        0x01002ca4:    646f4350    PCod    DCD    1685013328
        0x01002ca8:    25203a65    e: %    DCD    622869093
        0x01002cac:    0a783230    02x.    DCD    175649328
        0x01002cb0:    00000000    ....    DCD    0
        0x01002cb4:    4c207325    %s L    DCD    1277195045
        0x01002cb8:    74676e65    engt    DCD    1952935525
        0x01002cbc:    25203a68    h: %    DCD    622869096
        0x01002cc0:    0a783230    02x.    DCD    175649328
        0x01002cc4:    00000000    ....    DCD    0
        0x01002cc8:    44207325    %s D    DCD    1142977317
        0x01002ccc:    3a617461    ata:    DCD    979465313
        0x01002cd0:    0000000a    ....    DCD    10
        0x01002cd4:    78323025    %02x    DCD    2016555045
        0x01002cd8:    00000020     ...    DCD    32
    $t
    .text
    Power_Keyscan
        0x01002cdc:    4811        .H      LDR      r0,[pc,#68] ; [0x1002d24] = 0xf8500
        0x01002cde:    6841        Ah      LDR      r1,[r0,#4]
        0x01002ce0:    0fc8        ..      LSRS     r0,r1,#31
        0x01002ce2:    07c0        ..      LSLS     r0,r0,#31
        0x01002ce4:    2800        .(      CMP      r0,#0
        0x01002ce6:    d001        ..      BEQ      0x1002cec ; Power_Keyscan + 16
        0x01002ce8:    2001        .       MOVS     r0,#1
        0x01002cea:    4770        pG      BX       lr
        0x01002cec:    2000        .       MOVS     r0,#0
        0x01002cee:    e7fc        ..      B        0x1002cea ; Power_Keyscan + 14
    Power_off
        0x01002cf0:    b570        p.      PUSH     {r4-r6,lr}
        0x01002cf2:    480c        .H      LDR      r0,[pc,#48] ; [0x1002d24] = 0xf8500
        0x01002cf4:    6845        Eh      LDR      r5,[r0,#4]
        0x01002cf6:    0580        ..      LSLS     r0,r0,#22
        0x01002cf8:    4028        (@      ANDS     r0,r0,r5
        0x01002cfa:    2800        .(      CMP      r0,#0
        0x01002cfc:    d10f        ..      BNE      0x1002d1e ; Power_off + 46
        0x01002cfe:    bf00        ..      NOP      
        0x01002d00:    f7ffffec    ....    BL       Power_Keyscan ; 0x1002cdc
        0x01002d04:    2800        .(      CMP      r0,#0
        0x01002d06:    d1fb        ..      BNE      0x1002d00 ; Power_off + 16
        0x01002d08:    f001fb66    ..f.    BL       lpm_bt_read ; 0x10043d8
        0x01002d0c:    4604        .F      MOV      r4,r0
        0x01002d0e:    2201        ."      MOVS     r2,#1
        0x01002d10:    0492        ..      LSLS     r2,r2,#18
        0x01002d12:    4620         F      MOV      r0,r4
        0x01002d14:    4390        .C      BICS     r0,r0,r2
        0x01002d16:    4601        .F      MOV      r1,r0
        0x01002d18:    2000        .       MOVS     r0,#0
        0x01002d1a:    f001fb2e    ....    BL       lpm_bt_write ; 0x100437a
        0x01002d1e:    2000        .       MOVS     r0,#0
        0x01002d20:    bd70        p.      POP      {r4-r6,pc}
    $d
        0x01002d22:    0000        ..      DCW    0
        0x01002d24:    000f8500    ....    DCD    1017088
    $t
    .text
    BT_BIT_SET
        0x01002d28:    b510        ..      PUSH     {r4,lr}
        0x01002d2a:    2920         )      CMP      r1,#0x20
        0x01002d2c:    da05        ..      BGE      0x1002d3a ; BT_BIT_SET + 18
        0x01002d2e:    2301        .#      MOVS     r3,#1
        0x01002d30:    408b        .@      LSLS     r3,r3,r1
        0x01002d32:    6802        .h      LDR      r2,[r0,#0]
        0x01002d34:    431a        .C      ORRS     r2,r2,r3
        0x01002d36:    6002        .`      STR      r2,[r0,#0]
        0x01002d38:    e006        ..      B        0x1002d48 ; BT_BIT_SET + 32
        0x01002d3a:    460b        .F      MOV      r3,r1
        0x01002d3c:    3b20         ;      SUBS     r3,r3,#0x20
        0x01002d3e:    2401        .$      MOVS     r4,#1
        0x01002d40:    409c        .@      LSLS     r4,r4,r3
        0x01002d42:    6842        Bh      LDR      r2,[r0,#4]
        0x01002d44:    4322        "C      ORRS     r2,r2,r4
        0x01002d46:    6042        B`      STR      r2,[r0,#4]
        0x01002d48:    bd10        ..      POP      {r4,pc}
    BT_BIT_CLEAR
        0x01002d4a:    b510        ..      PUSH     {r4,lr}
        0x01002d4c:    2920         )      CMP      r1,#0x20
        0x01002d4e:    da05        ..      BGE      0x1002d5c ; BT_BIT_CLEAR + 18
        0x01002d50:    2301        .#      MOVS     r3,#1
        0x01002d52:    408b        .@      LSLS     r3,r3,r1
        0x01002d54:    6802        .h      LDR      r2,[r0,#0]
        0x01002d56:    439a        .C      BICS     r2,r2,r3
        0x01002d58:    6002        .`      STR      r2,[r0,#0]
        0x01002d5a:    e006        ..      B        0x1002d6a ; BT_BIT_CLEAR + 32
        0x01002d5c:    460b        .F      MOV      r3,r1
        0x01002d5e:    3b20         ;      SUBS     r3,r3,#0x20
        0x01002d60:    2401        .$      MOVS     r4,#1
        0x01002d62:    409c        .@      LSLS     r4,r4,r3
        0x01002d64:    6842        Bh      LDR      r2,[r0,#4]
        0x01002d66:    43a2        .C      BICS     r2,r2,r4
        0x01002d68:    6042        B`      STR      r2,[r0,#4]
        0x01002d6a:    bd10        ..      POP      {r4,pc}
    BT_BIT_GET
        0x01002d6c:    b510        ..      PUSH     {r4,lr}
        0x01002d6e:    4602        .F      MOV      r2,r0
        0x01002d70:    2920         )      CMP      r1,#0x20
        0x01002d72:    da06        ..      BGE      0x1002d82 ; BT_BIT_GET + 22
        0x01002d74:    2301        .#      MOVS     r3,#1
        0x01002d76:    408b        .@      LSLS     r3,r3,r1
        0x01002d78:    6810        .h      LDR      r0,[r2,#0]
        0x01002d7a:    4018        .@      ANDS     r0,r0,r3
        0x01002d7c:    40c8        .@      LSRS     r0,r0,r1
        0x01002d7e:    b2c0        ..      UXTB     r0,r0
        0x01002d80:    bd10        ..      POP      {r4,pc}
        0x01002d82:    4608        .F      MOV      r0,r1
        0x01002d84:    3820         8      SUBS     r0,r0,#0x20
        0x01002d86:    2401        .$      MOVS     r4,#1
        0x01002d88:    4084        .@      LSLS     r4,r4,r0
        0x01002d8a:    6853        Sh      LDR      r3,[r2,#4]
        0x01002d8c:    4618        .F      MOV      r0,r3
        0x01002d8e:    4020         @      ANDS     r0,r0,r4
        0x01002d90:    460b        .F      MOV      r3,r1
        0x01002d92:    3b20         ;      SUBS     r3,r3,#0x20
        0x01002d94:    40d8        .@      LSRS     r0,r0,r3
        0x01002d96:    b2c0        ..      UXTB     r0,r0
        0x01002d98:    e7f2        ..      B        0x1002d80 ; BT_BIT_GET + 20
    SkipData
        0x01002d9a:    49fe        .I      LDR      r1,[pc,#1016] ; [0x1003194] = 0x2116c
        0x01002d9c:    68c9        .h      LDR      r1,[r1,#0xc]
        0x01002d9e:    1809        ..      ADDS     r1,r1,r0
        0x01002da0:    4afc        .J      LDR      r2,[pc,#1008] ; [0x1003194] = 0x2116c
        0x01002da2:    60d1        .`      STR      r1,[r2,#0xc]
        0x01002da4:    4611        .F      MOV      r1,r2
        0x01002da6:    68c9        .h      LDR      r1,[r1,#0xc]
        0x01002da8:    6852        Rh      LDR      r2,[r2,#4]
        0x01002daa:    4291        .B      CMP      r1,r2
        0x01002dac:    db06        ..      BLT      0x1002dbc ; SkipData + 34
        0x01002dae:    49f9        .I      LDR      r1,[pc,#996] ; [0x1003194] = 0x2116c
        0x01002db0:    68c9        .h      LDR      r1,[r1,#0xc]
        0x01002db2:    4af8        .J      LDR      r2,[pc,#992] ; [0x1003194] = 0x2116c
        0x01002db4:    6852        Rh      LDR      r2,[r2,#4]
        0x01002db6:    1a89        ..      SUBS     r1,r1,r2
        0x01002db8:    4af6        .J      LDR      r2,[pc,#984] ; [0x1003194] = 0x2116c
        0x01002dba:    60d1        .`      STR      r1,[r2,#0xc]
        0x01002dbc:    49f5        .I      LDR      r1,[pc,#980] ; [0x1003194] = 0x2116c
        0x01002dbe:    6889        .h      LDR      r1,[r1,#8]
        0x01002dc0:    1a09        ..      SUBS     r1,r1,r0
        0x01002dc2:    4af4        .J      LDR      r2,[pc,#976] ; [0x1003194] = 0x2116c
        0x01002dc4:    6091        .`      STR      r1,[r2,#8]
        0x01002dc6:    4770        pG      BX       lr
    SaveData
        0x01002dc8:    b530        0.      PUSH     {r4,r5,lr}
        0x01002dca:    4602        .F      MOV      r2,r0
        0x01002dcc:    4bf1        .K      LDR      r3,[pc,#964] ; [0x1003194] = 0x2116c
        0x01002dce:    689b        .h      LDR      r3,[r3,#8]
        0x01002dd0:    185b        [.      ADDS     r3,r3,r1
        0x01002dd2:    4cf0        .L      LDR      r4,[pc,#960] ; [0x1003194] = 0x2116c
        0x01002dd4:    6864        dh      LDR      r4,[r4,#4]
        0x01002dd6:    42a3        .B      CMP      r3,r4
        0x01002dd8:    dd00        ..      BLE      0x1002ddc ; SaveData + 20
        0x01002dda:    bd30        0.      POP      {r4,r5,pc}
        0x01002ddc:    2000        .       MOVS     r0,#0
        0x01002dde:    e017        ..      B        0x1002e10 ; SaveData + 72
        0x01002de0:    5c13        .\      LDRB     r3,[r2,r0]
        0x01002de2:    4cec        .L      LDR      r4,[pc,#944] ; [0x1003194] = 0x2116c
        0x01002de4:    6824        $h      LDR      r4,[r4,#0]
        0x01002de6:    4deb        .M      LDR      r5,[pc,#940] ; [0x1003194] = 0x2116c
        0x01002de8:    692d        -i      LDR      r5,[r5,#0x10]
        0x01002dea:    5563        cU      STRB     r3,[r4,r5]
        0x01002dec:    4be9        .K      LDR      r3,[pc,#932] ; [0x1003194] = 0x2116c
        0x01002dee:    689b        .h      LDR      r3,[r3,#8]
        0x01002df0:    1c5b        [.      ADDS     r3,r3,#1
        0x01002df2:    4ce8        .L      LDR      r4,[pc,#928] ; [0x1003194] = 0x2116c
        0x01002df4:    60a3        .`      STR      r3,[r4,#8]
        0x01002df6:    4623        #F      MOV      r3,r4
        0x01002df8:    691b        .i      LDR      r3,[r3,#0x10]
        0x01002dfa:    1c5b        [.      ADDS     r3,r3,#1
        0x01002dfc:    6123        #a      STR      r3,[r4,#0x10]
        0x01002dfe:    4623        #F      MOV      r3,r4
        0x01002e00:    691b        .i      LDR      r3,[r3,#0x10]
        0x01002e02:    6864        dh      LDR      r4,[r4,#4]
        0x01002e04:    42a3        .B      CMP      r3,r4
        0x01002e06:    db02        ..      BLT      0x1002e0e ; SaveData + 70
        0x01002e08:    2300        .#      MOVS     r3,#0
        0x01002e0a:    4ce2        .L      LDR      r4,[pc,#904] ; [0x1003194] = 0x2116c
        0x01002e0c:    6123        #a      STR      r3,[r4,#0x10]
        0x01002e0e:    1c40        @.      ADDS     r0,r0,#1
        0x01002e10:    4288        .B      CMP      r0,r1
        0x01002e12:    dbe5        ..      BLT      0x1002de0 ; SaveData + 24
        0x01002e14:    bf00        ..      NOP      
        0x01002e16:    e7e0        ..      B        0x1002dda ; SaveData + 18
    BNEP_DomainConvert
        0x01002e18:    b5ff        ..      PUSH     {r0-r7,lr}
        0x01002e1a:    4604        .F      MOV      r4,r0
        0x01002e1c:    2100        .!      MOVS     r1,#0
        0x01002e1e:    2001        .       MOVS     r0,#1
        0x01002e20:    6018        .`      STR      r0,[r3,#0]
        0x01002e22:    2500        .%      MOVS     r5,#0
        0x01002e24:    e01d        ..      B        0x1002e62 ; BNEP_DomainConvert + 74
        0x01002e26:    1c48        H.      ADDS     r0,r1,#1
        0x01002e28:    b2c1        ..      UXTB     r1,r0
        0x01002e2a:    7820         x      LDRB     r0,[r4,#0]
        0x01002e2c:    282e        .(      CMP      r0,#0x2e
        0x01002e2e:    d10d        ..      BNE      0x1002e4c ; BNEP_DomainConvert + 52
        0x01002e30:    1e48        H.      SUBS     r0,r1,#1
        0x01002e32:    5550        PU      STRB     r0,[r2,r5]
        0x01002e34:    681d        .h      LDR      r5,[r3,#0]
        0x01002e36:    6818        .h      LDR      r0,[r3,#0]
        0x01002e38:    1c40        @.      ADDS     r0,r0,#1
        0x01002e3a:    6018        .`      STR      r0,[r3,#0]
        0x01002e3c:    6818        .h      LDR      r0,[r3,#0]
        0x01002e3e:    283e        >(      CMP      r0,#0x3e
        0x01002e40:    db02        ..      BLT      0x1002e48 ; BNEP_DomainConvert + 48
        0x01002e42:    2000        .       MOVS     r0,#0
        0x01002e44:    b004        ..      ADD      sp,sp,#0x10
        0x01002e46:    bdf0        ..      POP      {r4-r7,pc}
        0x01002e48:    2100        .!      MOVS     r1,#0
        0x01002e4a:    e009        ..      B        0x1002e60 ; BNEP_DomainConvert + 72
        0x01002e4c:    7826        &x      LDRB     r6,[r4,#0]
        0x01002e4e:    681f        .h      LDR      r7,[r3,#0]
        0x01002e50:    1c78        x.      ADDS     r0,r7,#1
        0x01002e52:    6018        .`      STR      r0,[r3,#0]
        0x01002e54:    55d6        .U      STRB     r6,[r2,r7]
        0x01002e56:    6818        .h      LDR      r0,[r3,#0]
        0x01002e58:    283e        >(      CMP      r0,#0x3e
        0x01002e5a:    db01        ..      BLT      0x1002e60 ; BNEP_DomainConvert + 72
        0x01002e5c:    2000        .       MOVS     r0,#0
        0x01002e5e:    e7f1        ..      B        0x1002e44 ; BNEP_DomainConvert + 44
        0x01002e60:    1c64        d.      ADDS     r4,r4,#1
        0x01002e62:    9801        ..      LDR      r0,[sp,#4]
        0x01002e64:    1e46        F.      SUBS     r6,r0,#1
        0x01002e66:    b2f6        ..      UXTB     r6,r6
        0x01002e68:    9601        ..      STR      r6,[sp,#4]
        0x01002e6a:    2800        .(      CMP      r0,#0
        0x01002e6c:    d1db        ..      BNE      0x1002e26 ; BNEP_DomainConvert + 14
        0x01002e6e:    5551        QU      STRB     r1,[r2,r5]
        0x01002e70:    2600        .&      MOVS     r6,#0
        0x01002e72:    681f        .h      LDR      r7,[r3,#0]
        0x01002e74:    1c78        x.      ADDS     r0,r7,#1
        0x01002e76:    6018        .`      STR      r0,[r3,#0]
        0x01002e78:    55d6        .U      STRB     r6,[r2,r7]
        0x01002e7a:    6818        .h      LDR      r0,[r3,#0]
        0x01002e7c:    283e        >(      CMP      r0,#0x3e
        0x01002e7e:    db01        ..      BLT      0x1002e84 ; BNEP_DomainConvert + 108
        0x01002e80:    2000        .       MOVS     r0,#0
        0x01002e82:    e7df        ..      B        0x1002e44 ; BNEP_DomainConvert + 44
        0x01002e84:    2001        .       MOVS     r0,#1
        0x01002e86:    e7dd        ..      B        0x1002e44 ; BNEP_DomainConvert + 44
    BT_Init
        0x01002e88:    b510        ..      PUSH     {r4,lr}
        0x01002e8a:    2001        .       MOVS     r0,#1
        0x01002e8c:    02c0        ..      LSLS     r0,r0,#11
        0x01002e8e:    49c1        .I      LDR      r1,[pc,#772] ; [0x1003194] = 0x2116c
        0x01002e90:    6048        H`      STR      r0,[r1,#4]
        0x01002e92:    48c1        .H      LDR      r0,[pc,#772] ; [0x1003198] = 0x2096c
        0x01002e94:    6008        .`      STR      r0,[r1,#0]
        0x01002e96:    2000        .       MOVS     r0,#0
        0x01002e98:    6088        .`      STR      r0,[r1,#8]
        0x01002e9a:    60c8        .`      STR      r0,[r1,#0xc]
        0x01002e9c:    6108        .a      STR      r0,[r1,#0x10]
        0x01002e9e:    49bf        .I      LDR      r1,[pc,#764] ; [0x100319c] = 0x2002c
        0x01002ea0:    6008        .`      STR      r0,[r1,#0]
        0x01002ea2:    6048        H`      STR      r0,[r1,#4]
        0x01002ea4:    49be        .I      LDR      r1,[pc,#760] ; [0x10031a0] = 0x20028
        0x01002ea6:    6008        .`      STR      r0,[r1,#0]
        0x01002ea8:    49be        .I      LDR      r1,[pc,#760] ; [0x10031a4] = 0x2003c
        0x01002eaa:    6008        .`      STR      r0,[r1,#0]
        0x01002eac:    2400        .$      MOVS     r4,#0
        0x01002eae:    e003        ..      B        0x1002eb8 ; BT_Init + 48
        0x01002eb0:    2000        .       MOVS     r0,#0
        0x01002eb2:    49bd        .I      LDR      r1,[pc,#756] ; [0x10031a8] = 0x20034
        0x01002eb4:    5508        .U      STRB     r0,[r1,r4]
        0x01002eb6:    1c64        d.      ADDS     r4,r4,#1
        0x01002eb8:    2c05        .,      CMP      r4,#5
        0x01002eba:    dbf9        ..      BLT      0x1002eb0 ; BT_Init + 40
        0x01002ebc:    2400        .$      MOVS     r4,#0
        0x01002ebe:    e003        ..      B        0x1002ec8 ; BT_Init + 64
        0x01002ec0:    2000        .       MOVS     r0,#0
        0x01002ec2:    49b5        .I      LDR      r1,[pc,#724] ; [0x1003198] = 0x2096c
        0x01002ec4:    5508        .U      STRB     r0,[r1,r4]
        0x01002ec6:    1c64        d.      ADDS     r4,r4,#1
        0x01002ec8:    2001        .       MOVS     r0,#1
        0x01002eca:    02c0        ..      LSLS     r0,r0,#11
        0x01002ecc:    4284        .B      CMP      r4,r0
        0x01002ece:    dbf7        ..      BLT      0x1002ec0 ; BT_Init + 56
        0x01002ed0:    49b6        .I      LDR      r1,[pc,#728] ; [0x10031ac] = 0x20043
        0x01002ed2:    48b7        .H      LDR      r0,[pc,#732] ; [0x10031b0] = 0x2086c
        0x01002ed4:    f003fbca    ....    BL       __aeabi_uwrite4 ; 0x100666c
        0x01002ed8:    f7fffe4f    ..O.    BL       IpcInit ; 0x1002b7a
        0x01002edc:    2001        .       MOVS     r0,#1
        0x01002ede:    bd10        ..      POP      {r4,pc}
    GetData
        0x01002ee0:    4601        .F      MOV      r1,r0
        0x01002ee2:    4aac        .J      LDR      r2,[pc,#688] ; [0x1003194] = 0x2116c
        0x01002ee4:    6812        .h      LDR      r2,[r2,#0]
        0x01002ee6:    4bab        .K      LDR      r3,[pc,#684] ; [0x1003194] = 0x2116c
        0x01002ee8:    68db        .h      LDR      r3,[r3,#0xc]
        0x01002eea:    5cd0        .\      LDRB     r0,[r2,r3]
        0x01002eec:    2900        .)      CMP      r1,#0
        0x01002eee:    d010        ..      BEQ      0x1002f12 ; GetData + 50
        0x01002ef0:    4aa8        .J      LDR      r2,[pc,#672] ; [0x1003194] = 0x2116c
        0x01002ef2:    6892        .h      LDR      r2,[r2,#8]
        0x01002ef4:    1e52        R.      SUBS     r2,r2,#1
        0x01002ef6:    4ba7        .K      LDR      r3,[pc,#668] ; [0x1003194] = 0x2116c
        0x01002ef8:    609a        .`      STR      r2,[r3,#8]
        0x01002efa:    461a        .F      MOV      r2,r3
        0x01002efc:    68d2        .h      LDR      r2,[r2,#0xc]
        0x01002efe:    1c52        R.      ADDS     r2,r2,#1
        0x01002f00:    60da        .`      STR      r2,[r3,#0xc]
        0x01002f02:    461a        .F      MOV      r2,r3
        0x01002f04:    68d2        .h      LDR      r2,[r2,#0xc]
        0x01002f06:    685b        [h      LDR      r3,[r3,#4]
        0x01002f08:    429a        .B      CMP      r2,r3
        0x01002f0a:    db02        ..      BLT      0x1002f12 ; GetData + 50
        0x01002f0c:    2200        ."      MOVS     r2,#0
        0x01002f0e:    4ba1        .K      LDR      r3,[pc,#644] ; [0x1003194] = 0x2116c
        0x01002f10:    60da        .`      STR      r2,[r3,#0xc]
        0x01002f12:    4770        pG      BX       lr
    SendCMD
        0x01002f14:    b510        ..      PUSH     {r4,lr}
        0x01002f16:    4604        .F      MOV      r4,r0
        0x01002f18:    f7fffb8c    ....    BL       IPC_get_available_size ; 0x1002634
        0x01002f1c:    78a1        .x      LDRB     r1,[r4,#2]
        0x01002f1e:    1cc9        ..      ADDS     r1,r1,#3
        0x01002f20:    4288        .B      CMP      r0,r1
        0x01002f22:    da01        ..      BGE      0x1002f28 ; SendCMD + 20
        0x01002f24:    2000        .       MOVS     r0,#0
        0x01002f26:    bd10        ..      POP      {r4,pc}
        0x01002f28:    2001        .       MOVS     r0,#1
        0x01002f2a:    7020         p      STRB     r0,[r4,#0]
        0x01002f2c:    4620         F      MOV      r0,r4
        0x01002f2e:    f7fffbb7    ....    BL       IPC_TxData ; 0x10026a0
        0x01002f32:    2001        .       MOVS     r0,#1
        0x01002f34:    e7f7        ..      B        0x1002f26 ; SendCMD + 18
    BT_SetBtAddr
        0x01002f36:    b51c        ..      PUSH     {r2-r4,lr}
        0x01002f38:    4604        .F      MOV      r4,r0
        0x01002f3a:    2100        .!      MOVS     r1,#0
        0x01002f3c:    4668        hF      MOV      r0,sp
        0x01002f3e:    7041        Ap      STRB     r1,[r0,#1]
        0x01002f40:    2106        .!      MOVS     r1,#6
        0x01002f42:    7081        .p      STRB     r1,[r0,#2]
        0x01002f44:    1cc1        ..      ADDS     r1,r0,#3
        0x01002f46:    4620         F      MOV      r0,r4
        0x01002f48:    f003fb90    ....    BL       __aeabi_uwrite4 ; 0x100666c
        0x01002f4c:    2100        .!      MOVS     r1,#0
        0x01002f4e:    4893        .H      LDR      r0,[pc,#588] ; [0x100319c] = 0x2002c
        0x01002f50:    f7fffefb    ....    BL       BT_BIT_CLEAR ; 0x1002d4a
        0x01002f54:    4668        hF      MOV      r0,sp
        0x01002f56:    f7ffffdd    ....    BL       SendCMD ; 0x1002f14
        0x01002f5a:    f7fefd8d    ....    BL       SysTick_GetTick ; 0x1001a78
        0x01002f5e:    4990        .I      LDR      r1,[pc,#576] ; [0x10031a0] = 0x20028
        0x01002f60:    6008        .`      STR      r0,[r1,#0]
        0x01002f62:    bf00        ..      NOP      
        0x01002f64:    2100        .!      MOVS     r1,#0
        0x01002f66:    488d        .H      LDR      r0,[pc,#564] ; [0x100319c] = 0x2002c
        0x01002f68:    f7ffff00    ....    BL       BT_BIT_GET ; 0x1002d6c
        0x01002f6c:    2800        .(      CMP      r0,#0
        0x01002f6e:    d001        ..      BEQ      0x1002f74 ; BT_SetBtAddr + 62
        0x01002f70:    2001        .       MOVS     r0,#1
        0x01002f72:    bd1c        ..      POP      {r2-r4,pc}
        0x01002f74:    21ff        .!      MOVS     r1,#0xff
        0x01002f76:    31f5        .1      ADDS     r1,r1,#0xf5
        0x01002f78:    4889        .H      LDR      r0,[pc,#548] ; [0x10031a0] = 0x20028
        0x01002f7a:    6800        .h      LDR      r0,[r0,#0]
        0x01002f7c:    f7fefd7f    ....    BL       SysTick_IsTimeOut ; 0x1001a7e
        0x01002f80:    2800        .(      CMP      r0,#0
        0x01002f82:    d0ef        ..      BEQ      0x1002f64 ; BT_SetBtAddr + 46
        0x01002f84:    2000        .       MOVS     r0,#0
        0x01002f86:    e7f4        ..      B        0x1002f72 ; BT_SetBtAddr + 60
    BT_SetBleAddr
        0x01002f88:    b51c        ..      PUSH     {r2-r4,lr}
        0x01002f8a:    4604        .F      MOV      r4,r0
        0x01002f8c:    2101        .!      MOVS     r1,#1
        0x01002f8e:    4668        hF      MOV      r0,sp
        0x01002f90:    7041        Ap      STRB     r1,[r0,#1]
        0x01002f92:    2106        .!      MOVS     r1,#6
        0x01002f94:    7081        .p      STRB     r1,[r0,#2]
        0x01002f96:    1cc1        ..      ADDS     r1,r0,#3
        0x01002f98:    4620         F      MOV      r0,r4
        0x01002f9a:    f003fb67    ..g.    BL       __aeabi_uwrite4 ; 0x100666c
        0x01002f9e:    2101        .!      MOVS     r1,#1
        0x01002fa0:    487e        ~H      LDR      r0,[pc,#504] ; [0x100319c] = 0x2002c
        0x01002fa2:    f7fffed2    ....    BL       BT_BIT_CLEAR ; 0x1002d4a
        0x01002fa6:    4668        hF      MOV      r0,sp
        0x01002fa8:    f7ffffb4    ....    BL       SendCMD ; 0x1002f14
        0x01002fac:    f7fefd64    ..d.    BL       SysTick_GetTick ; 0x1001a78
        0x01002fb0:    497b        {I      LDR      r1,[pc,#492] ; [0x10031a0] = 0x20028
        0x01002fb2:    6008        .`      STR      r0,[r1,#0]
        0x01002fb4:    bf00        ..      NOP      
        0x01002fb6:    2101        .!      MOVS     r1,#1
        0x01002fb8:    4878        xH      LDR      r0,[pc,#480] ; [0x100319c] = 0x2002c
        0x01002fba:    f7fffed7    ....    BL       BT_BIT_GET ; 0x1002d6c
        0x01002fbe:    2800        .(      CMP      r0,#0
        0x01002fc0:    d001        ..      BEQ      0x1002fc6 ; BT_SetBleAddr + 62
        0x01002fc2:    2001        .       MOVS     r0,#1
        0x01002fc4:    bd1c        ..      POP      {r2-r4,pc}
        0x01002fc6:    21ff        .!      MOVS     r1,#0xff
        0x01002fc8:    31f5        .1      ADDS     r1,r1,#0xf5
        0x01002fca:    4875        uH      LDR      r0,[pc,#468] ; [0x10031a0] = 0x20028
        0x01002fcc:    6800        .h      LDR      r0,[r0,#0]
        0x01002fce:    f7fefd56    ..V.    BL       SysTick_IsTimeOut ; 0x1001a7e
        0x01002fd2:    2800        .(      CMP      r0,#0
        0x01002fd4:    d0ef        ..      BEQ      0x1002fb6 ; BT_SetBleAddr + 46
        0x01002fd6:    2000        .       MOVS     r0,#0
        0x01002fd8:    e7f4        ..      B        0x1002fc4 ; BT_SetBleAddr + 60
    BT_SetVisibility
        0x01002fda:    b5fe        ..      PUSH     {r1-r7,lr}
        0x01002fdc:    4604        .F      MOV      r4,r0
        0x01002fde:    460d        .F      MOV      r5,r1
        0x01002fe0:    4616        .F      MOV      r6,r2
        0x01002fe2:    2000        .       MOVS     r0,#0
        0x01002fe4:    9000        ..      STR      r0,[sp,#0]
        0x01002fe6:    2c01        .,      CMP      r4,#1
        0x01002fe8:    d104        ..      BNE      0x1002ff4 ; BT_SetVisibility + 26
        0x01002fea:    4669        iF      MOV      r1,sp
        0x01002fec:    7808        .x      LDRB     r0,[r1,#0]
        0x01002fee:    2101        .!      MOVS     r1,#1
        0x01002ff0:    4308        .C      ORRS     r0,r0,r1
        0x01002ff2:    9000        ..      STR      r0,[sp,#0]
        0x01002ff4:    2d01        .-      CMP      r5,#1
        0x01002ff6:    d104        ..      BNE      0x1003002 ; BT_SetVisibility + 40
        0x01002ff8:    4669        iF      MOV      r1,sp
        0x01002ffa:    7808        .x      LDRB     r0,[r1,#0]
        0x01002ffc:    2102        .!      MOVS     r1,#2
        0x01002ffe:    4308        .C      ORRS     r0,r0,r1
        0x01003000:    9000        ..      STR      r0,[sp,#0]
        0x01003002:    2e01        ..      CMP      r6,#1
        0x01003004:    d104        ..      BNE      0x1003010 ; BT_SetVisibility + 54
        0x01003006:    4669        iF      MOV      r1,sp
        0x01003008:    7808        .x      LDRB     r0,[r1,#0]
        0x0100300a:    2104        .!      MOVS     r1,#4
        0x0100300c:    4308        .C      ORRS     r0,r0,r1
        0x0100300e:    9000        ..      STR      r0,[sp,#0]
        0x01003010:    2102        .!      MOVS     r1,#2
        0x01003012:    4668        hF      MOV      r0,sp
        0x01003014:    7141        Aq      STRB     r1,[r0,#5]
        0x01003016:    2101        .!      MOVS     r1,#1
        0x01003018:    7181        .q      STRB     r1,[r0,#6]
        0x0100301a:    1dc1        ..      ADDS     r1,r0,#7
        0x0100301c:    f003fb26    ..&.    BL       __aeabi_uwrite4 ; 0x100666c
        0x01003020:    2102        .!      MOVS     r1,#2
        0x01003022:    485e        ^H      LDR      r0,[pc,#376] ; [0x100319c] = 0x2002c
        0x01003024:    f7fffe91    ....    BL       BT_BIT_CLEAR ; 0x1002d4a
        0x01003028:    a801        ..      ADD      r0,sp,#4
        0x0100302a:    f7ffff73    ..s.    BL       SendCMD ; 0x1002f14
        0x0100302e:    f7fefd23    ..#.    BL       SysTick_GetTick ; 0x1001a78
        0x01003032:    495b        [I      LDR      r1,[pc,#364] ; [0x10031a0] = 0x20028
        0x01003034:    6008        .`      STR      r0,[r1,#0]
        0x01003036:    bf00        ..      NOP      
        0x01003038:    2102        .!      MOVS     r1,#2
        0x0100303a:    4858        XH      LDR      r0,[pc,#352] ; [0x100319c] = 0x2002c
        0x0100303c:    f7fffe96    ....    BL       BT_BIT_GET ; 0x1002d6c
        0x01003040:    2800        .(      CMP      r0,#0
        0x01003042:    d001        ..      BEQ      0x1003048 ; BT_SetVisibility + 110
        0x01003044:    2001        .       MOVS     r0,#1
        0x01003046:    bdfe        ..      POP      {r1-r7,pc}
        0x01003048:    21ff        .!      MOVS     r1,#0xff
        0x0100304a:    31f5        .1      ADDS     r1,r1,#0xf5
        0x0100304c:    4854        TH      LDR      r0,[pc,#336] ; [0x10031a0] = 0x20028
        0x0100304e:    6800        .h      LDR      r0,[r0,#0]
        0x01003050:    f7fefd15    ....    BL       SysTick_IsTimeOut ; 0x1001a7e
        0x01003054:    2800        .(      CMP      r0,#0
        0x01003056:    d0ef        ..      BEQ      0x1003038 ; BT_SetVisibility + 94
        0x01003058:    2000        .       MOVS     r0,#0
        0x0100305a:    e7f4        ..      B        0x1003046 ; BT_SetVisibility + 108
    BT_SetBtName
        0x0100305c:    b57c        |.      PUSH     {r2-r6,lr}
        0x0100305e:    4605        .F      MOV      r5,r0
        0x01003060:    460c        .F      MOV      r4,r1
        0x01003062:    2103        .!      MOVS     r1,#3
        0x01003064:    4668        hF      MOV      r0,sp
        0x01003066:    7041        Ap      STRB     r1,[r0,#1]
        0x01003068:    7084        .p      STRB     r4,[r0,#2]
        0x0100306a:    4469        iD      ADD      r1,sp,r1
        0x0100306c:    4628        (F      MOV      r0,r5
        0x0100306e:    f003fafd    ....    BL       __aeabi_uwrite4 ; 0x100666c
        0x01003072:    2103        .!      MOVS     r1,#3
        0x01003074:    4849        IH      LDR      r0,[pc,#292] ; [0x100319c] = 0x2002c
        0x01003076:    f7fffe68    ..h.    BL       BT_BIT_CLEAR ; 0x1002d4a
        0x0100307a:    4668        hF      MOV      r0,sp
        0x0100307c:    f7ffff4a    ..J.    BL       SendCMD ; 0x1002f14
        0x01003080:    f7fefcfa    ....    BL       SysTick_GetTick ; 0x1001a78
        0x01003084:    4946        FI      LDR      r1,[pc,#280] ; [0x10031a0] = 0x20028
        0x01003086:    6008        .`      STR      r0,[r1,#0]
        0x01003088:    bf00        ..      NOP      
        0x0100308a:    2103        .!      MOVS     r1,#3
        0x0100308c:    4843        CH      LDR      r0,[pc,#268] ; [0x100319c] = 0x2002c
        0x0100308e:    f7fffe6d    ..m.    BL       BT_BIT_GET ; 0x1002d6c
        0x01003092:    2800        .(      CMP      r0,#0
        0x01003094:    d001        ..      BEQ      0x100309a ; BT_SetBtName + 62
        0x01003096:    2001        .       MOVS     r0,#1
        0x01003098:    bd7c        |.      POP      {r2-r6,pc}
        0x0100309a:    21ff        .!      MOVS     r1,#0xff
        0x0100309c:    31f5        .1      ADDS     r1,r1,#0xf5
        0x0100309e:    4840        @H      LDR      r0,[pc,#256] ; [0x10031a0] = 0x20028
        0x010030a0:    6800        .h      LDR      r0,[r0,#0]
        0x010030a2:    f7fefcec    ....    BL       SysTick_IsTimeOut ; 0x1001a7e
        0x010030a6:    2800        .(      CMP      r0,#0
        0x010030a8:    d0ef        ..      BEQ      0x100308a ; BT_SetBtName + 46
        0x010030aa:    2000        .       MOVS     r0,#0
        0x010030ac:    e7f4        ..      B        0x1003098 ; BT_SetBtName + 60
    BT_SetBleName
        0x010030ae:    b57c        |.      PUSH     {r2-r6,lr}
        0x010030b0:    4605        .F      MOV      r5,r0
        0x010030b2:    460c        .F      MOV      r4,r1
        0x010030b4:    2104        .!      MOVS     r1,#4
        0x010030b6:    4668        hF      MOV      r0,sp
        0x010030b8:    7041        Ap      STRB     r1,[r0,#1]
        0x010030ba:    7084        .p      STRB     r4,[r0,#2]
        0x010030bc:    1cc1        ..      ADDS     r1,r0,#3
        0x010030be:    4628        (F      MOV      r0,r5
        0x010030c0:    f003fad4    ....    BL       __aeabi_uwrite4 ; 0x100666c
        0x010030c4:    2104        .!      MOVS     r1,#4
        0x010030c6:    4835        5H      LDR      r0,[pc,#212] ; [0x100319c] = 0x2002c
        0x010030c8:    f7fffe3f    ..?.    BL       BT_BIT_CLEAR ; 0x1002d4a
        0x010030cc:    4668        hF      MOV      r0,sp
        0x010030ce:    f7ffff21    ..!.    BL       SendCMD ; 0x1002f14
        0x010030d2:    f7fefcd1    ....    BL       SysTick_GetTick ; 0x1001a78
        0x010030d6:    4932        2I      LDR      r1,[pc,#200] ; [0x10031a0] = 0x20028
        0x010030d8:    6008        .`      STR      r0,[r1,#0]
        0x010030da:    bf00        ..      NOP      
        0x010030dc:    2104        .!      MOVS     r1,#4
        0x010030de:    482f        /H      LDR      r0,[pc,#188] ; [0x100319c] = 0x2002c
        0x010030e0:    f7fffe44    ..D.    BL       BT_BIT_GET ; 0x1002d6c
        0x010030e4:    2800        .(      CMP      r0,#0
        0x010030e6:    d001        ..      BEQ      0x10030ec ; BT_SetBleName + 62
        0x010030e8:    2001        .       MOVS     r0,#1
        0x010030ea:    bd7c        |.      POP      {r2-r6,pc}
        0x010030ec:    21ff        .!      MOVS     r1,#0xff
        0x010030ee:    31f5        .1      ADDS     r1,r1,#0xf5
        0x010030f0:    482b        +H      LDR      r0,[pc,#172] ; [0x10031a0] = 0x20028
        0x010030f2:    6800        .h      LDR      r0,[r0,#0]
        0x010030f4:    f7fefcc3    ....    BL       SysTick_IsTimeOut ; 0x1001a7e
        0x010030f8:    2800        .(      CMP      r0,#0
        0x010030fa:    d0ef        ..      BEQ      0x10030dc ; BT_SetBleName + 46
        0x010030fc:    2000        .       MOVS     r0,#0
        0x010030fe:    e7f4        ..      B        0x10030ea ; BT_SetBleName + 60
    BT_SendSppData
        0x01003100:    b57c        |.      PUSH     {r2-r6,lr}
        0x01003102:    4605        .F      MOV      r5,r0
        0x01003104:    460c        .F      MOV      r4,r1
        0x01003106:    2c00        .,      CMP      r4,#0
        0x01003108:    d001        ..      BEQ      0x100310e ; BT_SendSppData + 14
        0x0100310a:    2cff        .,      CMP      r4,#0xff
        0x0100310c:    dd01        ..      BLE      0x1003112 ; BT_SendSppData + 18
        0x0100310e:    2000        .       MOVS     r0,#0
        0x01003110:    bd7c        |.      POP      {r2-r6,pc}
        0x01003112:    2105        .!      MOVS     r1,#5
        0x01003114:    4668        hF      MOV      r0,sp
        0x01003116:    7041        Ap      STRB     r1,[r0,#1]
        0x01003118:    7084        .p      STRB     r4,[r0,#2]
        0x0100311a:    1cc1        ..      ADDS     r1,r0,#3
        0x0100311c:    4628        (F      MOV      r0,r5
        0x0100311e:    f003faa5    ....    BL       __aeabi_uwrite4 ; 0x100666c
        0x01003122:    2105        .!      MOVS     r1,#5
        0x01003124:    481d        .H      LDR      r0,[pc,#116] ; [0x100319c] = 0x2002c
        0x01003126:    f7fffe10    ....    BL       BT_BIT_CLEAR ; 0x1002d4a
        0x0100312a:    4668        hF      MOV      r0,sp
        0x0100312c:    f7fffef2    ....    BL       SendCMD ; 0x1002f14
        0x01003130:    f7fefca2    ....    BL       SysTick_GetTick ; 0x1001a78
        0x01003134:    491a        .I      LDR      r1,[pc,#104] ; [0x10031a0] = 0x20028
        0x01003136:    6008        .`      STR      r0,[r1,#0]
        0x01003138:    bf00        ..      NOP      
        0x0100313a:    2105        .!      MOVS     r1,#5
        0x0100313c:    4817        .H      LDR      r0,[pc,#92] ; [0x100319c] = 0x2002c
        0x0100313e:    f7fffe15    ....    BL       BT_BIT_GET ; 0x1002d6c
        0x01003142:    2800        .(      CMP      r0,#0
        0x01003144:    d001        ..      BEQ      0x100314a ; BT_SendSppData + 74
        0x01003146:    2001        .       MOVS     r0,#1
        0x01003148:    e7e2        ..      B        0x1003110 ; BT_SendSppData + 16
        0x0100314a:    21ff        .!      MOVS     r1,#0xff
        0x0100314c:    31f5        .1      ADDS     r1,r1,#0xf5
        0x0100314e:    4814        .H      LDR      r0,[pc,#80] ; [0x10031a0] = 0x20028
        0x01003150:    6800        .h      LDR      r0,[r0,#0]
        0x01003152:    f7fefc94    ....    BL       SysTick_IsTimeOut ; 0x1001a7e
        0x01003156:    2800        .(      CMP      r0,#0
        0x01003158:    d0ef        ..      BEQ      0x100313a ; BT_SendSppData + 58
        0x0100315a:    2000        .       MOVS     r0,#0
        0x0100315c:    e7d8        ..      B        0x1003110 ; BT_SendSppData + 16
    BT_SendBleData
        0x0100315e:    b57c        |.      PUSH     {r2-r6,lr}
        0x01003160:    4605        .F      MOV      r5,r0
        0x01003162:    460c        .F      MOV      r4,r1
        0x01003164:    2c02        .,      CMP      r4,#2
        0x01003166:    db01        ..      BLT      0x100316c ; BT_SendBleData + 14
        0x01003168:    2cff        .,      CMP      r4,#0xff
        0x0100316a:    dd01        ..      BLE      0x1003170 ; BT_SendBleData + 18
        0x0100316c:    2000        .       MOVS     r0,#0
        0x0100316e:    bd7c        |.      POP      {r2-r6,pc}
        0x01003170:    2109        .!      MOVS     r1,#9
        0x01003172:    4668        hF      MOV      r0,sp
        0x01003174:    7041        Ap      STRB     r1,[r0,#1]
        0x01003176:    7084        .p      STRB     r4,[r0,#2]
        0x01003178:    1cc1        ..      ADDS     r1,r0,#3
        0x0100317a:    4628        (F      MOV      r0,r5
        0x0100317c:    f003fa76    ..v.    BL       __aeabi_uwrite4 ; 0x100666c
        0x01003180:    2106        .!      MOVS     r1,#6
        0x01003182:    4806        .H      LDR      r0,[pc,#24] ; [0x100319c] = 0x2002c
        0x01003184:    f7fffde1    ....    BL       BT_BIT_CLEAR ; 0x1002d4a
        0x01003188:    4668        hF      MOV      r0,sp
        0x0100318a:    f7fffec3    ....    BL       SendCMD ; 0x1002f14
        0x0100318e:    f7fefc73    ..s.    BL       SysTick_GetTick ; 0x1001a78
        0x01003192:    e00f        ..      B        0x10031b4 ; BT_SendBleData + 86
    $d
        0x01003194:    0002116c    l...    DCD    135532
        0x01003198:    0002096c    l...    DCD    133484
        0x0100319c:    0002002c    ,...    DCD    131116
        0x010031a0:    00020028    (...    DCD    131112
        0x010031a4:    0002003c    <...    DCD    131132
        0x010031a8:    00020034    4...    DCD    131124
        0x010031ac:    00020043    C...    DCD    131139
        0x010031b0:    0002086c    l...    DCD    133228
    $t
        0x010031b4:    49fb        .I      LDR      r1,[pc,#1004] ; [0x10035a4] = 0x20028
        0x010031b6:    6008        .`      STR      r0,[r1,#0]
        0x010031b8:    bf00        ..      NOP      
        0x010031ba:    2106        .!      MOVS     r1,#6
        0x010031bc:    48fa        .H      LDR      r0,[pc,#1000] ; [0x10035a8] = 0x2002c
        0x010031be:    f7fffdd5    ....    BL       BT_BIT_GET ; 0x1002d6c
        0x010031c2:    2800        .(      CMP      r0,#0
        0x010031c4:    d001        ..      BEQ      0x10031ca ; BT_SendBleData + 108
        0x010031c6:    2001        .       MOVS     r0,#1
        0x010031c8:    e7d1        ..      B        0x100316e ; BT_SendBleData + 16
        0x010031ca:    21ff        .!      MOVS     r1,#0xff
        0x010031cc:    31f5        .1      ADDS     r1,r1,#0xf5
        0x010031ce:    48f5        .H      LDR      r0,[pc,#980] ; [0x10035a4] = 0x20028
        0x010031d0:    6800        .h      LDR      r0,[r0,#0]
        0x010031d2:    f7fefc54    ..T.    BL       SysTick_IsTimeOut ; 0x1001a7e
        0x010031d6:    2800        .(      CMP      r0,#0
        0x010031d8:    d0ef        ..      BEQ      0x10031ba ; BT_SendBleData + 92
        0x010031da:    2000        .       MOVS     r0,#0
        0x010031dc:    e7c7        ..      B        0x100316e ; BT_SendBleData + 16
    Bt_GetBtStatus
        0x010031de:    b51c        ..      PUSH     {r2-r4,lr}
        0x010031e0:    210b        .!      MOVS     r1,#0xb
        0x010031e2:    4668        hF      MOV      r0,sp
        0x010031e4:    7041        Ap      STRB     r1,[r0,#1]
        0x010031e6:    2100        .!      MOVS     r1,#0
        0x010031e8:    7081        .p      STRB     r1,[r0,#2]
        0x010031ea:    1cc1        ..      ADDS     r1,r0,#3
        0x010031ec:    2000        .       MOVS     r0,#0
        0x010031ee:    f003fa3d    ..=.    BL       __aeabi_uwrite4 ; 0x100666c
        0x010031f2:    2107        .!      MOVS     r1,#7
        0x010031f4:    48ec        .H      LDR      r0,[pc,#944] ; [0x10035a8] = 0x2002c
        0x010031f6:    f7fffda8    ....    BL       BT_BIT_CLEAR ; 0x1002d4a
        0x010031fa:    4668        hF      MOV      r0,sp
        0x010031fc:    f7fffe8a    ....    BL       SendCMD ; 0x1002f14
        0x01003200:    f7fefc3a    ..:.    BL       SysTick_GetTick ; 0x1001a78
        0x01003204:    49e7        .I      LDR      r1,[pc,#924] ; [0x10035a4] = 0x20028
        0x01003206:    6008        .`      STR      r0,[r1,#0]
        0x01003208:    bf00        ..      NOP      
        0x0100320a:    2107        .!      MOVS     r1,#7
        0x0100320c:    48e6        .H      LDR      r0,[pc,#920] ; [0x10035a8] = 0x2002c
        0x0100320e:    f7fffdad    ....    BL       BT_BIT_GET ; 0x1002d6c
        0x01003212:    2800        .(      CMP      r0,#0
        0x01003214:    d002        ..      BEQ      0x100321c ; Bt_GetBtStatus + 62
        0x01003216:    48e5        .H      LDR      r0,[pc,#916] ; [0x10035ac] = 0x20034
        0x01003218:    7800        .x      LDRB     r0,[r0,#0]
        0x0100321a:    bd1c        ..      POP      {r2-r4,pc}
        0x0100321c:    21ff        .!      MOVS     r1,#0xff
        0x0100321e:    31f5        .1      ADDS     r1,r1,#0xf5
        0x01003220:    48e0        .H      LDR      r0,[pc,#896] ; [0x10035a4] = 0x20028
        0x01003222:    6800        .h      LDR      r0,[r0,#0]
        0x01003224:    f7fefc2b    ..+.    BL       SysTick_IsTimeOut ; 0x1001a7e
        0x01003228:    2800        .(      CMP      r0,#0
        0x0100322a:    d0ee        ..      BEQ      0x100320a ; Bt_GetBtStatus + 44
        0x0100322c:    2080        .       MOVS     r0,#0x80
        0x0100322e:    e7f4        ..      B        0x100321a ; Bt_GetBtStatus + 60
    BT_SetParingMode
        0x01003230:    b53e        >.      PUSH     {r1-r5,lr}
        0x01003232:    4604        .F      MOV      r4,r0
        0x01003234:    9402        ..      STR      r4,[sp,#8]
        0x01003236:    210c        .!      MOVS     r1,#0xc
        0x01003238:    4668        hF      MOV      r0,sp
        0x0100323a:    7041        Ap      STRB     r1,[r0,#1]
        0x0100323c:    2101        .!      MOVS     r1,#1
        0x0100323e:    7081        .p      STRB     r1,[r0,#2]
        0x01003240:    1cc1        ..      ADDS     r1,r0,#3
        0x01003242:    a802        ..      ADD      r0,sp,#8
        0x01003244:    f003fa12    ....    BL       __aeabi_uwrite4 ; 0x100666c
        0x01003248:    2108        .!      MOVS     r1,#8
        0x0100324a:    48d7        .H      LDR      r0,[pc,#860] ; [0x10035a8] = 0x2002c
        0x0100324c:    f7fffd7d    ..}.    BL       BT_BIT_CLEAR ; 0x1002d4a
        0x01003250:    4668        hF      MOV      r0,sp
        0x01003252:    f7fffe5f    .._.    BL       SendCMD ; 0x1002f14
        0x01003256:    f7fefc0f    ....    BL       SysTick_GetTick ; 0x1001a78
        0x0100325a:    49d2        .I      LDR      r1,[pc,#840] ; [0x10035a4] = 0x20028
        0x0100325c:    6008        .`      STR      r0,[r1,#0]
        0x0100325e:    bf00        ..      NOP      
        0x01003260:    2108        .!      MOVS     r1,#8
        0x01003262:    48d1        .H      LDR      r0,[pc,#836] ; [0x10035a8] = 0x2002c
        0x01003264:    f7fffd82    ....    BL       BT_BIT_GET ; 0x1002d6c
        0x01003268:    2800        .(      CMP      r0,#0
        0x0100326a:    d001        ..      BEQ      0x1003270 ; BT_SetParingMode + 64
        0x0100326c:    2001        .       MOVS     r0,#1
        0x0100326e:    bd3e        >.      POP      {r1-r5,pc}
        0x01003270:    21ff        .!      MOVS     r1,#0xff
        0x01003272:    31f5        .1      ADDS     r1,r1,#0xf5
        0x01003274:    48cb        .H      LDR      r0,[pc,#812] ; [0x10035a4] = 0x20028
        0x01003276:    6800        .h      LDR      r0,[r0,#0]
        0x01003278:    f7fefc01    ....    BL       SysTick_IsTimeOut ; 0x1001a7e
        0x0100327c:    2800        .(      CMP      r0,#0
        0x0100327e:    d0ef        ..      BEQ      0x1003260 ; BT_SetParingMode + 48
        0x01003280:    2000        .       MOVS     r0,#0
        0x01003282:    e7f4        ..      B        0x100326e ; BT_SetParingMode + 62
    BT_SetPincode
        0x01003284:    b57c        |.      PUSH     {r2-r6,lr}
        0x01003286:    4605        .F      MOV      r5,r0
        0x01003288:    460c        .F      MOV      r4,r1
        0x0100328a:    210d        .!      MOVS     r1,#0xd
        0x0100328c:    4668        hF      MOV      r0,sp
        0x0100328e:    7041        Ap      STRB     r1,[r0,#1]
        0x01003290:    7084        .p      STRB     r4,[r0,#2]
        0x01003292:    1cc1        ..      ADDS     r1,r0,#3
        0x01003294:    4628        (F      MOV      r0,r5
        0x01003296:    f003f9e9    ....    BL       __aeabi_uwrite4 ; 0x100666c
        0x0100329a:    2109        .!      MOVS     r1,#9
        0x0100329c:    48c2        .H      LDR      r0,[pc,#776] ; [0x10035a8] = 0x2002c
        0x0100329e:    f7fffd54    ..T.    BL       BT_BIT_CLEAR ; 0x1002d4a
        0x010032a2:    4668        hF      MOV      r0,sp
        0x010032a4:    f7fffe36    ..6.    BL       SendCMD ; 0x1002f14
        0x010032a8:    f7fefbe6    ....    BL       SysTick_GetTick ; 0x1001a78
        0x010032ac:    49bd        .I      LDR      r1,[pc,#756] ; [0x10035a4] = 0x20028
        0x010032ae:    6008        .`      STR      r0,[r1,#0]
        0x010032b0:    bf00        ..      NOP      
        0x010032b2:    2109        .!      MOVS     r1,#9
        0x010032b4:    48bc        .H      LDR      r0,[pc,#752] ; [0x10035a8] = 0x2002c
        0x010032b6:    f7fffd59    ..Y.    BL       BT_BIT_GET ; 0x1002d6c
        0x010032ba:    2800        .(      CMP      r0,#0
        0x010032bc:    d001        ..      BEQ      0x10032c2 ; BT_SetPincode + 62
        0x010032be:    2001        .       MOVS     r0,#1
        0x010032c0:    bd7c        |.      POP      {r2-r6,pc}
        0x010032c2:    21ff        .!      MOVS     r1,#0xff
        0x010032c4:    31f5        .1      ADDS     r1,r1,#0xf5
        0x010032c6:    48b7        .H      LDR      r0,[pc,#732] ; [0x10035a4] = 0x20028
        0x010032c8:    6800        .h      LDR      r0,[r0,#0]
        0x010032ca:    f7fefbd8    ....    BL       SysTick_IsTimeOut ; 0x1001a7e
        0x010032ce:    2800        .(      CMP      r0,#0
        0x010032d0:    d0ef        ..      BEQ      0x10032b2 ; BT_SetPincode + 46
        0x010032d2:    2000        .       MOVS     r0,#0
        0x010032d4:    e7f4        ..      B        0x10032c0 ; BT_SetPincode + 60
    BT_BtDisconnect
        0x010032d6:    b51c        ..      PUSH     {r2-r4,lr}
        0x010032d8:    2111        .!      MOVS     r1,#0x11
        0x010032da:    4668        hF      MOV      r0,sp
        0x010032dc:    7041        Ap      STRB     r1,[r0,#1]
        0x010032de:    2100        .!      MOVS     r1,#0
        0x010032e0:    7081        .p      STRB     r1,[r0,#2]
        0x010032e2:    1cc1        ..      ADDS     r1,r0,#3
        0x010032e4:    2000        .       MOVS     r0,#0
        0x010032e6:    f003f9c1    ....    BL       __aeabi_uwrite4 ; 0x100666c
        0x010032ea:    210b        .!      MOVS     r1,#0xb
        0x010032ec:    48ae        .H      LDR      r0,[pc,#696] ; [0x10035a8] = 0x2002c
        0x010032ee:    f7fffd2c    ..,.    BL       BT_BIT_CLEAR ; 0x1002d4a
        0x010032f2:    4668        hF      MOV      r0,sp
        0x010032f4:    f7fffe0e    ....    BL       SendCMD ; 0x1002f14
        0x010032f8:    f7fefbbe    ....    BL       SysTick_GetTick ; 0x1001a78
        0x010032fc:    49a9        .I      LDR      r1,[pc,#676] ; [0x10035a4] = 0x20028
        0x010032fe:    6008        .`      STR      r0,[r1,#0]
        0x01003300:    bf00        ..      NOP      
        0x01003302:    210b        .!      MOVS     r1,#0xb
        0x01003304:    48a8        .H      LDR      r0,[pc,#672] ; [0x10035a8] = 0x2002c
        0x01003306:    f7fffd31    ..1.    BL       BT_BIT_GET ; 0x1002d6c
        0x0100330a:    2800        .(      CMP      r0,#0
        0x0100330c:    d001        ..      BEQ      0x1003312 ; BT_BtDisconnect + 60
        0x0100330e:    2001        .       MOVS     r0,#1
        0x01003310:    bd1c        ..      POP      {r2-r4,pc}
        0x01003312:    21ff        .!      MOVS     r1,#0xff
        0x01003314:    31f5        .1      ADDS     r1,r1,#0xf5
        0x01003316:    48a3        .H      LDR      r0,[pc,#652] ; [0x10035a4] = 0x20028
        0x01003318:    6800        .h      LDR      r0,[r0,#0]
        0x0100331a:    f7fefbb0    ....    BL       SysTick_IsTimeOut ; 0x1001a7e
        0x0100331e:    2800        .(      CMP      r0,#0
        0x01003320:    d0ef        ..      BEQ      0x1003302 ; BT_BtDisconnect + 44
        0x01003322:    2000        .       MOVS     r0,#0
        0x01003324:    e7f4        ..      B        0x1003310 ; BT_BtDisconnect + 58
    BT_GetVersion
        0x01003326:    b51c        ..      PUSH     {r2-r4,lr}
        0x01003328:    2400        .$      MOVS     r4,#0
        0x0100332a:    2110        .!      MOVS     r1,#0x10
        0x0100332c:    4668        hF      MOV      r0,sp
        0x0100332e:    7041        Ap      STRB     r1,[r0,#1]
        0x01003330:    2100        .!      MOVS     r1,#0
        0x01003332:    7081        .p      STRB     r1,[r0,#2]
        0x01003334:    1cc1        ..      ADDS     r1,r0,#3
        0x01003336:    2000        .       MOVS     r0,#0
        0x01003338:    f003f998    ....    BL       __aeabi_uwrite4 ; 0x100666c
        0x0100333c:    210a        .!      MOVS     r1,#0xa
        0x0100333e:    489a        .H      LDR      r0,[pc,#616] ; [0x10035a8] = 0x2002c
        0x01003340:    f7fffd03    ....    BL       BT_BIT_CLEAR ; 0x1002d4a
        0x01003344:    4668        hF      MOV      r0,sp
        0x01003346:    f7fffde5    ....    BL       SendCMD ; 0x1002f14
        0x0100334a:    f7fefb95    ....    BL       SysTick_GetTick ; 0x1001a78
        0x0100334e:    4995        .I      LDR      r1,[pc,#596] ; [0x10035a4] = 0x20028
        0x01003350:    6008        .`      STR      r0,[r1,#0]
        0x01003352:    bf00        ..      NOP      
        0x01003354:    210a        .!      MOVS     r1,#0xa
        0x01003356:    4894        .H      LDR      r0,[pc,#592] ; [0x10035a8] = 0x2002c
        0x01003358:    f7fffd08    ....    BL       BT_BIT_GET ; 0x1002d6c
        0x0100335c:    2800        .(      CMP      r0,#0
        0x0100335e:    d008        ..      BEQ      0x1003372 ; BT_GetVersion + 76
        0x01003360:    4892        .H      LDR      r0,[pc,#584] ; [0x10035ac] = 0x20034
        0x01003362:    7800        .x      LDRB     r0,[r0,#0]
        0x01003364:    0200        ..      LSLS     r0,r0,#8
        0x01003366:    4991        .I      LDR      r1,[pc,#580] ; [0x10035ac] = 0x20034
        0x01003368:    7849        Ix      LDRB     r1,[r1,#1]
        0x0100336a:    4308        .C      ORRS     r0,r0,r1
        0x0100336c:    4604        .F      MOV      r4,r0
        0x0100336e:    4620         F      MOV      r0,r4
        0x01003370:    bd1c        ..      POP      {r2-r4,pc}
        0x01003372:    21ff        .!      MOVS     r1,#0xff
        0x01003374:    31f5        .1      ADDS     r1,r1,#0xf5
        0x01003376:    488b        .H      LDR      r0,[pc,#556] ; [0x10035a4] = 0x20028
        0x01003378:    6800        .h      LDR      r0,[r0,#0]
        0x0100337a:    f7fefb80    ....    BL       SysTick_IsTimeOut ; 0x1001a7e
        0x0100337e:    2800        .(      CMP      r0,#0
        0x01003380:    d0e8        ..      BEQ      0x1003354 ; BT_GetVersion + 46
        0x01003382:    2000        .       MOVS     r0,#0
        0x01003384:    e7f4        ..      B        0x1003370 ; BT_GetVersion + 74
    BT_BleDisconnect
        0x01003386:    b51c        ..      PUSH     {r2-r4,lr}
        0x01003388:    2112        .!      MOVS     r1,#0x12
        0x0100338a:    4668        hF      MOV      r0,sp
        0x0100338c:    7041        Ap      STRB     r1,[r0,#1]
        0x0100338e:    2100        .!      MOVS     r1,#0
        0x01003390:    7081        .p      STRB     r1,[r0,#2]
        0x01003392:    1cc1        ..      ADDS     r1,r0,#3
        0x01003394:    2000        .       MOVS     r0,#0
        0x01003396:    f003f969    ..i.    BL       __aeabi_uwrite4 ; 0x100666c
        0x0100339a:    210c        .!      MOVS     r1,#0xc
        0x0100339c:    4882        .H      LDR      r0,[pc,#520] ; [0x10035a8] = 0x2002c
        0x0100339e:    f7fffcd4    ....    BL       BT_BIT_CLEAR ; 0x1002d4a
        0x010033a2:    4668        hF      MOV      r0,sp
        0x010033a4:    f7fffdb6    ....    BL       SendCMD ; 0x1002f14
        0x010033a8:    f7fefb66    ..f.    BL       SysTick_GetTick ; 0x1001a78
        0x010033ac:    497d        }I      LDR      r1,[pc,#500] ; [0x10035a4] = 0x20028
        0x010033ae:    6008        .`      STR      r0,[r1,#0]
        0x010033b0:    bf00        ..      NOP      
        0x010033b2:    210c        .!      MOVS     r1,#0xc
        0x010033b4:    487c        |H      LDR      r0,[pc,#496] ; [0x10035a8] = 0x2002c
        0x010033b6:    f7fffcd9    ....    BL       BT_BIT_GET ; 0x1002d6c
        0x010033ba:    2800        .(      CMP      r0,#0
        0x010033bc:    d001        ..      BEQ      0x10033c2 ; BT_BleDisconnect + 60
        0x010033be:    2001        .       MOVS     r0,#1
        0x010033c0:    bd1c        ..      POP      {r2-r4,pc}
        0x010033c2:    21ff        .!      MOVS     r1,#0xff
        0x010033c4:    31f5        .1      ADDS     r1,r1,#0xf5
        0x010033c6:    4877        wH      LDR      r0,[pc,#476] ; [0x10035a4] = 0x20028
        0x010033c8:    6800        .h      LDR      r0,[r0,#0]
        0x010033ca:    f7fefb58    ..X.    BL       SysTick_IsTimeOut ; 0x1001a7e
        0x010033ce:    2800        .(      CMP      r0,#0
        0x010033d0:    d0ef        ..      BEQ      0x10033b2 ; BT_BleDisconnect + 44
        0x010033d2:    2000        .       MOVS     r0,#0
        0x010033d4:    e7f4        ..      B        0x10033c0 ; BT_BleDisconnect + 58
    BT_SetNVRAM
        0x010033d6:    b57c        |.      PUSH     {r2-r6,lr}
        0x010033d8:    4605        .F      MOV      r5,r0
        0x010033da:    460c        .F      MOV      r4,r1
        0x010033dc:    2126        &!      MOVS     r1,#0x26
        0x010033de:    4668        hF      MOV      r0,sp
        0x010033e0:    7041        Ap      STRB     r1,[r0,#1]
        0x010033e2:    7084        .p      STRB     r4,[r0,#2]
        0x010033e4:    1cc1        ..      ADDS     r1,r0,#3
        0x010033e6:    4628        (F      MOV      r0,r5
        0x010033e8:    f003f940    ..@.    BL       __aeabi_uwrite4 ; 0x100666c
        0x010033ec:    210d        .!      MOVS     r1,#0xd
        0x010033ee:    486e        nH      LDR      r0,[pc,#440] ; [0x10035a8] = 0x2002c
        0x010033f0:    f7fffcab    ....    BL       BT_BIT_CLEAR ; 0x1002d4a
        0x010033f4:    4668        hF      MOV      r0,sp
        0x010033f6:    f7fffd8d    ....    BL       SendCMD ; 0x1002f14
        0x010033fa:    f7fefb3d    ..=.    BL       SysTick_GetTick ; 0x1001a78
        0x010033fe:    4969        iI      LDR      r1,[pc,#420] ; [0x10035a4] = 0x20028
        0x01003400:    6008        .`      STR      r0,[r1,#0]
        0x01003402:    bf00        ..      NOP      
        0x01003404:    210d        .!      MOVS     r1,#0xd
        0x01003406:    4868        hH      LDR      r0,[pc,#416] ; [0x10035a8] = 0x2002c
        0x01003408:    f7fffcb0    ....    BL       BT_BIT_GET ; 0x1002d6c
        0x0100340c:    2800        .(      CMP      r0,#0
        0x0100340e:    d001        ..      BEQ      0x1003414 ; BT_SetNVRAM + 62
        0x01003410:    2001        .       MOVS     r0,#1
        0x01003412:    bd7c        |.      POP      {r2-r6,pc}
        0x01003414:    21ff        .!      MOVS     r1,#0xff
        0x01003416:    31f5        .1      ADDS     r1,r1,#0xf5
        0x01003418:    4862        bH      LDR      r0,[pc,#392] ; [0x10035a4] = 0x20028
        0x0100341a:    6800        .h      LDR      r0,[r0,#0]
        0x0100341c:    f7fefb2f    ../.    BL       SysTick_IsTimeOut ; 0x1001a7e
        0x01003420:    2800        .(      CMP      r0,#0
        0x01003422:    d0ef        ..      BEQ      0x1003404 ; BT_SetNVRAM + 46
        0x01003424:    2000        .       MOVS     r0,#0
        0x01003426:    e7f4        ..      B        0x1003412 ; BT_SetNVRAM + 60
    BT_EnterSleepMode
        0x01003428:    b51c        ..      PUSH     {r2-r4,lr}
        0x0100342a:    2127        '!      MOVS     r1,#0x27
        0x0100342c:    4668        hF      MOV      r0,sp
        0x0100342e:    7041        Ap      STRB     r1,[r0,#1]
        0x01003430:    2100        .!      MOVS     r1,#0
        0x01003432:    7081        .p      STRB     r1,[r0,#2]
        0x01003434:    1cc1        ..      ADDS     r1,r0,#3
        0x01003436:    2000        .       MOVS     r0,#0
        0x01003438:    f003f918    ....    BL       __aeabi_uwrite4 ; 0x100666c
        0x0100343c:    4668        hF      MOV      r0,sp
        0x0100343e:    f7fffd69    ..i.    BL       SendCMD ; 0x1002f14
        0x01003442:    2001        .       MOVS     r0,#1
        0x01003444:    bd1c        ..      POP      {r2-r4,pc}
    BT_ConfirmGkey
        0x01003446:    b53e        >.      PUSH     {r1-r5,lr}
        0x01003448:    4604        .F      MOV      r4,r0
        0x0100344a:    9400        ..      STR      r4,[sp,#0]
        0x0100344c:    2128        (!      MOVS     r1,#0x28
        0x0100344e:    4668        hF      MOV      r0,sp
        0x01003450:    7141        Aq      STRB     r1,[r0,#5]
        0x01003452:    2101        .!      MOVS     r1,#1
        0x01003454:    7181        .q      STRB     r1,[r0,#6]
        0x01003456:    1dc1        ..      ADDS     r1,r0,#7
        0x01003458:    f003f908    ....    BL       __aeabi_uwrite4 ; 0x100666c
        0x0100345c:    2110        .!      MOVS     r1,#0x10
        0x0100345e:    4852        RH      LDR      r0,[pc,#328] ; [0x10035a8] = 0x2002c
        0x01003460:    f7fffc73    ..s.    BL       BT_BIT_CLEAR ; 0x1002d4a
        0x01003464:    a801        ..      ADD      r0,sp,#4
        0x01003466:    f7fffd55    ..U.    BL       SendCMD ; 0x1002f14
        0x0100346a:    f7fefb05    ....    BL       SysTick_GetTick ; 0x1001a78
        0x0100346e:    494d        MI      LDR      r1,[pc,#308] ; [0x10035a4] = 0x20028
        0x01003470:    6008        .`      STR      r0,[r1,#0]
        0x01003472:    bf00        ..      NOP      
        0x01003474:    2110        .!      MOVS     r1,#0x10
        0x01003476:    484c        LH      LDR      r0,[pc,#304] ; [0x10035a8] = 0x2002c
        0x01003478:    f7fffc78    ..x.    BL       BT_BIT_GET ; 0x1002d6c
        0x0100347c:    2800        .(      CMP      r0,#0
        0x0100347e:    d001        ..      BEQ      0x1003484 ; BT_ConfirmGkey + 62
        0x01003480:    2001        .       MOVS     r0,#1
        0x01003482:    bd3e        >.      POP      {r1-r5,pc}
        0x01003484:    21ff        .!      MOVS     r1,#0xff
        0x01003486:    31f5        .1      ADDS     r1,r1,#0xf5
        0x01003488:    4846        FH      LDR      r0,[pc,#280] ; [0x10035a4] = 0x20028
        0x0100348a:    6800        .h      LDR      r0,[r0,#0]
        0x0100348c:    f7fefaf7    ....    BL       SysTick_IsTimeOut ; 0x1001a7e
        0x01003490:    2800        .(      CMP      r0,#0
        0x01003492:    d0ef        ..      BEQ      0x1003474 ; BT_ConfirmGkey + 46
        0x01003494:    2000        .       MOVS     r0,#0
        0x01003496:    e7f4        ..      B        0x1003482 ; BT_ConfirmGkey + 60
    BT_SetSppFlowcontrol
        0x01003498:    b53e        >.      PUSH     {r1-r5,lr}
        0x0100349a:    4604        .F      MOV      r4,r0
        0x0100349c:    2129        )!      MOVS     r1,#0x29
        0x0100349e:    4668        hF      MOV      r0,sp
        0x010034a0:    7141        Aq      STRB     r1,[r0,#5]
        0x010034a2:    2100        .!      MOVS     r1,#0
        0x010034a4:    7181        .q      STRB     r1,[r0,#6]
        0x010034a6:    9400        ..      STR      r4,[sp,#0]
        0x010034a8:    1dc1        ..      ADDS     r1,r0,#7
        0x010034aa:    f003f8df    ....    BL       __aeabi_uwrite4 ; 0x100666c
        0x010034ae:    2112        .!      MOVS     r1,#0x12
        0x010034b0:    483d        =H      LDR      r0,[pc,#244] ; [0x10035a8] = 0x2002c
        0x010034b2:    f7fffc4a    ..J.    BL       BT_BIT_CLEAR ; 0x1002d4a
        0x010034b6:    a801        ..      ADD      r0,sp,#4
        0x010034b8:    f7fffd2c    ..,.    BL       SendCMD ; 0x1002f14
        0x010034bc:    2001        .       MOVS     r0,#1
        0x010034be:    bd3e        >.      POP      {r1-r5,pc}
    BT_PasskeyEntry
        0x010034c0:    b51c        ..      PUSH     {r2-r4,lr}
        0x010034c2:    4604        .F      MOV      r4,r0
        0x010034c4:    2130        0!      MOVS     r1,#0x30
        0x010034c6:    4668        hF      MOV      r0,sp
        0x010034c8:    7041        Ap      STRB     r1,[r0,#1]
        0x010034ca:    2104        .!      MOVS     r1,#4
        0x010034cc:    7081        .p      STRB     r1,[r0,#2]
        0x010034ce:    1cc1        ..      ADDS     r1,r0,#3
        0x010034d0:    4620         F      MOV      r0,r4
        0x010034d2:    f003f8cb    ....    BL       __aeabi_uwrite4 ; 0x100666c
        0x010034d6:    2113        .!      MOVS     r1,#0x13
        0x010034d8:    4833        3H      LDR      r0,[pc,#204] ; [0x10035a8] = 0x2002c
        0x010034da:    f7fffc36    ..6.    BL       BT_BIT_CLEAR ; 0x1002d4a
        0x010034de:    4668        hF      MOV      r0,sp
        0x010034e0:    f7fffd18    ....    BL       SendCMD ; 0x1002f14
        0x010034e4:    f7fefac8    ....    BL       SysTick_GetTick ; 0x1001a78
        0x010034e8:    492e        .I      LDR      r1,[pc,#184] ; [0x10035a4] = 0x20028
        0x010034ea:    6008        .`      STR      r0,[r1,#0]
        0x010034ec:    bf00        ..      NOP      
        0x010034ee:    2113        .!      MOVS     r1,#0x13
        0x010034f0:    482d        -H      LDR      r0,[pc,#180] ; [0x10035a8] = 0x2002c
        0x010034f2:    f7fffc3b    ..;.    BL       BT_BIT_GET ; 0x1002d6c
        0x010034f6:    2800        .(      CMP      r0,#0
        0x010034f8:    d001        ..      BEQ      0x10034fe ; BT_PasskeyEntry + 62
        0x010034fa:    2001        .       MOVS     r0,#1
        0x010034fc:    bd1c        ..      POP      {r2-r4,pc}
        0x010034fe:    21ff        .!      MOVS     r1,#0xff
        0x01003500:    31f5        .1      ADDS     r1,r1,#0xf5
        0x01003502:    4828        (H      LDR      r0,[pc,#160] ; [0x10035a4] = 0x20028
        0x01003504:    6800        .h      LDR      r0,[r0,#0]
        0x01003506:    f7fefaba    ....    BL       SysTick_IsTimeOut ; 0x1001a7e
        0x0100350a:    2800        .(      CMP      r0,#0
        0x0100350c:    d0ef        ..      BEQ      0x10034ee ; BT_PasskeyEntry + 46
        0x0100350e:    2000        .       MOVS     r0,#0
        0x01003510:    e7f4        ..      B        0x10034fc ; BT_PasskeyEntry + 60
    BT_SetLEParing
        0x01003512:    b53e        >.      PUSH     {r1-r5,lr}
        0x01003514:    4604        .F      MOV      r4,r0
        0x01003516:    2133        3!      MOVS     r1,#0x33
        0x01003518:    4668        hF      MOV      r0,sp
        0x0100351a:    7141        Aq      STRB     r1,[r0,#5]
        0x0100351c:    2101        .!      MOVS     r1,#1
        0x0100351e:    7181        .q      STRB     r1,[r0,#6]
        0x01003520:    9400        ..      STR      r4,[sp,#0]
        0x01003522:    1dc1        ..      ADDS     r1,r0,#7
        0x01003524:    f003f8a2    ....    BL       __aeabi_uwrite4 ; 0x100666c
        0x01003528:    2114        .!      MOVS     r1,#0x14
        0x0100352a:    481f        .H      LDR      r0,[pc,#124] ; [0x10035a8] = 0x2002c
        0x0100352c:    f7fffc0d    ....    BL       BT_BIT_CLEAR ; 0x1002d4a
        0x01003530:    a801        ..      ADD      r0,sp,#4
        0x01003532:    f7fffcef    ....    BL       SendCMD ; 0x1002f14
        0x01003536:    f7fefa9f    ....    BL       SysTick_GetTick ; 0x1001a78
        0x0100353a:    491a        .I      LDR      r1,[pc,#104] ; [0x10035a4] = 0x20028
        0x0100353c:    6008        .`      STR      r0,[r1,#0]
        0x0100353e:    bf00        ..      NOP      
        0x01003540:    2114        .!      MOVS     r1,#0x14
        0x01003542:    4819        .H      LDR      r0,[pc,#100] ; [0x10035a8] = 0x2002c
        0x01003544:    f7fffc12    ....    BL       BT_BIT_GET ; 0x1002d6c
        0x01003548:    2800        .(      CMP      r0,#0
        0x0100354a:    d001        ..      BEQ      0x1003550 ; BT_SetLEParing + 62
        0x0100354c:    2001        .       MOVS     r0,#1
        0x0100354e:    bd3e        >.      POP      {r1-r5,pc}
        0x01003550:    21ff        .!      MOVS     r1,#0xff
        0x01003552:    31f5        .1      ADDS     r1,r1,#0xf5
        0x01003554:    4813        .H      LDR      r0,[pc,#76] ; [0x10035a4] = 0x20028
        0x01003556:    6800        .h      LDR      r0,[r0,#0]
        0x01003558:    f7fefa91    ....    BL       SysTick_IsTimeOut ; 0x1001a7e
        0x0100355c:    2800        .(      CMP      r0,#0
        0x0100355e:    d0ef        ..      BEQ      0x1003540 ; BT_SetLEParing + 46
        0x01003560:    2000        .       MOVS     r0,#0
        0x01003562:    e7f4        ..      B        0x100354e ; BT_SetLEParing + 60
    BT_SetLEAdvData
        0x01003564:    b57c        |.      PUSH     {r2-r6,lr}
        0x01003566:    4605        .F      MOV      r5,r0
        0x01003568:    460c        .F      MOV      r4,r1
        0x0100356a:    2134        4!      MOVS     r1,#0x34
        0x0100356c:    4668        hF      MOV      r0,sp
        0x0100356e:    7041        Ap      STRB     r1,[r0,#1]
        0x01003570:    7084        .p      STRB     r4,[r0,#2]
        0x01003572:    1cc1        ..      ADDS     r1,r0,#3
        0x01003574:    4628        (F      MOV      r0,r5
        0x01003576:    f003f879    ..y.    BL       __aeabi_uwrite4 ; 0x100666c
        0x0100357a:    2115        .!      MOVS     r1,#0x15
        0x0100357c:    480a        .H      LDR      r0,[pc,#40] ; [0x10035a8] = 0x2002c
        0x0100357e:    f7fffbe4    ....    BL       BT_BIT_CLEAR ; 0x1002d4a
        0x01003582:    4668        hF      MOV      r0,sp
        0x01003584:    f7fffcc6    ....    BL       SendCMD ; 0x1002f14
        0x01003588:    f7fefa76    ..v.    BL       SysTick_GetTick ; 0x1001a78
        0x0100358c:    4905        .I      LDR      r1,[pc,#20] ; [0x10035a4] = 0x20028
        0x0100358e:    6008        .`      STR      r0,[r1,#0]
        0x01003590:    bf00        ..      NOP      
        0x01003592:    2115        .!      MOVS     r1,#0x15
        0x01003594:    4804        .H      LDR      r0,[pc,#16] ; [0x10035a8] = 0x2002c
        0x01003596:    f7fffbe9    ....    BL       BT_BIT_GET ; 0x1002d6c
        0x0100359a:    2800        .(      CMP      r0,#0
        0x0100359c:    d008        ..      BEQ      0x10035b0 ; BT_SetLEAdvData + 76
        0x0100359e:    2001        .       MOVS     r0,#1
        0x010035a0:    bd7c        |.      POP      {r2-r6,pc}
    $d
        0x010035a2:    0000        ..      DCW    0
        0x010035a4:    00020028    (...    DCD    131112
        0x010035a8:    0002002c    ,...    DCD    131116
        0x010035ac:    00020034    4...    DCD    131124
    $t
        0x010035b0:    21ff        .!      MOVS     r1,#0xff
        0x010035b2:    31f5        .1      ADDS     r1,r1,#0xf5
        0x010035b4:    48fe        .H      LDR      r0,[pc,#1016] ; [0x10039b0] = 0x20028
        0x010035b6:    6800        .h      LDR      r0,[r0,#0]
        0x010035b8:    f7fefa61    ..a.    BL       SysTick_IsTimeOut ; 0x1001a7e
        0x010035bc:    2800        .(      CMP      r0,#0
        0x010035be:    d0e8        ..      BEQ      0x1003592 ; BT_SetLEAdvData + 46
        0x010035c0:    2000        .       MOVS     r0,#0
        0x010035c2:    e7ed        ..      B        0x10035a0 ; BT_SetLEAdvData + 60
    BT_SetLEScanData
        0x010035c4:    b57c        |.      PUSH     {r2-r6,lr}
        0x010035c6:    4605        .F      MOV      r5,r0
        0x010035c8:    460c        .F      MOV      r4,r1
        0x010035ca:    2135        5!      MOVS     r1,#0x35
        0x010035cc:    4668        hF      MOV      r0,sp
        0x010035ce:    7041        Ap      STRB     r1,[r0,#1]
        0x010035d0:    7084        .p      STRB     r4,[r0,#2]
        0x010035d2:    1cc1        ..      ADDS     r1,r0,#3
        0x010035d4:    4628        (F      MOV      r0,r5
        0x010035d6:    f003f849    ..I.    BL       __aeabi_uwrite4 ; 0x100666c
        0x010035da:    2116        .!      MOVS     r1,#0x16
        0x010035dc:    48f5        .H      LDR      r0,[pc,#980] ; [0x10039b4] = 0x2002c
        0x010035de:    f7fffbb4    ....    BL       BT_BIT_CLEAR ; 0x1002d4a
        0x010035e2:    4668        hF      MOV      r0,sp
        0x010035e4:    f7fffc96    ....    BL       SendCMD ; 0x1002f14
        0x010035e8:    f7fefa46    ..F.    BL       SysTick_GetTick ; 0x1001a78
        0x010035ec:    49f0        .I      LDR      r1,[pc,#960] ; [0x10039b0] = 0x20028
        0x010035ee:    6008        .`      STR      r0,[r1,#0]
        0x010035f0:    bf00        ..      NOP      
        0x010035f2:    2116        .!      MOVS     r1,#0x16
        0x010035f4:    48ef        .H      LDR      r0,[pc,#956] ; [0x10039b4] = 0x2002c
        0x010035f6:    f7fffbb9    ....    BL       BT_BIT_GET ; 0x1002d6c
        0x010035fa:    2800        .(      CMP      r0,#0
        0x010035fc:    d001        ..      BEQ      0x1003602 ; BT_SetLEScanData + 62
        0x010035fe:    2001        .       MOVS     r0,#1
        0x01003600:    bd7c        |.      POP      {r2-r6,pc}
        0x01003602:    21ff        .!      MOVS     r1,#0xff
        0x01003604:    31f5        .1      ADDS     r1,r1,#0xf5
        0x01003606:    48ea        .H      LDR      r0,[pc,#936] ; [0x10039b0] = 0x20028
        0x01003608:    6800        .h      LDR      r0,[r0,#0]
        0x0100360a:    f7fefa38    ..8.    BL       SysTick_IsTimeOut ; 0x1001a7e
        0x0100360e:    2800        .(      CMP      r0,#0
        0x01003610:    d0ef        ..      BEQ      0x10035f2 ; BT_SetLEScanData + 46
        0x01003612:    2000        .       MOVS     r0,#0
        0x01003614:    e7f4        ..      B        0x1003600 ; BT_SetLEScanData + 60
    BT_SetLESendConnUpdate
        0x01003616:    b57c        |.      PUSH     {r2-r6,lr}
        0x01003618:    4605        .F      MOV      r5,r0
        0x0100361a:    460c        .F      MOV      r4,r1
        0x0100361c:    2c08        .,      CMP      r4,#8
        0x0100361e:    d001        ..      BEQ      0x1003624 ; BT_SetLESendConnUpdate + 14
        0x01003620:    2000        .       MOVS     r0,#0
        0x01003622:    bd7c        |.      POP      {r2-r6,pc}
        0x01003624:    2136        6!      MOVS     r1,#0x36
        0x01003626:    4668        hF      MOV      r0,sp
        0x01003628:    7041        Ap      STRB     r1,[r0,#1]
        0x0100362a:    7084        .p      STRB     r4,[r0,#2]
        0x0100362c:    1cc1        ..      ADDS     r1,r0,#3
        0x0100362e:    4628        (F      MOV      r0,r5
        0x01003630:    f003f81c    ....    BL       __aeabi_uwrite4 ; 0x100666c
        0x01003634:    2117        .!      MOVS     r1,#0x17
        0x01003636:    48df        .H      LDR      r0,[pc,#892] ; [0x10039b4] = 0x2002c
        0x01003638:    f7fffb87    ....    BL       BT_BIT_CLEAR ; 0x1002d4a
        0x0100363c:    4668        hF      MOV      r0,sp
        0x0100363e:    f7fffc69    ..i.    BL       SendCMD ; 0x1002f14
        0x01003642:    f7fefa19    ....    BL       SysTick_GetTick ; 0x1001a78
        0x01003646:    49da        .I      LDR      r1,[pc,#872] ; [0x10039b0] = 0x20028
        0x01003648:    6008        .`      STR      r0,[r1,#0]
        0x0100364a:    bf00        ..      NOP      
        0x0100364c:    2117        .!      MOVS     r1,#0x17
        0x0100364e:    48d9        .H      LDR      r0,[pc,#868] ; [0x10039b4] = 0x2002c
        0x01003650:    f7fffb8c    ....    BL       BT_BIT_GET ; 0x1002d6c
        0x01003654:    2800        .(      CMP      r0,#0
        0x01003656:    d001        ..      BEQ      0x100365c ; BT_SetLESendConnUpdate + 70
        0x01003658:    2001        .       MOVS     r0,#1
        0x0100365a:    e7e2        ..      B        0x1003622 ; BT_SetLESendConnUpdate + 12
        0x0100365c:    21ff        .!      MOVS     r1,#0xff
        0x0100365e:    31f5        .1      ADDS     r1,r1,#0xf5
        0x01003660:    48d3        .H      LDR      r0,[pc,#844] ; [0x10039b0] = 0x20028
        0x01003662:    6800        .h      LDR      r0,[r0,#0]
        0x01003664:    f7fefa0b    ....    BL       SysTick_IsTimeOut ; 0x1001a7e
        0x01003668:    2800        .(      CMP      r0,#0
        0x0100366a:    d0ef        ..      BEQ      0x100364c ; BT_SetLESendConnUpdate + 54
        0x0100366c:    2000        .       MOVS     r0,#0
        0x0100366e:    e7d8        ..      B        0x1003622 ; BT_SetLESendConnUpdate + 12
    BT_SetLEAdvParm
        0x01003670:    b57c        |.      PUSH     {r2-r6,lr}
        0x01003672:    4605        .F      MOV      r5,r0
        0x01003674:    460c        .F      MOV      r4,r1
        0x01003676:    2c00        .,      CMP      r4,#0
        0x01003678:    d101        ..      BNE      0x100367e ; BT_SetLEAdvParm + 14
        0x0100367a:    2000        .       MOVS     r0,#0
        0x0100367c:    bd7c        |.      POP      {r2-r6,pc}
        0x0100367e:    2137        7!      MOVS     r1,#0x37
        0x01003680:    4668        hF      MOV      r0,sp
        0x01003682:    7041        Ap      STRB     r1,[r0,#1]
        0x01003684:    7084        .p      STRB     r4,[r0,#2]
        0x01003686:    1cc1        ..      ADDS     r1,r0,#3
        0x01003688:    4628        (F      MOV      r0,r5
        0x0100368a:    f002ffef    ....    BL       __aeabi_uwrite4 ; 0x100666c
        0x0100368e:    2118        .!      MOVS     r1,#0x18
        0x01003690:    48c8        .H      LDR      r0,[pc,#800] ; [0x10039b4] = 0x2002c
        0x01003692:    f7fffb5a    ..Z.    BL       BT_BIT_CLEAR ; 0x1002d4a
        0x01003696:    4668        hF      MOV      r0,sp
        0x01003698:    f7fffc3c    ..<.    BL       SendCMD ; 0x1002f14
        0x0100369c:    f7fef9ec    ....    BL       SysTick_GetTick ; 0x1001a78
        0x010036a0:    49c3        .I      LDR      r1,[pc,#780] ; [0x10039b0] = 0x20028
        0x010036a2:    6008        .`      STR      r0,[r1,#0]
        0x010036a4:    bf00        ..      NOP      
        0x010036a6:    2118        .!      MOVS     r1,#0x18
        0x010036a8:    48c2        .H      LDR      r0,[pc,#776] ; [0x10039b4] = 0x2002c
        0x010036aa:    f7fffb5f    .._.    BL       BT_BIT_GET ; 0x1002d6c
        0x010036ae:    2800        .(      CMP      r0,#0
        0x010036b0:    d001        ..      BEQ      0x10036b6 ; BT_SetLEAdvParm + 70
        0x010036b2:    2001        .       MOVS     r0,#1
        0x010036b4:    e7e2        ..      B        0x100367c ; BT_SetLEAdvParm + 12
        0x010036b6:    21ff        .!      MOVS     r1,#0xff
        0x010036b8:    31f5        .1      ADDS     r1,r1,#0xf5
        0x010036ba:    48bd        .H      LDR      r0,[pc,#756] ; [0x10039b0] = 0x20028
        0x010036bc:    6800        .h      LDR      r0,[r0,#0]
        0x010036be:    f7fef9de    ....    BL       SysTick_IsTimeOut ; 0x1001a7e
        0x010036c2:    2800        .(      CMP      r0,#0
        0x010036c4:    d0ef        ..      BEQ      0x10036a6 ; BT_SetLEAdvParm + 54
        0x010036c6:    2000        .       MOVS     r0,#0
        0x010036c8:    e7d8        ..      B        0x100367c ; BT_SetLEAdvParm + 12
    BT_RejectJustWork
        0x010036ca:    b53e        >.      PUSH     {r1-r5,lr}
        0x010036cc:    4604        .F      MOV      r4,r0
        0x010036ce:    9402        ..      STR      r4,[sp,#8]
        0x010036d0:    2149        I!      MOVS     r1,#0x49
        0x010036d2:    4668        hF      MOV      r0,sp
        0x010036d4:    7041        Ap      STRB     r1,[r0,#1]
        0x010036d6:    2101        .!      MOVS     r1,#1
        0x010036d8:    7081        .p      STRB     r1,[r0,#2]
        0x010036da:    1cc1        ..      ADDS     r1,r0,#3
        0x010036dc:    a802        ..      ADD      r0,sp,#8
        0x010036de:    f002ffc5    ....    BL       __aeabi_uwrite4 ; 0x100666c
        0x010036e2:    2119        .!      MOVS     r1,#0x19
        0x010036e4:    48b3        .H      LDR      r0,[pc,#716] ; [0x10039b4] = 0x2002c
        0x010036e6:    f7fffb30    ..0.    BL       BT_BIT_CLEAR ; 0x1002d4a
        0x010036ea:    4668        hF      MOV      r0,sp
        0x010036ec:    f7fffc12    ....    BL       SendCMD ; 0x1002f14
        0x010036f0:    f7fef9c2    ....    BL       SysTick_GetTick ; 0x1001a78
        0x010036f4:    49ae        .I      LDR      r1,[pc,#696] ; [0x10039b0] = 0x20028
        0x010036f6:    6008        .`      STR      r0,[r1,#0]
        0x010036f8:    bf00        ..      NOP      
        0x010036fa:    2119        .!      MOVS     r1,#0x19
        0x010036fc:    48ad        .H      LDR      r0,[pc,#692] ; [0x10039b4] = 0x2002c
        0x010036fe:    f7fffb35    ..5.    BL       BT_BIT_GET ; 0x1002d6c
        0x01003702:    2800        .(      CMP      r0,#0
        0x01003704:    d001        ..      BEQ      0x100370a ; BT_RejectJustWork + 64
        0x01003706:    2001        .       MOVS     r0,#1
        0x01003708:    bd3e        >.      POP      {r1-r5,pc}
        0x0100370a:    21ff        .!      MOVS     r1,#0xff
        0x0100370c:    31f5        .1      ADDS     r1,r1,#0xf5
        0x0100370e:    48a8        .H      LDR      r0,[pc,#672] ; [0x10039b0] = 0x20028
        0x01003710:    6800        .h      LDR      r0,[r0,#0]
        0x01003712:    f7fef9b4    ....    BL       SysTick_IsTimeOut ; 0x1001a7e
        0x01003716:    2800        .(      CMP      r0,#0
        0x01003718:    d0ef        ..      BEQ      0x10036fa ; BT_RejectJustWork + 48
        0x0100371a:    2000        .       MOVS     r0,#0
        0x0100371c:    e7f4        ..      B        0x1003708 ; BT_RejectJustWork + 62
    BT_SetTxPower
        0x0100371e:    b53e        >.      PUSH     {r1-r5,lr}
        0x01003720:    4604        .F      MOV      r4,r0
        0x01003722:    9402        ..      STR      r4,[sp,#8]
        0x01003724:    2142        B!      MOVS     r1,#0x42
        0x01003726:    4668        hF      MOV      r0,sp
        0x01003728:    7041        Ap      STRB     r1,[r0,#1]
        0x0100372a:    2101        .!      MOVS     r1,#1
        0x0100372c:    7081        .p      STRB     r1,[r0,#2]
        0x0100372e:    1cc1        ..      ADDS     r1,r0,#3
        0x01003730:    a802        ..      ADD      r0,sp,#8
        0x01003732:    f002ff9b    ....    BL       __aeabi_uwrite4 ; 0x100666c
        0x01003736:    210e        .!      MOVS     r1,#0xe
        0x01003738:    489e        .H      LDR      r0,[pc,#632] ; [0x10039b4] = 0x2002c
        0x0100373a:    f7fffb06    ....    BL       BT_BIT_CLEAR ; 0x1002d4a
        0x0100373e:    4668        hF      MOV      r0,sp
        0x01003740:    f7fffbe8    ....    BL       SendCMD ; 0x1002f14
        0x01003744:    f7fef998    ....    BL       SysTick_GetTick ; 0x1001a78
        0x01003748:    4999        .I      LDR      r1,[pc,#612] ; [0x10039b0] = 0x20028
        0x0100374a:    6008        .`      STR      r0,[r1,#0]
        0x0100374c:    bf00        ..      NOP      
        0x0100374e:    210e        .!      MOVS     r1,#0xe
        0x01003750:    4898        .H      LDR      r0,[pc,#608] ; [0x10039b4] = 0x2002c
        0x01003752:    f7fffb0b    ....    BL       BT_BIT_GET ; 0x1002d6c
        0x01003756:    2800        .(      CMP      r0,#0
        0x01003758:    d001        ..      BEQ      0x100375e ; BT_SetTxPower + 64
        0x0100375a:    2001        .       MOVS     r0,#1
        0x0100375c:    bd3e        >.      POP      {r1-r5,pc}
        0x0100375e:    21ff        .!      MOVS     r1,#0xff
        0x01003760:    31f5        .1      ADDS     r1,r1,#0xf5
        0x01003762:    4893        .H      LDR      r0,[pc,#588] ; [0x10039b0] = 0x20028
        0x01003764:    6800        .h      LDR      r0,[r0,#0]
        0x01003766:    f7fef98a    ....    BL       SysTick_IsTimeOut ; 0x1001a7e
        0x0100376a:    2800        .(      CMP      r0,#0
        0x0100376c:    d0ef        ..      BEQ      0x100374e ; BT_SetTxPower + 48
        0x0100376e:    2000        .       MOVS     r0,#0
        0x01003770:    e7f4        ..      B        0x100375c ; BT_SetTxPower + 62
    BT_Set_FixedPasskey
        0x01003772:    b51c        ..      PUSH     {r2-r4,lr}
        0x01003774:    4604        .F      MOV      r4,r0
        0x01003776:    2161        a!      MOVS     r1,#0x61
        0x01003778:    4668        hF      MOV      r0,sp
        0x0100377a:    7041        Ap      STRB     r1,[r0,#1]
        0x0100377c:    2105        .!      MOVS     r1,#5
        0x0100377e:    7081        .p      STRB     r1,[r0,#2]
        0x01003780:    1cc1        ..      ADDS     r1,r0,#3
        0x01003782:    4620         F      MOV      r0,r4
        0x01003784:    f002ff72    ..r.    BL       __aeabi_uwrite4 ; 0x100666c
        0x01003788:    211a        .!      MOVS     r1,#0x1a
        0x0100378a:    488a        .H      LDR      r0,[pc,#552] ; [0x10039b4] = 0x2002c
        0x0100378c:    f7fffadd    ....    BL       BT_BIT_CLEAR ; 0x1002d4a
        0x01003790:    4668        hF      MOV      r0,sp
        0x01003792:    f7fffbbf    ....    BL       SendCMD ; 0x1002f14
        0x01003796:    f7fef96f    ..o.    BL       SysTick_GetTick ; 0x1001a78
        0x0100379a:    4985        .I      LDR      r1,[pc,#532] ; [0x10039b0] = 0x20028
        0x0100379c:    6008        .`      STR      r0,[r1,#0]
        0x0100379e:    bf00        ..      NOP      
        0x010037a0:    211a        .!      MOVS     r1,#0x1a
        0x010037a2:    4884        .H      LDR      r0,[pc,#528] ; [0x10039b4] = 0x2002c
        0x010037a4:    f7fffae2    ....    BL       BT_BIT_GET ; 0x1002d6c
        0x010037a8:    2800        .(      CMP      r0,#0
        0x010037aa:    d001        ..      BEQ      0x10037b0 ; BT_Set_FixedPasskey + 62
        0x010037ac:    2001        .       MOVS     r0,#1
        0x010037ae:    bd1c        ..      POP      {r2-r4,pc}
        0x010037b0:    21ff        .!      MOVS     r1,#0xff
        0x010037b2:    31f5        .1      ADDS     r1,r1,#0xf5
        0x010037b4:    487e        ~H      LDR      r0,[pc,#504] ; [0x10039b0] = 0x20028
        0x010037b6:    6800        .h      LDR      r0,[r0,#0]
        0x010037b8:    f7fef961    ..a.    BL       SysTick_IsTimeOut ; 0x1001a7e
        0x010037bc:    2800        .(      CMP      r0,#0
        0x010037be:    d0ef        ..      BEQ      0x10037a0 ; BT_Set_FixedPasskey + 46
        0x010037c0:    2000        .       MOVS     r0,#0
        0x010037c2:    e7f4        ..      B        0x10037ae ; BT_Set_FixedPasskey + 60
    BT_SetCOD
        0x010037c4:    b51c        ..      PUSH     {r2-r4,lr}
        0x010037c6:    4604        .F      MOV      r4,r0
        0x010037c8:    2115        .!      MOVS     r1,#0x15
        0x010037ca:    4668        hF      MOV      r0,sp
        0x010037cc:    7041        Ap      STRB     r1,[r0,#1]
        0x010037ce:    2103        .!      MOVS     r1,#3
        0x010037d0:    7081        .p      STRB     r1,[r0,#2]
        0x010037d2:    4469        iD      ADD      r1,sp,r1
        0x010037d4:    4620         F      MOV      r0,r4
        0x010037d6:    f002ff49    ..I.    BL       __aeabi_uwrite4 ; 0x100666c
        0x010037da:    211d        .!      MOVS     r1,#0x1d
        0x010037dc:    4875        uH      LDR      r0,[pc,#468] ; [0x10039b4] = 0x2002c
        0x010037de:    f7fffab4    ....    BL       BT_BIT_CLEAR ; 0x1002d4a
        0x010037e2:    4668        hF      MOV      r0,sp
        0x010037e4:    f7fffb96    ....    BL       SendCMD ; 0x1002f14
        0x010037e8:    f7fef946    ..F.    BL       SysTick_GetTick ; 0x1001a78
        0x010037ec:    4970        pI      LDR      r1,[pc,#448] ; [0x10039b0] = 0x20028
        0x010037ee:    6008        .`      STR      r0,[r1,#0]
        0x010037f0:    bf00        ..      NOP      
        0x010037f2:    211d        .!      MOVS     r1,#0x1d
        0x010037f4:    486f        oH      LDR      r0,[pc,#444] ; [0x10039b4] = 0x2002c
        0x010037f6:    f7fffab9    ....    BL       BT_BIT_GET ; 0x1002d6c
        0x010037fa:    2800        .(      CMP      r0,#0
        0x010037fc:    d001        ..      BEQ      0x1003802 ; BT_SetCOD + 62
        0x010037fe:    2001        .       MOVS     r0,#1
        0x01003800:    bd1c        ..      POP      {r2-r4,pc}
        0x01003802:    21ff        .!      MOVS     r1,#0xff
        0x01003804:    31f5        .1      ADDS     r1,r1,#0xf5
        0x01003806:    486a        jH      LDR      r0,[pc,#424] ; [0x10039b0] = 0x20028
        0x01003808:    6800        .h      LDR      r0,[r0,#0]
        0x0100380a:    f7fef938    ..8.    BL       SysTick_IsTimeOut ; 0x1001a7e
        0x0100380e:    2800        .(      CMP      r0,#0
        0x01003810:    d0ef        ..      BEQ      0x10037f2 ; BT_SetCOD + 46
        0x01003812:    2000        .       MOVS     r0,#0
        0x01003814:    e7f4        ..      B        0x1003800 ; BT_SetCOD + 60
    BT_DeleteService
        0x01003816:    b51c        ..      PUSH     {r2-r4,lr}
        0x01003818:    2176        v!      MOVS     r1,#0x76
        0x0100381a:    4668        hF      MOV      r0,sp
        0x0100381c:    7041        Ap      STRB     r1,[r0,#1]
        0x0100381e:    2100        .!      MOVS     r1,#0
        0x01003820:    7081        .p      STRB     r1,[r0,#2]
        0x01003822:    1cc1        ..      ADDS     r1,r0,#3
        0x01003824:    2000        .       MOVS     r0,#0
        0x01003826:    f002ff21    ..!.    BL       __aeabi_uwrite4 ; 0x100666c
        0x0100382a:    211f        .!      MOVS     r1,#0x1f
        0x0100382c:    4861        aH      LDR      r0,[pc,#388] ; [0x10039b4] = 0x2002c
        0x0100382e:    f7fffa8c    ....    BL       BT_BIT_CLEAR ; 0x1002d4a
        0x01003832:    4668        hF      MOV      r0,sp
        0x01003834:    f7fffb6e    ..n.    BL       SendCMD ; 0x1002f14
        0x01003838:    f7fef91e    ....    BL       SysTick_GetTick ; 0x1001a78
        0x0100383c:    495c        \I      LDR      r1,[pc,#368] ; [0x10039b0] = 0x20028
        0x0100383e:    6008        .`      STR      r0,[r1,#0]
        0x01003840:    bf00        ..      NOP      
        0x01003842:    211f        .!      MOVS     r1,#0x1f
        0x01003844:    485b        [H      LDR      r0,[pc,#364] ; [0x10039b4] = 0x2002c
        0x01003846:    f7fffa91    ....    BL       BT_BIT_GET ; 0x1002d6c
        0x0100384a:    2800        .(      CMP      r0,#0
        0x0100384c:    d001        ..      BEQ      0x1003852 ; BT_DeleteService + 60
        0x0100384e:    2001        .       MOVS     r0,#1
        0x01003850:    bd1c        ..      POP      {r2-r4,pc}
        0x01003852:    21ff        .!      MOVS     r1,#0xff
        0x01003854:    31f5        .1      ADDS     r1,r1,#0xf5
        0x01003856:    4856        VH      LDR      r0,[pc,#344] ; [0x10039b0] = 0x20028
        0x01003858:    6800        .h      LDR      r0,[r0,#0]
        0x0100385a:    f7fef910    ....    BL       SysTick_IsTimeOut ; 0x1001a7e
        0x0100385e:    2800        .(      CMP      r0,#0
        0x01003860:    d0ef        ..      BEQ      0x1003842 ; BT_DeleteService + 44
        0x01003862:    2000        .       MOVS     r0,#0
        0x01003864:    e7f4        ..      B        0x1003850 ; BT_DeleteService + 58
    BT_AddBleService
        0x01003866:    b57c        |.      PUSH     {r2-r6,lr}
        0x01003868:    4605        .F      MOV      r5,r0
        0x0100386a:    460c        .F      MOV      r4,r1
        0x0100386c:    2177        w!      MOVS     r1,#0x77
        0x0100386e:    4668        hF      MOV      r0,sp
        0x01003870:    7041        Ap      STRB     r1,[r0,#1]
        0x01003872:    7084        .p      STRB     r4,[r0,#2]
        0x01003874:    1cc1        ..      ADDS     r1,r0,#3
        0x01003876:    4628        (F      MOV      r0,r5
        0x01003878:    f002fef8    ....    BL       __aeabi_uwrite4 ; 0x100666c
        0x0100387c:    2120         !      MOVS     r1,#0x20
        0x0100387e:    484d        MH      LDR      r0,[pc,#308] ; [0x10039b4] = 0x2002c
        0x01003880:    f7fffa63    ..c.    BL       BT_BIT_CLEAR ; 0x1002d4a
        0x01003884:    4668        hF      MOV      r0,sp
        0x01003886:    f7fffb45    ..E.    BL       SendCMD ; 0x1002f14
        0x0100388a:    f7fef8f5    ....    BL       SysTick_GetTick ; 0x1001a78
        0x0100388e:    4948        HI      LDR      r1,[pc,#288] ; [0x10039b0] = 0x20028
        0x01003890:    6008        .`      STR      r0,[r1,#0]
        0x01003892:    bf00        ..      NOP      
        0x01003894:    2120         !      MOVS     r1,#0x20
        0x01003896:    4847        GH      LDR      r0,[pc,#284] ; [0x10039b4] = 0x2002c
        0x01003898:    f7fffa68    ..h.    BL       BT_BIT_GET ; 0x1002d6c
        0x0100389c:    2800        .(      CMP      r0,#0
        0x0100389e:    d006        ..      BEQ      0x10038ae ; BT_AddBleService + 72
        0x010038a0:    4845        EH      LDR      r0,[pc,#276] ; [0x10039b8] = 0x20034
        0x010038a2:    7800        .x      LDRB     r0,[r0,#0]
        0x010038a4:    4944        DI      LDR      r1,[pc,#272] ; [0x10039b8] = 0x20034
        0x010038a6:    7849        Ix      LDRB     r1,[r1,#1]
        0x010038a8:    0209        ..      LSLS     r1,r1,#8
        0x010038aa:    4308        .C      ORRS     r0,r0,r1
        0x010038ac:    bd7c        |.      POP      {r2-r6,pc}
        0x010038ae:    21ff        .!      MOVS     r1,#0xff
        0x010038b0:    31f5        .1      ADDS     r1,r1,#0xf5
        0x010038b2:    483f        ?H      LDR      r0,[pc,#252] ; [0x10039b0] = 0x20028
        0x010038b4:    6800        .h      LDR      r0,[r0,#0]
        0x010038b6:    f7fef8e2    ....    BL       SysTick_IsTimeOut ; 0x1001a7e
        0x010038ba:    2800        .(      CMP      r0,#0
        0x010038bc:    d0ea        ..      BEQ      0x1003894 ; BT_AddBleService + 46
        0x010038be:    2000        .       MOVS     r0,#0
        0x010038c0:    e7f4        ..      B        0x10038ac ; BT_AddBleService + 70
    BT_AddBleCharacteristic
        0x010038c2:    b57c        |.      PUSH     {r2-r6,lr}
        0x010038c4:    4605        .F      MOV      r5,r0
        0x010038c6:    460c        .F      MOV      r4,r1
        0x010038c8:    2178        x!      MOVS     r1,#0x78
        0x010038ca:    4668        hF      MOV      r0,sp
        0x010038cc:    7041        Ap      STRB     r1,[r0,#1]
        0x010038ce:    7084        .p      STRB     r4,[r0,#2]
        0x010038d0:    1cc1        ..      ADDS     r1,r0,#3
        0x010038d2:    4628        (F      MOV      r0,r5
        0x010038d4:    f002feca    ....    BL       __aeabi_uwrite4 ; 0x100666c
        0x010038d8:    2120         !      MOVS     r1,#0x20
        0x010038da:    4836        6H      LDR      r0,[pc,#216] ; [0x10039b4] = 0x2002c
        0x010038dc:    f7fffa35    ..5.    BL       BT_BIT_CLEAR ; 0x1002d4a
        0x010038e0:    4668        hF      MOV      r0,sp
        0x010038e2:    f7fffb17    ....    BL       SendCMD ; 0x1002f14
        0x010038e6:    f7fef8c7    ....    BL       SysTick_GetTick ; 0x1001a78
        0x010038ea:    4931        1I      LDR      r1,[pc,#196] ; [0x10039b0] = 0x20028
        0x010038ec:    6008        .`      STR      r0,[r1,#0]
        0x010038ee:    bf00        ..      NOP      
        0x010038f0:    2120         !      MOVS     r1,#0x20
        0x010038f2:    4830        0H      LDR      r0,[pc,#192] ; [0x10039b4] = 0x2002c
        0x010038f4:    f7fffa3a    ..:.    BL       BT_BIT_GET ; 0x1002d6c
        0x010038f8:    2800        .(      CMP      r0,#0
        0x010038fa:    d006        ..      BEQ      0x100390a ; BT_AddBleCharacteristic + 72
        0x010038fc:    482e        .H      LDR      r0,[pc,#184] ; [0x10039b8] = 0x20034
        0x010038fe:    7800        .x      LDRB     r0,[r0,#0]
        0x01003900:    492d        -I      LDR      r1,[pc,#180] ; [0x10039b8] = 0x20034
        0x01003902:    7849        Ix      LDRB     r1,[r1,#1]
        0x01003904:    0209        ..      LSLS     r1,r1,#8
        0x01003906:    4308        .C      ORRS     r0,r0,r1
        0x01003908:    bd7c        |.      POP      {r2-r6,pc}
        0x0100390a:    21ff        .!      MOVS     r1,#0xff
        0x0100390c:    31f5        .1      ADDS     r1,r1,#0xf5
        0x0100390e:    4828        (H      LDR      r0,[pc,#160] ; [0x10039b0] = 0x20028
        0x01003910:    6800        .h      LDR      r0,[r0,#0]
        0x01003912:    f7fef8b4    ....    BL       SysTick_IsTimeOut ; 0x1001a7e
        0x01003916:    2800        .(      CMP      r0,#0
        0x01003918:    d0ea        ..      BEQ      0x10038f0 ; BT_AddBleCharacteristic + 46
        0x0100391a:    2000        .       MOVS     r0,#0
        0x0100391c:    e7f4        ..      B        0x1003908 ; BT_AddBleCharacteristic + 70
    BT_DnsReq
        0x0100391e:    b530        0.      PUSH     {r4,r5,lr}
        0x01003920:    b093        ..      SUB      sp,sp,#0x4c
        0x01003922:    4605        .F      MOV      r5,r0
        0x01003924:    460c        .F      MOV      r4,r1
        0x01003926:    b2e1        ..      UXTB     r1,r4
        0x01003928:    ab02        ..      ADD      r3,sp,#8
        0x0100392a:    aa03        ..      ADD      r2,sp,#0xc
        0x0100392c:    4628        (F      MOV      r0,r5
        0x0100392e:    f7fffa73    ..s.    BL       BNEP_DomainConvert ; 0x1002e18
        0x01003932:    2801        .(      CMP      r0,#1
        0x01003934:    d002        ..      BEQ      0x100393c ; BT_DnsReq + 30
        0x01003936:    2000        .       MOVS     r0,#0
        0x01003938:    b013        ..      ADD      sp,sp,#0x4c
        0x0100393a:    bd30        0.      POP      {r4,r5,pc}
        0x0100393c:    2182        .!      MOVS     r1,#0x82
        0x0100393e:    4668        hF      MOV      r0,sp
        0x01003940:    7041        Ap      STRB     r1,[r0,#1]
        0x01003942:    9802        ..      LDR      r0,[sp,#8]
        0x01003944:    b2c1        ..      UXTB     r1,r0
        0x01003946:    4668        hF      MOV      r0,sp
        0x01003948:    7081        .p      STRB     r1,[r0,#2]
        0x0100394a:    1cc1        ..      ADDS     r1,r0,#3
        0x0100394c:    a803        ..      ADD      r0,sp,#0xc
        0x0100394e:    f002fe8d    ....    BL       __aeabi_uwrite4 ; 0x100666c
        0x01003952:    2121        !!      MOVS     r1,#0x21
        0x01003954:    4817        .H      LDR      r0,[pc,#92] ; [0x10039b4] = 0x2002c
        0x01003956:    f7fff9f8    ....    BL       BT_BIT_CLEAR ; 0x1002d4a
        0x0100395a:    4668        hF      MOV      r0,sp
        0x0100395c:    f7fffada    ....    BL       SendCMD ; 0x1002f14
        0x01003960:    f7fef88a    ....    BL       SysTick_GetTick ; 0x1001a78
        0x01003964:    4912        .I      LDR      r1,[pc,#72] ; [0x10039b0] = 0x20028
        0x01003966:    6008        .`      STR      r0,[r1,#0]
        0x01003968:    bf00        ..      NOP      
        0x0100396a:    2121        !!      MOVS     r1,#0x21
        0x0100396c:    4811        .H      LDR      r0,[pc,#68] ; [0x10039b4] = 0x2002c
        0x0100396e:    f7fff9fd    ....    BL       BT_BIT_GET ; 0x1002d6c
        0x01003972:    2800        .(      CMP      r0,#0
        0x01003974:    d001        ..      BEQ      0x100397a ; BT_DnsReq + 92
        0x01003976:    2001        .       MOVS     r0,#1
        0x01003978:    e7de        ..      B        0x1003938 ; BT_DnsReq + 26
        0x0100397a:    21ff        .!      MOVS     r1,#0xff
        0x0100397c:    31f5        .1      ADDS     r1,r1,#0xf5
        0x0100397e:    480c        .H      LDR      r0,[pc,#48] ; [0x10039b0] = 0x20028
        0x01003980:    6800        .h      LDR      r0,[r0,#0]
        0x01003982:    f7fef87c    ..|.    BL       SysTick_IsTimeOut ; 0x1001a7e
        0x01003986:    2800        .(      CMP      r0,#0
        0x01003988:    d0ef        ..      BEQ      0x100396a ; BT_DnsReq + 76
        0x0100398a:    2000        .       MOVS     r0,#0
        0x0100398c:    e7d4        ..      B        0x1003938 ; BT_DnsReq + 26
    BT_ConnectBnep
        0x0100398e:    b57c        |.      PUSH     {r2-r6,lr}
        0x01003990:    4605        .F      MOV      r5,r0
        0x01003992:    460c        .F      MOV      r4,r1
        0x01003994:    217e        ~!      MOVS     r1,#0x7e
        0x01003996:    4668        hF      MOV      r0,sp
        0x01003998:    7041        Ap      STRB     r1,[r0,#1]
        0x0100399a:    7084        .p      STRB     r4,[r0,#2]
        0x0100399c:    1cc1        ..      ADDS     r1,r0,#3
        0x0100399e:    4628        (F      MOV      r0,r5
        0x010039a0:    f002fe64    ..d.    BL       __aeabi_uwrite4 ; 0x100666c
        0x010039a4:    2122        "!      MOVS     r1,#0x22
        0x010039a6:    4803        .H      LDR      r0,[pc,#12] ; [0x10039b4] = 0x2002c
        0x010039a8:    f7fff9cf    ....    BL       BT_BIT_CLEAR ; 0x1002d4a
        0x010039ac:    4668        hF      MOV      r0,sp
        0x010039ae:    e005        ..      B        0x10039bc ; BT_ConnectBnep + 46
    $d
        0x010039b0:    00020028    (...    DCD    131112
        0x010039b4:    0002002c    ,...    DCD    131116
        0x010039b8:    00020034    4...    DCD    131124
    $t
        0x010039bc:    f7fffaaa    ....    BL       SendCMD ; 0x1002f14
        0x010039c0:    f7fef85a    ..Z.    BL       SysTick_GetTick ; 0x1001a78
        0x010039c4:    49f8        .I      LDR      r1,[pc,#992] ; [0x1003da8] = 0x20028
        0x010039c6:    6008        .`      STR      r0,[r1,#0]
        0x010039c8:    bf00        ..      NOP      
        0x010039ca:    2122        "!      MOVS     r1,#0x22
        0x010039cc:    48f7        .H      LDR      r0,[pc,#988] ; [0x1003dac] = 0x2002c
        0x010039ce:    f7fff9cd    ....    BL       BT_BIT_GET ; 0x1002d6c
        0x010039d2:    2800        .(      CMP      r0,#0
        0x010039d4:    d001        ..      BEQ      0x10039da ; BT_ConnectBnep + 76
        0x010039d6:    2001        .       MOVS     r0,#1
        0x010039d8:    bd7c        |.      POP      {r2-r6,pc}
        0x010039da:    21ff        .!      MOVS     r1,#0xff
        0x010039dc:    31f5        .1      ADDS     r1,r1,#0xf5
        0x010039de:    48f2        .H      LDR      r0,[pc,#968] ; [0x1003da8] = 0x20028
        0x010039e0:    6800        .h      LDR      r0,[r0,#0]
        0x010039e2:    f7fef84c    ..L.    BL       SysTick_IsTimeOut ; 0x1001a7e
        0x010039e6:    2800        .(      CMP      r0,#0
        0x010039e8:    d0ef        ..      BEQ      0x10039ca ; BT_ConnectBnep + 60
        0x010039ea:    2000        .       MOVS     r0,#0
        0x010039ec:    e7f4        ..      B        0x10039d8 ; BT_ConnectBnep + 74
    BT_disconnectBnep
        0x010039ee:    b510        ..      PUSH     {r4,lr}
        0x010039f0:    f7fffc71    ..q.    BL       BT_BtDisconnect ; 0x10032d6
        0x010039f4:    bd10        ..      POP      {r4,pc}
    BT_ConnectTcp
        0x010039f6:    b57c        |.      PUSH     {r2-r6,lr}
        0x010039f8:    4605        .F      MOV      r5,r0
        0x010039fa:    460c        .F      MOV      r4,r1
        0x010039fc:    217f        .!      MOVS     r1,#0x7f
        0x010039fe:    4668        hF      MOV      r0,sp
        0x01003a00:    7041        Ap      STRB     r1,[r0,#1]
        0x01003a02:    7084        .p      STRB     r4,[r0,#2]
        0x01003a04:    1cc1        ..      ADDS     r1,r0,#3
        0x01003a06:    4628        (F      MOV      r0,r5
        0x01003a08:    f002fe30    ..0.    BL       __aeabi_uwrite4 ; 0x100666c
        0x01003a0c:    2123        #!      MOVS     r1,#0x23
        0x01003a0e:    48e7        .H      LDR      r0,[pc,#924] ; [0x1003dac] = 0x2002c
        0x01003a10:    f7fff99b    ....    BL       BT_BIT_CLEAR ; 0x1002d4a
        0x01003a14:    4668        hF      MOV      r0,sp
        0x01003a16:    f7fffa7d    ..}.    BL       SendCMD ; 0x1002f14
        0x01003a1a:    f7fef82d    ..-.    BL       SysTick_GetTick ; 0x1001a78
        0x01003a1e:    49e2        .I      LDR      r1,[pc,#904] ; [0x1003da8] = 0x20028
        0x01003a20:    6008        .`      STR      r0,[r1,#0]
        0x01003a22:    bf00        ..      NOP      
        0x01003a24:    2123        #!      MOVS     r1,#0x23
        0x01003a26:    48e1        .H      LDR      r0,[pc,#900] ; [0x1003dac] = 0x2002c
        0x01003a28:    f7fff9a0    ....    BL       BT_BIT_GET ; 0x1002d6c
        0x01003a2c:    2800        .(      CMP      r0,#0
        0x01003a2e:    d001        ..      BEQ      0x1003a34 ; BT_ConnectTcp + 62
        0x01003a30:    2001        .       MOVS     r0,#1
        0x01003a32:    bd7c        |.      POP      {r2-r6,pc}
        0x01003a34:    21ff        .!      MOVS     r1,#0xff
        0x01003a36:    31f5        .1      ADDS     r1,r1,#0xf5
        0x01003a38:    48db        .H      LDR      r0,[pc,#876] ; [0x1003da8] = 0x20028
        0x01003a3a:    6800        .h      LDR      r0,[r0,#0]
        0x01003a3c:    f7fef81f    ....    BL       SysTick_IsTimeOut ; 0x1001a7e
        0x01003a40:    2800        .(      CMP      r0,#0
        0x01003a42:    d0ef        ..      BEQ      0x1003a24 ; BT_ConnectTcp + 46
        0x01003a44:    2000        .       MOVS     r0,#0
        0x01003a46:    e7f4        ..      B        0x1003a32 ; BT_ConnectTcp + 60
    BT_BnepSendTcpData
        0x01003a48:    b57c        |.      PUSH     {r2-r6,lr}
        0x01003a4a:    4605        .F      MOV      r5,r0
        0x01003a4c:    460c        .F      MOV      r4,r1
        0x01003a4e:    1e60        `.      SUBS     r0,r4,#1
        0x01003a50:    28eb        .(      CMP      r0,#0xeb
        0x01003a52:    dd01        ..      BLE      0x1003a58 ; BT_BnepSendTcpData + 16
        0x01003a54:    2000        .       MOVS     r0,#0
        0x01003a56:    bd7c        |.      POP      {r2-r6,pc}
        0x01003a58:    2181        .!      MOVS     r1,#0x81
        0x01003a5a:    4668        hF      MOV      r0,sp
        0x01003a5c:    7041        Ap      STRB     r1,[r0,#1]
        0x01003a5e:    7084        .p      STRB     r4,[r0,#2]
        0x01003a60:    1cc1        ..      ADDS     r1,r0,#3
        0x01003a62:    4628        (F      MOV      r0,r5
        0x01003a64:    f002fe02    ....    BL       __aeabi_uwrite4 ; 0x100666c
        0x01003a68:    2124        $!      MOVS     r1,#0x24
        0x01003a6a:    48d0        .H      LDR      r0,[pc,#832] ; [0x1003dac] = 0x2002c
        0x01003a6c:    f7fff96d    ..m.    BL       BT_BIT_CLEAR ; 0x1002d4a
        0x01003a70:    4668        hF      MOV      r0,sp
        0x01003a72:    f7fffa4f    ..O.    BL       SendCMD ; 0x1002f14
        0x01003a76:    f7fdffff    ....    BL       SysTick_GetTick ; 0x1001a78
        0x01003a7a:    49cb        .I      LDR      r1,[pc,#812] ; [0x1003da8] = 0x20028
        0x01003a7c:    6008        .`      STR      r0,[r1,#0]
        0x01003a7e:    bf00        ..      NOP      
        0x01003a80:    2124        $!      MOVS     r1,#0x24
        0x01003a82:    48ca        .H      LDR      r0,[pc,#808] ; [0x1003dac] = 0x2002c
        0x01003a84:    f7fff972    ..r.    BL       BT_BIT_GET ; 0x1002d6c
        0x01003a88:    2800        .(      CMP      r0,#0
        0x01003a8a:    d001        ..      BEQ      0x1003a90 ; BT_BnepSendTcpData + 72
        0x01003a8c:    2001        .       MOVS     r0,#1
        0x01003a8e:    e7e2        ..      B        0x1003a56 ; BT_BnepSendTcpData + 14
        0x01003a90:    21ff        .!      MOVS     r1,#0xff
        0x01003a92:    31f5        .1      ADDS     r1,r1,#0xf5
        0x01003a94:    48c4        .H      LDR      r0,[pc,#784] ; [0x1003da8] = 0x20028
        0x01003a96:    6800        .h      LDR      r0,[r0,#0]
        0x01003a98:    f7fdfff1    ....    BL       SysTick_IsTimeOut ; 0x1001a7e
        0x01003a9c:    2800        .(      CMP      r0,#0
        0x01003a9e:    d0ef        ..      BEQ      0x1003a80 ; BT_BnepSendTcpData + 56
        0x01003aa0:    2000        .       MOVS     r0,#0
        0x01003aa2:    e7d8        ..      B        0x1003a56 ; BT_BnepSendTcpData + 14
    BT_BnepSendTcpBigData
        0x01003aa4:    b5f0        ..      PUSH     {r4-r7,lr}
        0x01003aa6:    b0c3        ..      SUB      sp,sp,#0x10c
        0x01003aa8:    4606        .F      MOV      r6,r0
        0x01003aaa:    460c        .F      MOV      r4,r1
        0x01003aac:    1e60        `.      SUBS     r0,r4,#1
        0x01003aae:    49c0        .I      LDR      r1,[pc,#768] ; [0x1003db0] = 0x5ac
        0x01003ab0:    4288        .B      CMP      r0,r1
        0x01003ab2:    dd02        ..      BLE      0x1003aba ; BT_BnepSendTcpBigData + 22
        0x01003ab4:    2000        .       MOVS     r0,#0
        0x01003ab6:    b043        C.      ADD      sp,sp,#0x10c
        0x01003ab8:    bdf0        ..      POP      {r4-r7,pc}
        0x01003aba:    2085        .       MOVS     r0,#0x85
        0x01003abc:    a940        @.      ADD      r1,sp,#0x100
        0x01003abe:    7148        Hq      STRB     r0,[r1,#5]
        0x01003ac0:    2500        .%      MOVS     r5,#0
        0x01003ac2:    2128        (!      MOVS     r1,#0x28
        0x01003ac4:    48b9        .H      LDR      r0,[pc,#740] ; [0x1003dac] = 0x2002c
        0x01003ac6:    f7fff940    ..@.    BL       BT_BIT_CLEAR ; 0x1002d4a
        0x01003aca:    2129        )!      MOVS     r1,#0x29
        0x01003acc:    48b7        .H      LDR      r0,[pc,#732] ; [0x1003dac] = 0x2002c
        0x01003ace:    f7fff93c    ..<.    BL       BT_BIT_CLEAR ; 0x1002d4a
        0x01003ad2:    e054        T.      B        0x1003b7e ; BT_BnepSendTcpBigData + 218
        0x01003ad4:    2d00        .-      CMP      r5,#0
        0x01003ad6:    d124        $.      BNE      0x1003b22 ; BT_BnepSendTcpBigData + 126
        0x01003ad8:    1e60        `.      SUBS     r0,r4,#1
        0x01003ada:    28fa        .(      CMP      r0,#0xfa
        0x01003adc:    dd01        ..      BLE      0x1003ae2 ; BT_BnepSendTcpBigData + 62
        0x01003ade:    20fa        .       MOVS     r0,#0xfa
        0x01003ae0:    e000        ..      B        0x1003ae4 ; BT_BnepSendTcpBigData + 64
        0x01003ae2:    1e60        `.      SUBS     r0,r4,#1
        0x01003ae4:    4607        .F      MOV      r7,r0
        0x01003ae6:    1d78        x.      ADDS     r0,r7,#5
        0x01003ae8:    b2c1        ..      UXTB     r1,r0
        0x01003aea:    a840        @.      ADD      r0,sp,#0x100
        0x01003aec:    7181        .q      STRB     r1,[r0,#6]
        0x01003aee:    7831        1x      LDRB     r1,[r6,#0]
        0x01003af0:    4668        hF      MOV      r0,sp
        0x01003af2:    7101        .q      STRB     r1,[r0,#4]
        0x01003af4:    1e60        `.      SUBS     r0,r4,#1
        0x01003af6:    b2c1        ..      UXTB     r1,r0
        0x01003af8:    4668        hF      MOV      r0,sp
        0x01003afa:    7141        Aq      STRB     r1,[r0,#5]
        0x01003afc:    1e60        `.      SUBS     r0,r4,#1
        0x01003afe:    0400        ..      LSLS     r0,r0,#16
        0x01003b00:    0e01        ..      LSRS     r1,r0,#24
        0x01003b02:    4668        hF      MOV      r0,sp
        0x01003b04:    7181        .q      STRB     r1,[r0,#6]
        0x01003b06:    2100        .!      MOVS     r1,#0
        0x01003b08:    71c1        .q      STRB     r1,[r0,#7]
        0x01003b0a:    7201        .r      STRB     r1,[r0,#8]
        0x01003b0c:    463a        :F      MOV      r2,r7
        0x01003b0e:    1c71        q.      ADDS     r1,r6,#1
        0x01003b10:    3009        .0      ADDS     r0,r0,#9
        0x01003b12:    f002fd7d    ..}.    BL       __aeabi_memcpy ; 0x1006610
        0x01003b16:    a941        A.      ADD      r1,sp,#0x104
        0x01003b18:    3103        .1      ADDS     r1,#3
        0x01003b1a:    a801        ..      ADD      r0,sp,#4
        0x01003b1c:    f002fda6    ....    BL       __aeabi_uwrite4 ; 0x100666c
        0x01003b20:    e010        ..      B        0x1003b44 ; BT_BnepSendTcpBigData + 160
        0x01003b22:    1e60        `.      SUBS     r0,r4,#1
        0x01003b24:    1b40        @.      SUBS     r0,r0,r5
        0x01003b26:    28ff        .(      CMP      r0,#0xff
        0x01003b28:    dd01        ..      BLE      0x1003b2e ; BT_BnepSendTcpBigData + 138
        0x01003b2a:    20ff        .       MOVS     r0,#0xff
        0x01003b2c:    e001        ..      B        0x1003b32 ; BT_BnepSendTcpBigData + 142
        0x01003b2e:    1e60        `.      SUBS     r0,r4,#1
        0x01003b30:    1b40        @.      SUBS     r0,r0,r5
        0x01003b32:    4607        .F      MOV      r7,r0
        0x01003b34:    a940        @.      ADD      r1,sp,#0x100
        0x01003b36:    718f        .q      STRB     r7,[r1,#6]
        0x01003b38:    1c69        i.      ADDS     r1,r5,#1
        0x01003b3a:    1870        p.      ADDS     r0,r6,r1
        0x01003b3c:    a941        A.      ADD      r1,sp,#0x104
        0x01003b3e:    3103        .1      ADDS     r1,#3
        0x01003b40:    f002fd94    ....    BL       __aeabi_uwrite4 ; 0x100666c
        0x01003b44:    2127        '!      MOVS     r1,#0x27
        0x01003b46:    4899        .H      LDR      r0,[pc,#612] ; [0x1003dac] = 0x2002c
        0x01003b48:    f7fff8ff    ....    BL       BT_BIT_CLEAR ; 0x1002d4a
        0x01003b4c:    a841        A.      ADD      r0,sp,#0x104
        0x01003b4e:    f7fff9e1    ....    BL       SendCMD ; 0x1002f14
        0x01003b52:    f7fdff91    ....    BL       SysTick_GetTick ; 0x1001a78
        0x01003b56:    4994        .I      LDR      r1,[pc,#592] ; [0x1003da8] = 0x20028
        0x01003b58:    6008        .`      STR      r0,[r1,#0]
        0x01003b5a:    e009        ..      B        0x1003b70 ; BT_BnepSendTcpBigData + 204
        0x01003b5c:    21ff        .!      MOVS     r1,#0xff
        0x01003b5e:    31f5        .1      ADDS     r1,r1,#0xf5
        0x01003b60:    4891        .H      LDR      r0,[pc,#580] ; [0x1003da8] = 0x20028
        0x01003b62:    6800        .h      LDR      r0,[r0,#0]
        0x01003b64:    f7fdff8b    ....    BL       SysTick_IsTimeOut ; 0x1001a7e
        0x01003b68:    2800        .(      CMP      r0,#0
        0x01003b6a:    d001        ..      BEQ      0x1003b70 ; BT_BnepSendTcpBigData + 204
        0x01003b6c:    2000        .       MOVS     r0,#0
        0x01003b6e:    e7a2        ..      B        0x1003ab6 ; BT_BnepSendTcpBigData + 18
        0x01003b70:    2127        '!      MOVS     r1,#0x27
        0x01003b72:    488e        .H      LDR      r0,[pc,#568] ; [0x1003dac] = 0x2002c
        0x01003b74:    f7fff8fa    ....    BL       BT_BIT_GET ; 0x1002d6c
        0x01003b78:    2800        .(      CMP      r0,#0
        0x01003b7a:    d0ef        ..      BEQ      0x1003b5c ; BT_BnepSendTcpBigData + 184
        0x01003b7c:    19ed        ..      ADDS     r5,r5,r7
        0x01003b7e:    1e60        `.      SUBS     r0,r4,#1
        0x01003b80:    42a8        .B      CMP      r0,r5
        0x01003b82:    dca7        ..      BGT      0x1003ad4 ; BT_BnepSendTcpBigData + 48
        0x01003b84:    f7fdff78    ..x.    BL       SysTick_GetTick ; 0x1001a78
        0x01003b88:    4987        .I      LDR      r1,[pc,#540] ; [0x1003da8] = 0x20028
        0x01003b8a:    6008        .`      STR      r0,[r1,#0]
        0x01003b8c:    e009        ..      B        0x1003ba2 ; BT_BnepSendTcpBigData + 254
        0x01003b8e:    21ff        .!      MOVS     r1,#0xff
        0x01003b90:    31f5        .1      ADDS     r1,r1,#0xf5
        0x01003b92:    4885        .H      LDR      r0,[pc,#532] ; [0x1003da8] = 0x20028
        0x01003b94:    6800        .h      LDR      r0,[r0,#0]
        0x01003b96:    f7fdff72    ..r.    BL       SysTick_IsTimeOut ; 0x1001a7e
        0x01003b9a:    2800        .(      CMP      r0,#0
        0x01003b9c:    d001        ..      BEQ      0x1003ba2 ; BT_BnepSendTcpBigData + 254
        0x01003b9e:    2000        .       MOVS     r0,#0
        0x01003ba0:    e789        ..      B        0x1003ab6 ; BT_BnepSendTcpBigData + 18
        0x01003ba2:    2128        (!      MOVS     r1,#0x28
        0x01003ba4:    4881        .H      LDR      r0,[pc,#516] ; [0x1003dac] = 0x2002c
        0x01003ba6:    f7fff8e1    ....    BL       BT_BIT_GET ; 0x1002d6c
        0x01003baa:    2800        .(      CMP      r0,#0
        0x01003bac:    d0ef        ..      BEQ      0x1003b8e ; BT_BnepSendTcpBigData + 234
        0x01003bae:    f7fdff63    ..c.    BL       SysTick_GetTick ; 0x1001a78
        0x01003bb2:    497d        }I      LDR      r1,[pc,#500] ; [0x1003da8] = 0x20028
        0x01003bb4:    6008        .`      STR      r0,[r1,#0]
        0x01003bb6:    e009        ..      B        0x1003bcc ; BT_BnepSendTcpBigData + 296
        0x01003bb8:    21ff        .!      MOVS     r1,#0xff
        0x01003bba:    31f5        .1      ADDS     r1,r1,#0xf5
        0x01003bbc:    487a        zH      LDR      r0,[pc,#488] ; [0x1003da8] = 0x20028
        0x01003bbe:    6800        .h      LDR      r0,[r0,#0]
        0x01003bc0:    f7fdff5d    ..].    BL       SysTick_IsTimeOut ; 0x1001a7e
        0x01003bc4:    2800        .(      CMP      r0,#0
        0x01003bc6:    d001        ..      BEQ      0x1003bcc ; BT_BnepSendTcpBigData + 296
        0x01003bc8:    2000        .       MOVS     r0,#0
        0x01003bca:    e774        t.      B        0x1003ab6 ; BT_BnepSendTcpBigData + 18
        0x01003bcc:    2129        )!      MOVS     r1,#0x29
        0x01003bce:    4877        wH      LDR      r0,[pc,#476] ; [0x1003dac] = 0x2002c
        0x01003bd0:    f7fff8cc    ....    BL       BT_BIT_GET ; 0x1002d6c
        0x01003bd4:    2800        .(      CMP      r0,#0
        0x01003bd6:    d0ef        ..      BEQ      0x1003bb8 ; BT_BnepSendTcpBigData + 276
        0x01003bd8:    2001        .       MOVS     r0,#1
        0x01003bda:    e76c        l.      B        0x1003ab6 ; BT_BnepSendTcpBigData + 18
    BT_BnepSendUdpData
        0x01003bdc:    b57c        |.      PUSH     {r2-r6,lr}
        0x01003bde:    4605        .F      MOV      r5,r0
        0x01003be0:    460c        .F      MOV      r4,r1
        0x01003be2:    2c08        .,      CMP      r4,#8
        0x01003be4:    db01        ..      BLT      0x1003bea ; BT_BnepSendUdpData + 14
        0x01003be6:    2cff        .,      CMP      r4,#0xff
        0x01003be8:    dd01        ..      BLE      0x1003bee ; BT_BnepSendUdpData + 18
        0x01003bea:    2000        .       MOVS     r0,#0
        0x01003bec:    bd7c        |.      POP      {r2-r6,pc}
        0x01003bee:    2184        .!      MOVS     r1,#0x84
        0x01003bf0:    4668        hF      MOV      r0,sp
        0x01003bf2:    7041        Ap      STRB     r1,[r0,#1]
        0x01003bf4:    7084        .p      STRB     r4,[r0,#2]
        0x01003bf6:    1cc1        ..      ADDS     r1,r0,#3
        0x01003bf8:    4628        (F      MOV      r0,r5
        0x01003bfa:    f002fd37    ..7.    BL       __aeabi_uwrite4 ; 0x100666c
        0x01003bfe:    2126        &!      MOVS     r1,#0x26
        0x01003c00:    486a        jH      LDR      r0,[pc,#424] ; [0x1003dac] = 0x2002c
        0x01003c02:    f7fff8a2    ....    BL       BT_BIT_CLEAR ; 0x1002d4a
        0x01003c06:    4668        hF      MOV      r0,sp
        0x01003c08:    f7fff984    ....    BL       SendCMD ; 0x1002f14
        0x01003c0c:    f7fdff34    ..4.    BL       SysTick_GetTick ; 0x1001a78
        0x01003c10:    4965        eI      LDR      r1,[pc,#404] ; [0x1003da8] = 0x20028
        0x01003c12:    6008        .`      STR      r0,[r1,#0]
        0x01003c14:    bf00        ..      NOP      
        0x01003c16:    2126        &!      MOVS     r1,#0x26
        0x01003c18:    4864        dH      LDR      r0,[pc,#400] ; [0x1003dac] = 0x2002c
        0x01003c1a:    f7fff8a7    ....    BL       BT_BIT_GET ; 0x1002d6c
        0x01003c1e:    2800        .(      CMP      r0,#0
        0x01003c20:    d001        ..      BEQ      0x1003c26 ; BT_BnepSendUdpData + 74
        0x01003c22:    2001        .       MOVS     r0,#1
        0x01003c24:    e7e2        ..      B        0x1003bec ; BT_BnepSendUdpData + 16
        0x01003c26:    21ff        .!      MOVS     r1,#0xff
        0x01003c28:    31f5        .1      ADDS     r1,r1,#0xf5
        0x01003c2a:    485f        _H      LDR      r0,[pc,#380] ; [0x1003da8] = 0x20028
        0x01003c2c:    6800        .h      LDR      r0,[r0,#0]
        0x01003c2e:    f7fdff26    ..&.    BL       SysTick_IsTimeOut ; 0x1001a7e
        0x01003c32:    2800        .(      CMP      r0,#0
        0x01003c34:    d0ef        ..      BEQ      0x1003c16 ; BT_BnepSendUdpData + 58
        0x01003c36:    2000        .       MOVS     r0,#0
        0x01003c38:    e7d8        ..      B        0x1003bec ; BT_BnepSendUdpData + 16
    BT_DisconnectTcp
        0x01003c3a:    b501        ..      PUSH     {r0,lr}
        0x01003c3c:    b082        ..      SUB      sp,sp,#8
        0x01003c3e:    2180        .!      MOVS     r1,#0x80
        0x01003c40:    4668        hF      MOV      r0,sp
        0x01003c42:    7041        Ap      STRB     r1,[r0,#1]
        0x01003c44:    2101        .!      MOVS     r1,#1
        0x01003c46:    7081        .p      STRB     r1,[r0,#2]
        0x01003c48:    1cc1        ..      ADDS     r1,r0,#3
        0x01003c4a:    a802        ..      ADD      r0,sp,#8
        0x01003c4c:    f002fd0e    ....    BL       __aeabi_uwrite4 ; 0x100666c
        0x01003c50:    2125        %!      MOVS     r1,#0x25
        0x01003c52:    4856        VH      LDR      r0,[pc,#344] ; [0x1003dac] = 0x2002c
        0x01003c54:    f7fff879    ..y.    BL       BT_BIT_CLEAR ; 0x1002d4a
        0x01003c58:    4668        hF      MOV      r0,sp
        0x01003c5a:    f7fff95b    ..[.    BL       SendCMD ; 0x1002f14
        0x01003c5e:    f7fdff0b    ....    BL       SysTick_GetTick ; 0x1001a78
        0x01003c62:    4951        QI      LDR      r1,[pc,#324] ; [0x1003da8] = 0x20028
        0x01003c64:    6008        .`      STR      r0,[r1,#0]
        0x01003c66:    bf00        ..      NOP      
        0x01003c68:    2125        %!      MOVS     r1,#0x25
        0x01003c6a:    4850        PH      LDR      r0,[pc,#320] ; [0x1003dac] = 0x2002c
        0x01003c6c:    f7fff87e    ..~.    BL       BT_BIT_GET ; 0x1002d6c
        0x01003c70:    2800        .(      CMP      r0,#0
        0x01003c72:    d001        ..      BEQ      0x1003c78 ; BT_DisconnectTcp + 62
        0x01003c74:    2001        .       MOVS     r0,#1
        0x01003c76:    bd0e        ..      POP      {r1-r3,pc}
        0x01003c78:    21ff        .!      MOVS     r1,#0xff
        0x01003c7a:    31f5        .1      ADDS     r1,r1,#0xf5
        0x01003c7c:    484a        JH      LDR      r0,[pc,#296] ; [0x1003da8] = 0x20028
        0x01003c7e:    6800        .h      LDR      r0,[r0,#0]
        0x01003c80:    f7fdfefd    ....    BL       SysTick_IsTimeOut ; 0x1001a7e
        0x01003c84:    2800        .(      CMP      r0,#0
        0x01003c86:    d0ef        ..      BEQ      0x1003c68 ; BT_DisconnectTcp + 46
        0x01003c88:    2000        .       MOVS     r0,#0
        0x01003c8a:    e7f4        ..      B        0x1003c76 ; BT_DisconnectTcp + 60
    BT_ParseBTData
        0x01003c8c:    b510        ..      PUSH     {r4,lr}
        0x01003c8e:    4849        IH      LDR      r0,[pc,#292] ; [0x1003db4] = 0x2116c
        0x01003c90:    6840        @h      LDR      r0,[r0,#4]
        0x01003c92:    4948        HI      LDR      r1,[pc,#288] ; [0x1003db4] = 0x2116c
        0x01003c94:    6889        .h      LDR      r1,[r1,#8]
        0x01003c96:    1a40        @.      SUBS     r0,r0,r1
        0x01003c98:    21ff        .!      MOVS     r1,#0xff
        0x01003c9a:    3103        .1      ADDS     r1,#3
        0x01003c9c:    4288        .B      CMP      r0,r1
        0x01003c9e:    da00        ..      BGE      0x1003ca2 ; BT_ParseBTData + 22
        0x01003ca0:    bd10        ..      POP      {r4,pc}
        0x01003ca2:    4845        EH      LDR      r0,[pc,#276] ; [0x1003db8] = 0x20040
        0x01003ca4:    f7fefdb5    ....    BL       IPC_ReadBtData ; 0x1002812
        0x01003ca8:    2801        .(      CMP      r0,#1
        0x01003caa:    d17b        {.      BNE      0x1003da4 ; BT_ParseBTData + 280
        0x01003cac:    4842        BH      LDR      r0,[pc,#264] ; [0x1003db8] = 0x20040
        0x01003cae:    7800        .x      LDRB     r0,[r0,#0]
        0x01003cb0:    2802        .(      CMP      r0,#2
        0x01003cb2:    d1fa        ..      BNE      0x1003caa ; BT_ParseBTData + 30
        0x01003cb4:    f7fdfee0    ....    BL       SysTick_GetTick ; 0x1001a78
        0x01003cb8:    493b        ;I      LDR      r1,[pc,#236] ; [0x1003da8] = 0x20028
        0x01003cba:    6008        .`      STR      r0,[r1,#0]
        0x01003cbc:    483e        >H      LDR      r0,[pc,#248] ; [0x1003db8] = 0x20040
        0x01003cbe:    7840        @x      LDRB     r0,[r0,#1]
        0x01003cc0:    0003        ..      MOVS     r3,r0
        0x01003cc2:    f002ffbc    ....    BL       __ARM_common_switch8 ; 0x1006c3e
    $d
        0x01003cc6:    7d3c        <}      DCW    32060
        0x01003cc8:    fa807efa    .~..    DCD    4202725114
        0x01003ccc:    331fa581    ...3    DCD    857712001
        0x01003cd0:    fafaf8f9    ....    DCD    4210751737
        0x01003cd4:    83fa7f82    ....    DCD    2214231938
        0x01003cd8:    85fafa84    ....    DCD    2247817860
        0x01003cdc:    fafafafa    ....    DCD    4210752250
        0x01003ce0:    fafafafa    ....    DCD    4210752250
        0x01003ce4:    fafafafa    ....    DCD    4210752250
        0x01003ce8:    fafafafa    ....    DCD    4210752250
        0x01003cec:    fafafafa    ....    DCD    4210752250
        0x01003cf0:    86fafaf7    ....    DCD    2264595191
        0x01003cf4:    8a898887    ....    DCD    2324269191
        0x01003cf8:    8d8c8b47    G...    DCD    2374798151
        0x01003cfc:    91908f8e    ....    DCD    2442170254
        0x01003d00:    faf5f65b    [...    DCD    4210423387
    $t
        0x01003d04:    2103        .!      MOVS     r1,#3
        0x01003d06:    482c        ,H      LDR      r0,[pc,#176] ; [0x1003db8] = 0x20040
        0x01003d08:    f7fff85e    ..^.    BL       SaveData ; 0x1002dc8
        0x01003d0c:    482a        *H      LDR      r0,[pc,#168] ; [0x1003db8] = 0x20040
        0x01003d0e:    1cc0        ..      ADDS     r0,r0,#3
        0x01003d10:    f002fca2    ....    BL       __aeabi_uread4 ; 0x1006658
        0x01003d14:    4604        .F      MOV      r4,r0
        0x01003d16:    4828        (H      LDR      r0,[pc,#160] ; [0x1003db8] = 0x20040
        0x01003d18:    7881        .x      LDRB     r1,[r0,#2]
        0x01003d1a:    4620         F      MOV      r0,r4
        0x01003d1c:    f7fff854    ..T.    BL       SaveData ; 0x1002dc8
        0x01003d20:    4826        &H      LDR      r0,[pc,#152] ; [0x1003dbc] = 0x2003c
        0x01003d22:    6800        .h      LDR      r0,[r0,#0]
        0x01003d24:    1c40        @.      ADDS     r0,r0,#1
        0x01003d26:    4925        %I      LDR      r1,[pc,#148] ; [0x1003dbc] = 0x2003c
        0x01003d28:    6008        .`      STR      r0,[r1,#0]
        0x01003d2a:    e2a7        ..      B        0x100427c ; BT_ParseBTData + 1520
        0x01003d2c:    2103        .!      MOVS     r1,#3
        0x01003d2e:    4822        "H      LDR      r0,[pc,#136] ; [0x1003db8] = 0x20040
        0x01003d30:    f7fff84a    ..J.    BL       SaveData ; 0x1002dc8
        0x01003d34:    4820         H      LDR      r0,[pc,#128] ; [0x1003db8] = 0x20040
        0x01003d36:    1cc0        ..      ADDS     r0,r0,#3
        0x01003d38:    f002fc8e    ....    BL       __aeabi_uread4 ; 0x1006658
        0x01003d3c:    4604        .F      MOV      r4,r0
        0x01003d3e:    481e        .H      LDR      r0,[pc,#120] ; [0x1003db8] = 0x20040
        0x01003d40:    7881        .x      LDRB     r1,[r0,#2]
        0x01003d42:    4620         F      MOV      r0,r4
        0x01003d44:    f7fff840    ..@.    BL       SaveData ; 0x1002dc8
        0x01003d48:    481c        .H      LDR      r0,[pc,#112] ; [0x1003dbc] = 0x2003c
        0x01003d4a:    6800        .h      LDR      r0,[r0,#0]
        0x01003d4c:    1c40        @.      ADDS     r0,r0,#1
        0x01003d4e:    491b        .I      LDR      r1,[pc,#108] ; [0x1003dbc] = 0x2003c
        0x01003d50:    6008        .`      STR      r0,[r1,#0]
        0x01003d52:    e293        ..      B        0x100427c ; BT_ParseBTData + 1520
        0x01003d54:    2103        .!      MOVS     r1,#3
        0x01003d56:    4818        .H      LDR      r0,[pc,#96] ; [0x1003db8] = 0x20040
        0x01003d58:    f7fff836    ..6.    BL       SaveData ; 0x1002dc8
        0x01003d5c:    4816        .H      LDR      r0,[pc,#88] ; [0x1003db8] = 0x20040
        0x01003d5e:    1cc0        ..      ADDS     r0,r0,#3
        0x01003d60:    f002fc7a    ..z.    BL       __aeabi_uread4 ; 0x1006658
        0x01003d64:    4604        .F      MOV      r4,r0
        0x01003d66:    4814        .H      LDR      r0,[pc,#80] ; [0x1003db8] = 0x20040
        0x01003d68:    7881        .x      LDRB     r1,[r0,#2]
        0x01003d6a:    4620         F      MOV      r0,r4
        0x01003d6c:    f7fff82c    ..,.    BL       SaveData ; 0x1002dc8
        0x01003d70:    4812        .H      LDR      r0,[pc,#72] ; [0x1003dbc] = 0x2003c
        0x01003d72:    6800        .h      LDR      r0,[r0,#0]
        0x01003d74:    1c40        @.      ADDS     r0,r0,#1
        0x01003d76:    4911        .I      LDR      r1,[pc,#68] ; [0x1003dbc] = 0x2003c
        0x01003d78:    6008        .`      STR      r0,[r1,#0]
        0x01003d7a:    e27f        ..      B        0x100427c ; BT_ParseBTData + 1520
        0x01003d7c:    2103        .!      MOVS     r1,#3
        0x01003d7e:    480e        .H      LDR      r0,[pc,#56] ; [0x1003db8] = 0x20040
        0x01003d80:    f7fff822    ..".    BL       SaveData ; 0x1002dc8
        0x01003d84:    480c        .H      LDR      r0,[pc,#48] ; [0x1003db8] = 0x20040
        0x01003d86:    1cc0        ..      ADDS     r0,r0,#3
        0x01003d88:    f002fc66    ..f.    BL       __aeabi_uread4 ; 0x1006658
        0x01003d8c:    4604        .F      MOV      r4,r0
        0x01003d8e:    480a        .H      LDR      r0,[pc,#40] ; [0x1003db8] = 0x20040
        0x01003d90:    7881        .x      LDRB     r1,[r0,#2]
        0x01003d92:    4620         F      MOV      r0,r4
        0x01003d94:    f7fff818    ....    BL       SaveData ; 0x1002dc8
        0x01003d98:    4808        .H      LDR      r0,[pc,#32] ; [0x1003dbc] = 0x2003c
        0x01003d9a:    6800        .h      LDR      r0,[r0,#0]
        0x01003d9c:    1c40        @.      ADDS     r0,r0,#1
        0x01003d9e:    4907        .I      LDR      r1,[pc,#28] ; [0x1003dbc] = 0x2003c
        0x01003da0:    6008        .`      STR      r0,[r1,#0]
        0x01003da2:    e26b        k.      B        0x100427c ; BT_ParseBTData + 1520
        0x01003da4:    e274        t.      B        0x1004290 ; BT_ParseBTData + 1540
    $d
        0x01003da6:    0000        ..      DCW    0
        0x01003da8:    00020028    (...    DCD    131112
        0x01003dac:    0002002c    ,...    DCD    131116
        0x01003db0:    000005ac    ....    DCD    1452
        0x01003db4:    0002116c    l...    DCD    135532
        0x01003db8:    00020040    @...    DCD    131136
        0x01003dbc:    0002003c    <...    DCD    131132
    $t
        0x01003dc0:    bf00        ..      NOP      
        0x01003dc2:    bf00        ..      NOP      
        0x01003dc4:    bf00        ..      NOP      
        0x01003dc6:    bf00        ..      NOP      
        0x01003dc8:    bf00        ..      NOP      
        0x01003dca:    bf00        ..      NOP      
        0x01003dcc:    bf00        ..      NOP      
        0x01003dce:    bf00        ..      NOP      
        0x01003dd0:    bf00        ..      NOP      
        0x01003dd2:    bf00        ..      NOP      
        0x01003dd4:    bf00        ..      NOP      
        0x01003dd6:    bf00        ..      NOP      
        0x01003dd8:    bf00        ..      NOP      
        0x01003dda:    bf00        ..      NOP      
        0x01003ddc:    bf00        ..      NOP      
        0x01003dde:    bf00        ..      NOP      
        0x01003de0:    bf00        ..      NOP      
        0x01003de2:    bf00        ..      NOP      
        0x01003de4:    bf00        ..      NOP      
        0x01003de6:    bf00        ..      NOP      
        0x01003de8:    2103        .!      MOVS     r1,#3
        0x01003dea:    48fa        .H      LDR      r0,[pc,#1000] ; [0x10041d4] = 0x20040
        0x01003dec:    f7feffec    ....    BL       SaveData ; 0x1002dc8
        0x01003df0:    48f8        .H      LDR      r0,[pc,#992] ; [0x10041d4] = 0x20040
        0x01003df2:    1cc0        ..      ADDS     r0,r0,#3
        0x01003df4:    f002fc30    ..0.    BL       __aeabi_uread4 ; 0x1006658
        0x01003df8:    4604        .F      MOV      r4,r0
        0x01003dfa:    48f6        .H      LDR      r0,[pc,#984] ; [0x10041d4] = 0x20040
        0x01003dfc:    7881        .x      LDRB     r1,[r0,#2]
        0x01003dfe:    4620         F      MOV      r0,r4
        0x01003e00:    f7feffe2    ....    BL       SaveData ; 0x1002dc8
        0x01003e04:    48f4        .H      LDR      r0,[pc,#976] ; [0x10041d8] = 0x2003c
        0x01003e06:    6800        .h      LDR      r0,[r0,#0]
        0x01003e08:    1c40        @.      ADDS     r0,r0,#1
        0x01003e0a:    49f3        .I      LDR      r1,[pc,#972] ; [0x10041d8] = 0x2003c
        0x01003e0c:    6008        .`      STR      r0,[r1,#0]
        0x01003e0e:    e235        5.      B        0x100427c ; BT_ParseBTData + 1520
        0x01003e10:    48f0        .H      LDR      r0,[pc,#960] ; [0x10041d4] = 0x20040
        0x01003e12:    1cc0        ..      ADDS     r0,r0,#3
        0x01003e14:    f002fc20    .. .    BL       __aeabi_uread4 ; 0x1006658
        0x01003e18:    7800        .x      LDRB     r0,[r0,#0]
        0x01003e1a:    2833        3(      CMP      r0,#0x33
        0x01003e1c:    d072        r.      BEQ      0x1003f04 ; BT_ParseBTData + 632
        0x01003e1e:    dc1e        ..      BGT      0x1003e5e ; BT_ParseBTData + 466
        0x01003e20:    280d        .(      CMP      r0,#0xd
        0x01003e22:    d070        p.      BEQ      0x1003f06 ; BT_ParseBTData + 634
        0x01003e24:    dc0a        ..      BGT      0x1003e3c ; BT_ParseBTData + 432
        0x01003e26:    0003        ..      MOVS     r3,r0
        0x01003e28:    f002ff09    ....    BL       __ARM_common_switch8 ; 0x1006c3e
    $d
        0x01003e2c:    5448360d    .6HT    DCD    1414018573
        0x01003e30:    7d806e60    `n.}    DCD    2105568864
        0x01003e34:    7d917d7d    }}.}    DCD    2106686845
        0x01003e38:    007d9e7d    }.}.    DCD    8232573
    $t
        0x01003e3c:    2815        .(      CMP      r0,#0x15
        0x01003e3e:    d06f        o.      BEQ      0x1003f20 ; BT_ParseBTData + 660
        0x01003e40:    dc06        ..      BGT      0x1003e50 ; BT_ParseBTData + 452
        0x01003e42:    2810        .(      CMP      r0,#0x10
        0x01003e44:    d06d        m.      BEQ      0x1003f22 ; BT_ParseBTData + 662
        0x01003e46:    2811        .(      CMP      r0,#0x11
        0x01003e48:    d06c        l.      BEQ      0x1003f24 ; BT_ParseBTData + 664
        0x01003e4a:    2812        .(      CMP      r0,#0x12
        0x01003e4c:    d16b        k.      BNE      0x1003f26 ; BT_ParseBTData + 666
        0x01003e4e:    e0d5        ..      B        0x1003ffc ; BT_ParseBTData + 880
        0x01003e50:    2826        &(      CMP      r0,#0x26
        0x01003e52:    d069        i.      BEQ      0x1003f28 ; BT_ParseBTData + 668
        0x01003e54:    2828        ((      CMP      r0,#0x28
        0x01003e56:    d068        h.      BEQ      0x1003f2a ; BT_ParseBTData + 670
        0x01003e58:    2830        0(      CMP      r0,#0x30
        0x01003e5a:    d1f7        ..      BNE      0x1003e4c ; BT_ParseBTData + 448
        0x01003e5c:    e0f2        ..      B        0x1004044 ; BT_ParseBTData + 952
        0x01003e5e:    2876        v(      CMP      r0,#0x76
        0x01003e60:    d070        p.      BEQ      0x1003f44 ; BT_ParseBTData + 696
        0x01003e62:    dc10        ..      BGT      0x1003e86 ; BT_ParseBTData + 506
        0x01003e64:    2837        7(      CMP      r0,#0x37
        0x01003e66:    d06e        n.      BEQ      0x1003f46 ; BT_ParseBTData + 698
        0x01003e68:    dc06        ..      BGT      0x1003e78 ; BT_ParseBTData + 492
        0x01003e6a:    2834        4(      CMP      r0,#0x34
        0x01003e6c:    d06c        l.      BEQ      0x1003f48 ; BT_ParseBTData + 700
        0x01003e6e:    2835        5(      CMP      r0,#0x35
        0x01003e70:    d06b        k.      BEQ      0x1003f4a ; BT_ParseBTData + 702
        0x01003e72:    2836        6(      CMP      r0,#0x36
        0x01003e74:    d1ea        ..      BNE      0x1003e4c ; BT_ParseBTData + 448
        0x01003e76:    e110        ..      B        0x100409a ; BT_ParseBTData + 1038
        0x01003e78:    2842        B(      CMP      r0,#0x42
        0x01003e7a:    d067        g.      BEQ      0x1003f4c ; BT_ParseBTData + 704
        0x01003e7c:    2849        I(      CMP      r0,#0x49
        0x01003e7e:    d072        r.      BEQ      0x1003f66 ; BT_ParseBTData + 730
        0x01003e80:    2861        a(      CMP      r0,#0x61
        0x01003e82:    d1e3        ..      BNE      0x1003e4c ; BT_ParseBTData + 448
        0x01003e84:    e151        Q.      B        0x100412a ; BT_ParseBTData + 1182
        0x01003e86:    387e        ~8      SUBS     r0,r0,#0x7e
        0x01003e88:    0003        ..      MOVS     r3,r0
        0x01003e8a:    f002fed8    ....    BL       __ARM_common_switch8 ; 0x1006c3e
    $d
        0x01003e8e:    f908        ..      DCW    63752
        0x01003e90:    f5f6f7f8    ....    DCD    4126603256
        0x01003e94:    4cf3f44c    L..L    DCD    1291056204
    $t
        0x01003e98:    48ce        .H      LDR      r0,[pc,#824] ; [0x10041d4] = 0x20040
        0x01003e9a:    1cc0        ..      ADDS     r0,r0,#3
        0x01003e9c:    f002fbdc    ....    BL       __aeabi_uread4 ; 0x1006658
        0x01003ea0:    7840        @x      LDRB     r0,[r0,#1]
        0x01003ea2:    2800        .(      CMP      r0,#0
        0x01003ea4:    d103        ..      BNE      0x1003eae ; BT_ParseBTData + 546
        0x01003ea6:    2100        .!      MOVS     r1,#0
        0x01003ea8:    48cc        .H      LDR      r0,[pc,#816] ; [0x10041dc] = 0x2002c
        0x01003eaa:    f7feff3d    ..=.    BL       BT_BIT_SET ; 0x1002d28
        0x01003eae:    e1a5        ..      B        0x10041fc ; BT_ParseBTData + 1392
        0x01003eb0:    e1d2        ..      B        0x1004258 ; BT_ParseBTData + 1484
        0x01003eb2:    e1c6        ..      B        0x1004242 ; BT_ParseBTData + 1462
        0x01003eb4:    e1b4        ..      B        0x1004220 ; BT_ParseBTData + 1428
        0x01003eb6:    e1a8        ..      B        0x100420a ; BT_ParseBTData + 1406
        0x01003eb8:    e1a2        ..      B        0x1004200 ; BT_ParseBTData + 1396
        0x01003eba:    e1de        ..      B        0x100427a ; BT_ParseBTData + 1518
        0x01003ebc:    48c5        .H      LDR      r0,[pc,#788] ; [0x10041d4] = 0x20040
        0x01003ebe:    1cc0        ..      ADDS     r0,r0,#3
        0x01003ec0:    f002fbca    ....    BL       __aeabi_uread4 ; 0x1006658
        0x01003ec4:    7840        @x      LDRB     r0,[r0,#1]
        0x01003ec6:    2800        .(      CMP      r0,#0
        0x01003ec8:    d103        ..      BNE      0x1003ed2 ; BT_ParseBTData + 582
        0x01003eca:    2101        .!      MOVS     r1,#1
        0x01003ecc:    48c3        .H      LDR      r0,[pc,#780] ; [0x10041dc] = 0x2002c
        0x01003ece:    f7feff2b    ..+.    BL       BT_BIT_SET ; 0x1002d28
        0x01003ed2:    e193        ..      B        0x10041fc ; BT_ParseBTData + 1392
        0x01003ed4:    48bf        .H      LDR      r0,[pc,#764] ; [0x10041d4] = 0x20040
        0x01003ed6:    1cc0        ..      ADDS     r0,r0,#3
        0x01003ed8:    f002fbbe    ....    BL       __aeabi_uread4 ; 0x1006658
        0x01003edc:    7840        @x      LDRB     r0,[r0,#1]
        0x01003ede:    2800        .(      CMP      r0,#0
        0x01003ee0:    d103        ..      BNE      0x1003eea ; BT_ParseBTData + 606
        0x01003ee2:    2102        .!      MOVS     r1,#2
        0x01003ee4:    48bd        .H      LDR      r0,[pc,#756] ; [0x10041dc] = 0x2002c
        0x01003ee6:    f7feff1f    ....    BL       BT_BIT_SET ; 0x1002d28
        0x01003eea:    e187        ..      B        0x10041fc ; BT_ParseBTData + 1392
        0x01003eec:    48b9        .H      LDR      r0,[pc,#740] ; [0x10041d4] = 0x20040
        0x01003eee:    1cc0        ..      ADDS     r0,r0,#3
        0x01003ef0:    f002fbb2    ....    BL       __aeabi_uread4 ; 0x1006658
        0x01003ef4:    7840        @x      LDRB     r0,[r0,#1]
        0x01003ef6:    2800        .(      CMP      r0,#0
        0x01003ef8:    d103        ..      BNE      0x1003f02 ; BT_ParseBTData + 630
        0x01003efa:    2103        .!      MOVS     r1,#3
        0x01003efc:    48b7        .H      LDR      r0,[pc,#732] ; [0x10041dc] = 0x2002c
        0x01003efe:    f7feff13    ....    BL       BT_BIT_SET ; 0x1002d28
        0x01003f02:    e17b        {.      B        0x10041fc ; BT_ParseBTData + 1392
        0x01003f04:    e062        b.      B        0x1003fcc ; BT_ParseBTData + 832
        0x01003f06:    e03b        ;.      B        0x1003f80 ; BT_ParseBTData + 756
        0x01003f08:    48b2        .H      LDR      r0,[pc,#712] ; [0x10041d4] = 0x20040
        0x01003f0a:    1cc0        ..      ADDS     r0,r0,#3
        0x01003f0c:    f002fba4    ....    BL       __aeabi_uread4 ; 0x1006658
        0x01003f10:    7840        @x      LDRB     r0,[r0,#1]
        0x01003f12:    2800        .(      CMP      r0,#0
        0x01003f14:    d103        ..      BNE      0x1003f1e ; BT_ParseBTData + 658
        0x01003f16:    2104        .!      MOVS     r1,#4
        0x01003f18:    48b0        .H      LDR      r0,[pc,#704] ; [0x10041dc] = 0x2002c
        0x01003f1a:    f7feff05    ....    BL       BT_BIT_SET ; 0x1002d28
        0x01003f1e:    e16d        m.      B        0x10041fc ; BT_ParseBTData + 1392
        0x01003f20:    e0eb        ..      B        0x10040fa ; BT_ParseBTData + 1134
        0x01003f22:    e039        9.      B        0x1003f98 ; BT_ParseBTData + 780
        0x01003f24:    e05e        ^.      B        0x1003fe4 ; BT_ParseBTData + 856
        0x01003f26:    e168        h.      B        0x10041fa ; BT_ParseBTData + 1390
        0x01003f28:    e074        t.      B        0x1004014 ; BT_ParseBTData + 904
        0x01003f2a:    e07f        ..      B        0x100402c ; BT_ParseBTData + 928
        0x01003f2c:    48a9        .H      LDR      r0,[pc,#676] ; [0x10041d4] = 0x20040
        0x01003f2e:    1cc0        ..      ADDS     r0,r0,#3
        0x01003f30:    f002fb92    ....    BL       __aeabi_uread4 ; 0x1006658
        0x01003f34:    7840        @x      LDRB     r0,[r0,#1]
        0x01003f36:    2800        .(      CMP      r0,#0
        0x01003f38:    d103        ..      BNE      0x1003f42 ; BT_ParseBTData + 694
        0x01003f3a:    2105        .!      MOVS     r1,#5
        0x01003f3c:    48a7        .H      LDR      r0,[pc,#668] ; [0x10041dc] = 0x2002c
        0x01003f3e:    f7fefef3    ....    BL       BT_BIT_SET ; 0x1002d28
        0x01003f42:    e15b        [.      B        0x10041fc ; BT_ParseBTData + 1392
        0x01003f44:    e0e5        ..      B        0x1004112 ; BT_ParseBTData + 1158
        0x01003f46:    e0b4        ..      B        0x10040b2 ; BT_ParseBTData + 1062
        0x01003f48:    e088        ..      B        0x100405c ; BT_ParseBTData + 976
        0x01003f4a:    e09a        ..      B        0x1004082 ; BT_ParseBTData + 1014
        0x01003f4c:    e0bd        ..      B        0x10040ca ; BT_ParseBTData + 1086
        0x01003f4e:    48a1        .H      LDR      r0,[pc,#644] ; [0x10041d4] = 0x20040
        0x01003f50:    1cc0        ..      ADDS     r0,r0,#3
        0x01003f52:    f002fb81    ....    BL       __aeabi_uread4 ; 0x1006658
        0x01003f56:    7840        @x      LDRB     r0,[r0,#1]
        0x01003f58:    2800        .(      CMP      r0,#0
        0x01003f5a:    d103        ..      BNE      0x1003f64 ; BT_ParseBTData + 728
        0x01003f5c:    2106        .!      MOVS     r1,#6
        0x01003f5e:    489f        .H      LDR      r0,[pc,#636] ; [0x10041dc] = 0x2002c
        0x01003f60:    f7fefee2    ....    BL       BT_BIT_SET ; 0x1002d28
        0x01003f64:    e14a        J.      B        0x10041fc ; BT_ParseBTData + 1392
        0x01003f66:    e0bc        ..      B        0x10040e2 ; BT_ParseBTData + 1110
        0x01003f68:    489a        .H      LDR      r0,[pc,#616] ; [0x10041d4] = 0x20040
        0x01003f6a:    1cc0        ..      ADDS     r0,r0,#3
        0x01003f6c:    f002fb74    ..t.    BL       __aeabi_uread4 ; 0x1006658
        0x01003f70:    7840        @x      LDRB     r0,[r0,#1]
        0x01003f72:    2800        .(      CMP      r0,#0
        0x01003f74:    d103        ..      BNE      0x1003f7e ; BT_ParseBTData + 754
        0x01003f76:    2108        .!      MOVS     r1,#8
        0x01003f78:    4898        .H      LDR      r0,[pc,#608] ; [0x10041dc] = 0x2002c
        0x01003f7a:    f7fefed5    ....    BL       BT_BIT_SET ; 0x1002d28
        0x01003f7e:    e13d        =.      B        0x10041fc ; BT_ParseBTData + 1392
        0x01003f80:    4894        .H      LDR      r0,[pc,#592] ; [0x10041d4] = 0x20040
        0x01003f82:    1cc0        ..      ADDS     r0,r0,#3
        0x01003f84:    f002fb68    ..h.    BL       __aeabi_uread4 ; 0x1006658
        0x01003f88:    7840        @x      LDRB     r0,[r0,#1]
        0x01003f8a:    2800        .(      CMP      r0,#0
        0x01003f8c:    d103        ..      BNE      0x1003f96 ; BT_ParseBTData + 778
        0x01003f8e:    2109        .!      MOVS     r1,#9
        0x01003f90:    4892        .H      LDR      r0,[pc,#584] ; [0x10041dc] = 0x2002c
        0x01003f92:    f7fefec9    ....    BL       BT_BIT_SET ; 0x1002d28
        0x01003f96:    e131        1.      B        0x10041fc ; BT_ParseBTData + 1392
        0x01003f98:    488e        .H      LDR      r0,[pc,#568] ; [0x10041d4] = 0x20040
        0x01003f9a:    1cc0        ..      ADDS     r0,r0,#3
        0x01003f9c:    f002fb5c    ..\.    BL       __aeabi_uread4 ; 0x1006658
        0x01003fa0:    7840        @x      LDRB     r0,[r0,#1]
        0x01003fa2:    2800        .(      CMP      r0,#0
        0x01003fa4:    d111        ..      BNE      0x1003fca ; BT_ParseBTData + 830
        0x01003fa6:    210a        .!      MOVS     r1,#0xa
        0x01003fa8:    488c        .H      LDR      r0,[pc,#560] ; [0x10041dc] = 0x2002c
        0x01003faa:    f7fefebd    ....    BL       BT_BIT_SET ; 0x1002d28
        0x01003fae:    4889        .H      LDR      r0,[pc,#548] ; [0x10041d4] = 0x20040
        0x01003fb0:    1cc0        ..      ADDS     r0,r0,#3
        0x01003fb2:    f002fb51    ..Q.    BL       __aeabi_uread4 ; 0x1006658
        0x01003fb6:    7880        .x      LDRB     r0,[r0,#2]
        0x01003fb8:    4989        .I      LDR      r1,[pc,#548] ; [0x10041e0] = 0x20034
        0x01003fba:    7008        .p      STRB     r0,[r1,#0]
        0x01003fbc:    4885        .H      LDR      r0,[pc,#532] ; [0x10041d4] = 0x20040
        0x01003fbe:    1cc0        ..      ADDS     r0,r0,#3
        0x01003fc0:    f002fb4a    ..J.    BL       __aeabi_uread4 ; 0x1006658
        0x01003fc4:    78c0        .x      LDRB     r0,[r0,#3]
        0x01003fc6:    4986        .I      LDR      r1,[pc,#536] ; [0x10041e0] = 0x20034
        0x01003fc8:    7048        Hp      STRB     r0,[r1,#1]
        0x01003fca:    e117        ..      B        0x10041fc ; BT_ParseBTData + 1392
        0x01003fcc:    4881        .H      LDR      r0,[pc,#516] ; [0x10041d4] = 0x20040
        0x01003fce:    1cc0        ..      ADDS     r0,r0,#3
        0x01003fd0:    f002fb42    ..B.    BL       __aeabi_uread4 ; 0x1006658
        0x01003fd4:    7840        @x      LDRB     r0,[r0,#1]
        0x01003fd6:    2800        .(      CMP      r0,#0
        0x01003fd8:    d103        ..      BNE      0x1003fe2 ; BT_ParseBTData + 854
        0x01003fda:    2114        .!      MOVS     r1,#0x14
        0x01003fdc:    487f        .H      LDR      r0,[pc,#508] ; [0x10041dc] = 0x2002c
        0x01003fde:    f7fefea3    ....    BL       BT_BIT_SET ; 0x1002d28
        0x01003fe2:    e10b        ..      B        0x10041fc ; BT_ParseBTData + 1392
        0x01003fe4:    487b        {H      LDR      r0,[pc,#492] ; [0x10041d4] = 0x20040
        0x01003fe6:    1cc0        ..      ADDS     r0,r0,#3
        0x01003fe8:    f002fb36    ..6.    BL       __aeabi_uread4 ; 0x1006658
        0x01003fec:    7840        @x      LDRB     r0,[r0,#1]
        0x01003fee:    2800        .(      CMP      r0,#0
        0x01003ff0:    d103        ..      BNE      0x1003ffa ; BT_ParseBTData + 878
        0x01003ff2:    210b        .!      MOVS     r1,#0xb
        0x01003ff4:    4879        yH      LDR      r0,[pc,#484] ; [0x10041dc] = 0x2002c
        0x01003ff6:    f7fefe97    ....    BL       BT_BIT_SET ; 0x1002d28
        0x01003ffa:    e0ff        ..      B        0x10041fc ; BT_ParseBTData + 1392
        0x01003ffc:    4875        uH      LDR      r0,[pc,#468] ; [0x10041d4] = 0x20040
        0x01003ffe:    1cc0        ..      ADDS     r0,r0,#3
        0x01004000:    f002fb2a    ..*.    BL       __aeabi_uread4 ; 0x1006658
        0x01004004:    7840        @x      LDRB     r0,[r0,#1]
        0x01004006:    2800        .(      CMP      r0,#0
        0x01004008:    d103        ..      BNE      0x1004012 ; BT_ParseBTData + 902
        0x0100400a:    210c        .!      MOVS     r1,#0xc
        0x0100400c:    4873        sH      LDR      r0,[pc,#460] ; [0x10041dc] = 0x2002c
        0x0100400e:    f7fefe8b    ....    BL       BT_BIT_SET ; 0x1002d28
        0x01004012:    e0f3        ..      B        0x10041fc ; BT_ParseBTData + 1392
        0x01004014:    486f        oH      LDR      r0,[pc,#444] ; [0x10041d4] = 0x20040
        0x01004016:    1cc0        ..      ADDS     r0,r0,#3
        0x01004018:    f002fb1e    ....    BL       __aeabi_uread4 ; 0x1006658
        0x0100401c:    7840        @x      LDRB     r0,[r0,#1]
        0x0100401e:    2800        .(      CMP      r0,#0
        0x01004020:    d103        ..      BNE      0x100402a ; BT_ParseBTData + 926
        0x01004022:    210d        .!      MOVS     r1,#0xd
        0x01004024:    486d        mH      LDR      r0,[pc,#436] ; [0x10041dc] = 0x2002c
        0x01004026:    f7fefe7f    ....    BL       BT_BIT_SET ; 0x1002d28
        0x0100402a:    e0e7        ..      B        0x10041fc ; BT_ParseBTData + 1392
        0x0100402c:    4869        iH      LDR      r0,[pc,#420] ; [0x10041d4] = 0x20040
        0x0100402e:    1cc0        ..      ADDS     r0,r0,#3
        0x01004030:    f002fb12    ....    BL       __aeabi_uread4 ; 0x1006658
        0x01004034:    7840        @x      LDRB     r0,[r0,#1]
        0x01004036:    2800        .(      CMP      r0,#0
        0x01004038:    d103        ..      BNE      0x1004042 ; BT_ParseBTData + 950
        0x0100403a:    2110        .!      MOVS     r1,#0x10
        0x0100403c:    4867        gH      LDR      r0,[pc,#412] ; [0x10041dc] = 0x2002c
        0x0100403e:    f7fefe73    ..s.    BL       BT_BIT_SET ; 0x1002d28
        0x01004042:    e0db        ..      B        0x10041fc ; BT_ParseBTData + 1392
        0x01004044:    4863        cH      LDR      r0,[pc,#396] ; [0x10041d4] = 0x20040
        0x01004046:    1cc0        ..      ADDS     r0,r0,#3
        0x01004048:    f002fb06    ....    BL       __aeabi_uread4 ; 0x1006658
        0x0100404c:    7840        @x      LDRB     r0,[r0,#1]
        0x0100404e:    2800        .(      CMP      r0,#0
        0x01004050:    d103        ..      BNE      0x100405a ; BT_ParseBTData + 974
        0x01004052:    2113        .!      MOVS     r1,#0x13
        0x01004054:    4861        aH      LDR      r0,[pc,#388] ; [0x10041dc] = 0x2002c
        0x01004056:    f7fefe67    ..g.    BL       BT_BIT_SET ; 0x1002d28
        0x0100405a:    e0cf        ..      B        0x10041fc ; BT_ParseBTData + 1392
        0x0100405c:    485d        ]H      LDR      r0,[pc,#372] ; [0x10041d4] = 0x20040
        0x0100405e:    1cc0        ..      ADDS     r0,r0,#3
        0x01004060:    f002fafa    ....    BL       __aeabi_uread4 ; 0x1006658
        0x01004064:    7840        @x      LDRB     r0,[r0,#1]
        0x01004066:    2800        .(      CMP      r0,#0
        0x01004068:    d103        ..      BNE      0x1004072 ; BT_ParseBTData + 998
        0x0100406a:    2115        .!      MOVS     r1,#0x15
        0x0100406c:    485b        [H      LDR      r0,[pc,#364] ; [0x10041dc] = 0x2002c
        0x0100406e:    f7fefe5b    ..[.    BL       BT_BIT_SET ; 0x1002d28
        0x01004072:    e0c3        ..      B        0x10041fc ; BT_ParseBTData + 1392
        0x01004074:    e0a1        ..      B        0x10041ba ; BT_ParseBTData + 1326
        0x01004076:    e094        ..      B        0x10041a2 ; BT_ParseBTData + 1302
        0x01004078:    e0b4        ..      B        0x10041e4 ; BT_ParseBTData + 1368
        0x0100407a:    e086        ..      B        0x100418a ; BT_ParseBTData + 1278
        0x0100407c:    e079        y.      B        0x1004172 ; BT_ParseBTData + 1254
        0x0100407e:    e06c        l.      B        0x100415a ; BT_ParseBTData + 1230
        0x01004080:    e05f        _.      B        0x1004142 ; BT_ParseBTData + 1206
        0x01004082:    4854        TH      LDR      r0,[pc,#336] ; [0x10041d4] = 0x20040
        0x01004084:    1cc0        ..      ADDS     r0,r0,#3
        0x01004086:    f002fae7    ....    BL       __aeabi_uread4 ; 0x1006658
        0x0100408a:    7840        @x      LDRB     r0,[r0,#1]
        0x0100408c:    2800        .(      CMP      r0,#0
        0x0100408e:    d103        ..      BNE      0x1004098 ; BT_ParseBTData + 1036
        0x01004090:    2116        .!      MOVS     r1,#0x16
        0x01004092:    4852        RH      LDR      r0,[pc,#328] ; [0x10041dc] = 0x2002c
        0x01004094:    f7fefe48    ..H.    BL       BT_BIT_SET ; 0x1002d28
        0x01004098:    e0b0        ..      B        0x10041fc ; BT_ParseBTData + 1392
        0x0100409a:    484e        NH      LDR      r0,[pc,#312] ; [0x10041d4] = 0x20040
        0x0100409c:    1cc0        ..      ADDS     r0,r0,#3
        0x0100409e:    f002fadb    ....    BL       __aeabi_uread4 ; 0x1006658
        0x010040a2:    7840        @x      LDRB     r0,[r0,#1]
        0x010040a4:    2800        .(      CMP      r0,#0
        0x010040a6:    d103        ..      BNE      0x10040b0 ; BT_ParseBTData + 1060
        0x010040a8:    2117        .!      MOVS     r1,#0x17
        0x010040aa:    484c        LH      LDR      r0,[pc,#304] ; [0x10041dc] = 0x2002c
        0x010040ac:    f7fefe3c    ..<.    BL       BT_BIT_SET ; 0x1002d28
        0x010040b0:    e0a4        ..      B        0x10041fc ; BT_ParseBTData + 1392
        0x010040b2:    4848        HH      LDR      r0,[pc,#288] ; [0x10041d4] = 0x20040
        0x010040b4:    1cc0        ..      ADDS     r0,r0,#3
        0x010040b6:    f002facf    ....    BL       __aeabi_uread4 ; 0x1006658
        0x010040ba:    7840        @x      LDRB     r0,[r0,#1]
        0x010040bc:    2800        .(      CMP      r0,#0
        0x010040be:    d103        ..      BNE      0x10040c8 ; BT_ParseBTData + 1084
        0x010040c0:    2118        .!      MOVS     r1,#0x18
        0x010040c2:    4846        FH      LDR      r0,[pc,#280] ; [0x10041dc] = 0x2002c
        0x010040c4:    f7fefe30    ..0.    BL       BT_BIT_SET ; 0x1002d28
        0x010040c8:    e098        ..      B        0x10041fc ; BT_ParseBTData + 1392
        0x010040ca:    4842        BH      LDR      r0,[pc,#264] ; [0x10041d4] = 0x20040
        0x010040cc:    1cc0        ..      ADDS     r0,r0,#3
        0x010040ce:    f002fac3    ....    BL       __aeabi_uread4 ; 0x1006658
        0x010040d2:    7840        @x      LDRB     r0,[r0,#1]
        0x010040d4:    2800        .(      CMP      r0,#0
        0x010040d6:    d103        ..      BNE      0x10040e0 ; BT_ParseBTData + 1108
        0x010040d8:    210e        .!      MOVS     r1,#0xe
        0x010040da:    4840        @H      LDR      r0,[pc,#256] ; [0x10041dc] = 0x2002c
        0x010040dc:    f7fefe24    ..$.    BL       BT_BIT_SET ; 0x1002d28
        0x010040e0:    e08c        ..      B        0x10041fc ; BT_ParseBTData + 1392
        0x010040e2:    483c        <H      LDR      r0,[pc,#240] ; [0x10041d4] = 0x20040
        0x010040e4:    1cc0        ..      ADDS     r0,r0,#3
        0x010040e6:    f002fab7    ....    BL       __aeabi_uread4 ; 0x1006658
        0x010040ea:    7840        @x      LDRB     r0,[r0,#1]
        0x010040ec:    2800        .(      CMP      r0,#0
        0x010040ee:    d103        ..      BNE      0x10040f8 ; BT_ParseBTData + 1132
        0x010040f0:    2119        .!      MOVS     r1,#0x19
        0x010040f2:    483a        :H      LDR      r0,[pc,#232] ; [0x10041dc] = 0x2002c
        0x010040f4:    f7fefe18    ....    BL       BT_BIT_SET ; 0x1002d28
        0x010040f8:    e080        ..      B        0x10041fc ; BT_ParseBTData + 1392
        0x010040fa:    4836        6H      LDR      r0,[pc,#216] ; [0x10041d4] = 0x20040
        0x010040fc:    1cc0        ..      ADDS     r0,r0,#3
        0x010040fe:    f002faab    ....    BL       __aeabi_uread4 ; 0x1006658
        0x01004102:    7840        @x      LDRB     r0,[r0,#1]
        0x01004104:    2800        .(      CMP      r0,#0
        0x01004106:    d103        ..      BNE      0x1004110 ; BT_ParseBTData + 1156
        0x01004108:    211d        .!      MOVS     r1,#0x1d
        0x0100410a:    4834        4H      LDR      r0,[pc,#208] ; [0x10041dc] = 0x2002c
        0x0100410c:    f7fefe0c    ....    BL       BT_BIT_SET ; 0x1002d28
        0x01004110:    e074        t.      B        0x10041fc ; BT_ParseBTData + 1392
        0x01004112:    4830        0H      LDR      r0,[pc,#192] ; [0x10041d4] = 0x20040
        0x01004114:    1cc0        ..      ADDS     r0,r0,#3
        0x01004116:    f002fa9f    ....    BL       __aeabi_uread4 ; 0x1006658
        0x0100411a:    7840        @x      LDRB     r0,[r0,#1]
        0x0100411c:    2800        .(      CMP      r0,#0
        0x0100411e:    d103        ..      BNE      0x1004128 ; BT_ParseBTData + 1180
        0x01004120:    211f        .!      MOVS     r1,#0x1f
        0x01004122:    482e        .H      LDR      r0,[pc,#184] ; [0x10041dc] = 0x2002c
        0x01004124:    f7fefe00    ....    BL       BT_BIT_SET ; 0x1002d28
        0x01004128:    e068        h.      B        0x10041fc ; BT_ParseBTData + 1392
        0x0100412a:    482a        *H      LDR      r0,[pc,#168] ; [0x10041d4] = 0x20040
        0x0100412c:    1cc0        ..      ADDS     r0,r0,#3
        0x0100412e:    f002fa93    ....    BL       __aeabi_uread4 ; 0x1006658
        0x01004132:    7840        @x      LDRB     r0,[r0,#1]
        0x01004134:    2800        .(      CMP      r0,#0
        0x01004136:    d103        ..      BNE      0x1004140 ; BT_ParseBTData + 1204
        0x01004138:    211a        .!      MOVS     r1,#0x1a
        0x0100413a:    4828        (H      LDR      r0,[pc,#160] ; [0x10041dc] = 0x2002c
        0x0100413c:    f7fefdf4    ....    BL       BT_BIT_SET ; 0x1002d28
        0x01004140:    e05c        \.      B        0x10041fc ; BT_ParseBTData + 1392
        0x01004142:    4824        $H      LDR      r0,[pc,#144] ; [0x10041d4] = 0x20040
        0x01004144:    1cc0        ..      ADDS     r0,r0,#3
        0x01004146:    f002fa87    ....    BL       __aeabi_uread4 ; 0x1006658
        0x0100414a:    7840        @x      LDRB     r0,[r0,#1]
        0x0100414c:    2800        .(      CMP      r0,#0
        0x0100414e:    d103        ..      BNE      0x1004158 ; BT_ParseBTData + 1228
        0x01004150:    2122        "!      MOVS     r1,#0x22
        0x01004152:    4822        "H      LDR      r0,[pc,#136] ; [0x10041dc] = 0x2002c
        0x01004154:    f7fefde8    ....    BL       BT_BIT_SET ; 0x1002d28
        0x01004158:    e050        P.      B        0x10041fc ; BT_ParseBTData + 1392
        0x0100415a:    481e        .H      LDR      r0,[pc,#120] ; [0x10041d4] = 0x20040
        0x0100415c:    1cc0        ..      ADDS     r0,r0,#3
        0x0100415e:    f002fa7b    ..{.    BL       __aeabi_uread4 ; 0x1006658
        0x01004162:    7840        @x      LDRB     r0,[r0,#1]
        0x01004164:    2800        .(      CMP      r0,#0
        0x01004166:    d103        ..      BNE      0x1004170 ; BT_ParseBTData + 1252
        0x01004168:    2123        #!      MOVS     r1,#0x23
        0x0100416a:    481c        .H      LDR      r0,[pc,#112] ; [0x10041dc] = 0x2002c
        0x0100416c:    f7fefddc    ....    BL       BT_BIT_SET ; 0x1002d28
        0x01004170:    e044        D.      B        0x10041fc ; BT_ParseBTData + 1392
        0x01004172:    4818        .H      LDR      r0,[pc,#96] ; [0x10041d4] = 0x20040
        0x01004174:    1cc0        ..      ADDS     r0,r0,#3
        0x01004176:    f002fa6f    ..o.    BL       __aeabi_uread4 ; 0x1006658
        0x0100417a:    7840        @x      LDRB     r0,[r0,#1]
        0x0100417c:    2800        .(      CMP      r0,#0
        0x0100417e:    d103        ..      BNE      0x1004188 ; BT_ParseBTData + 1276
        0x01004180:    2125        %!      MOVS     r1,#0x25
        0x01004182:    4816        .H      LDR      r0,[pc,#88] ; [0x10041dc] = 0x2002c
        0x01004184:    f7fefdd0    ....    BL       BT_BIT_SET ; 0x1002d28
        0x01004188:    e038        8.      B        0x10041fc ; BT_ParseBTData + 1392
        0x0100418a:    4812        .H      LDR      r0,[pc,#72] ; [0x10041d4] = 0x20040
        0x0100418c:    1cc0        ..      ADDS     r0,r0,#3
        0x0100418e:    f002fa63    ..c.    BL       __aeabi_uread4 ; 0x1006658
        0x01004192:    7840        @x      LDRB     r0,[r0,#1]
        0x01004194:    2800        .(      CMP      r0,#0
        0x01004196:    d103        ..      BNE      0x10041a0 ; BT_ParseBTData + 1300
        0x01004198:    2124        $!      MOVS     r1,#0x24
        0x0100419a:    4810        .H      LDR      r0,[pc,#64] ; [0x10041dc] = 0x2002c
        0x0100419c:    f7fefdc4    ....    BL       BT_BIT_SET ; 0x1002d28
        0x010041a0:    e02c        ,.      B        0x10041fc ; BT_ParseBTData + 1392
        0x010041a2:    480c        .H      LDR      r0,[pc,#48] ; [0x10041d4] = 0x20040
        0x010041a4:    1cc0        ..      ADDS     r0,r0,#3
        0x010041a6:    f002fa57    ..W.    BL       __aeabi_uread4 ; 0x1006658
        0x010041aa:    7840        @x      LDRB     r0,[r0,#1]
        0x010041ac:    2800        .(      CMP      r0,#0
        0x010041ae:    d103        ..      BNE      0x10041b8 ; BT_ParseBTData + 1324
        0x010041b0:    2126        &!      MOVS     r1,#0x26
        0x010041b2:    480a        .H      LDR      r0,[pc,#40] ; [0x10041dc] = 0x2002c
        0x010041b4:    f7fefdb8    ....    BL       BT_BIT_SET ; 0x1002d28
        0x010041b8:    e020         .      B        0x10041fc ; BT_ParseBTData + 1392
        0x010041ba:    4806        .H      LDR      r0,[pc,#24] ; [0x10041d4] = 0x20040
        0x010041bc:    1cc0        ..      ADDS     r0,r0,#3
        0x010041be:    f002fa4b    ..K.    BL       __aeabi_uread4 ; 0x1006658
        0x010041c2:    7840        @x      LDRB     r0,[r0,#1]
        0x010041c4:    2800        .(      CMP      r0,#0
        0x010041c6:    d103        ..      BNE      0x10041d0 ; BT_ParseBTData + 1348
        0x010041c8:    2127        '!      MOVS     r1,#0x27
        0x010041ca:    4804        .H      LDR      r0,[pc,#16] ; [0x10041dc] = 0x2002c
        0x010041cc:    f7fefdac    ....    BL       BT_BIT_SET ; 0x1002d28
        0x010041d0:    e014        ..      B        0x10041fc ; BT_ParseBTData + 1392
    $d
        0x010041d2:    0000        ..      DCW    0
        0x010041d4:    00020040    @...    DCD    131136
        0x010041d8:    0002003c    <...    DCD    131132
        0x010041dc:    0002002c    ,...    DCD    131116
        0x010041e0:    00020034    4...    DCD    131124
    $t
        0x010041e4:    4856        VH      LDR      r0,[pc,#344] ; [0x1004340] = 0x20043
        0x010041e6:    f002fa37    ..7.    BL       __aeabi_uread4 ; 0x1006658
        0x010041ea:    7840        @x      LDRB     r0,[r0,#1]
        0x010041ec:    2800        .(      CMP      r0,#0
        0x010041ee:    d103        ..      BNE      0x10041f8 ; BT_ParseBTData + 1388
        0x010041f0:    2121        !!      MOVS     r1,#0x21
        0x010041f2:    4854        TH      LDR      r0,[pc,#336] ; [0x1004344] = 0x2002c
        0x010041f4:    f7fefd98    ....    BL       BT_BIT_SET ; 0x1002d28
        0x010041f8:    e000        ..      B        0x10041fc ; BT_ParseBTData + 1392
        0x010041fa:    bf00        ..      NOP      
        0x010041fc:    bf00        ..      NOP      
        0x010041fe:    e03d        =.      B        0x100427c ; BT_ParseBTData + 1520
        0x01004200:    211c        .!      MOVS     r1,#0x1c
        0x01004202:    4850        PH      LDR      r0,[pc,#320] ; [0x1004344] = 0x2002c
        0x01004204:    f7fefd90    ....    BL       BT_BIT_SET ; 0x1002d28
        0x01004208:    e038        8.      B        0x100427c ; BT_ParseBTData + 1520
        0x0100420a:    2107        .!      MOVS     r1,#7
        0x0100420c:    484d        MH      LDR      r0,[pc,#308] ; [0x1004344] = 0x2002c
        0x0100420e:    f7fefd8b    ....    BL       BT_BIT_SET ; 0x1002d28
        0x01004212:    484b        KH      LDR      r0,[pc,#300] ; [0x1004340] = 0x20043
        0x01004214:    f002fa20    .. .    BL       __aeabi_uread4 ; 0x1006658
        0x01004218:    7800        .x      LDRB     r0,[r0,#0]
        0x0100421a:    494b        KI      LDR      r1,[pc,#300] ; [0x1004348] = 0x20034
        0x0100421c:    7008        .p      STRB     r0,[r1,#0]
        0x0100421e:    e02d        -.      B        0x100427c ; BT_ParseBTData + 1520
        0x01004220:    2120         !      MOVS     r1,#0x20
        0x01004222:    4848        HH      LDR      r0,[pc,#288] ; [0x1004344] = 0x2002c
        0x01004224:    f7fefd80    ....    BL       BT_BIT_SET ; 0x1002d28
        0x01004228:    4845        EH      LDR      r0,[pc,#276] ; [0x1004340] = 0x20043
        0x0100422a:    f002fa15    ....    BL       __aeabi_uread4 ; 0x1006658
        0x0100422e:    7800        .x      LDRB     r0,[r0,#0]
        0x01004230:    4945        EI      LDR      r1,[pc,#276] ; [0x1004348] = 0x20034
        0x01004232:    7008        .p      STRB     r0,[r1,#0]
        0x01004234:    4842        BH      LDR      r0,[pc,#264] ; [0x1004340] = 0x20043
        0x01004236:    f002fa0f    ....    BL       __aeabi_uread4 ; 0x1006658
        0x0100423a:    7840        @x      LDRB     r0,[r0,#1]
        0x0100423c:    4942        BI      LDR      r1,[pc,#264] ; [0x1004348] = 0x20034
        0x0100423e:    7048        Hp      STRB     r0,[r1,#1]
        0x01004240:    e01c        ..      B        0x100427c ; BT_ParseBTData + 1520
        0x01004242:    483f        ?H      LDR      r0,[pc,#252] ; [0x1004340] = 0x20043
        0x01004244:    f002fa08    ....    BL       __aeabi_uread4 ; 0x1006658
        0x01004248:    7800        .x      LDRB     r0,[r0,#0]
        0x0100424a:    2800        .(      CMP      r0,#0
        0x0100424c:    d103        ..      BNE      0x1004256 ; BT_ParseBTData + 1482
        0x0100424e:    2128        (!      MOVS     r1,#0x28
        0x01004250:    483c        <H      LDR      r0,[pc,#240] ; [0x1004344] = 0x2002c
        0x01004252:    f7fefd69    ..i.    BL       BT_BIT_SET ; 0x1002d28
        0x01004256:    e011        ..      B        0x100427c ; BT_ParseBTData + 1520
        0x01004258:    4839        9H      LDR      r0,[pc,#228] ; [0x1004340] = 0x20043
        0x0100425a:    f002f9fd    ....    BL       __aeabi_uread4 ; 0x1006658
        0x0100425e:    7800        .x      LDRB     r0,[r0,#0]
        0x01004260:    2803        .(      CMP      r0,#3
        0x01004262:    d005        ..      BEQ      0x1004270 ; BT_ParseBTData + 1508
        0x01004264:    4836        6H      LDR      r0,[pc,#216] ; [0x1004340] = 0x20043
        0x01004266:    f002f9f7    ....    BL       __aeabi_uread4 ; 0x1006658
        0x0100426a:    7800        .x      LDRB     r0,[r0,#0]
        0x0100426c:    2804        .(      CMP      r0,#4
        0x0100426e:    d103        ..      BNE      0x1004278 ; BT_ParseBTData + 1516
        0x01004270:    2129        )!      MOVS     r1,#0x29
        0x01004272:    4834        4H      LDR      r0,[pc,#208] ; [0x1004344] = 0x2002c
        0x01004274:    f7fefd58    ..X.    BL       BT_BIT_SET ; 0x1002d28
        0x01004278:    e000        ..      B        0x100427c ; BT_ParseBTData + 1520
        0x0100427a:    bf00        ..      NOP      
        0x0100427c:    bf00        ..      NOP      
        0x0100427e:    2000        .       MOVS     r0,#0
        0x01004280:    4932        2I      LDR      r1,[pc,#200] ; [0x100434c] = 0xc4fe0
        0x01004282:    73c8        .s      STRB     r0,[r1,#0xf]
        0x01004284:    4832        2H      LDR      r0,[pc,#200] ; [0x1004350] = 0xf8520
        0x01004286:    7f00        ..      LDRB     r0,[r0,#0x1c]
        0x01004288:    2104        .!      MOVS     r1,#4
        0x0100428a:    4388        .C      BICS     r0,r0,r1
        0x0100428c:    4930        0I      LDR      r1,[pc,#192] ; [0x1004350] = 0xf8520
        0x0100428e:    7708        .w      STRB     r0,[r1,#0x1c]
        0x01004290:    bf00        ..      NOP      
        0x01004292:    e505        ..      B        0x1003ca0 ; BT_ParseBTData + 20
    BT_GetEventOpcode
        0x01004294:    b570        p.      PUSH     {r4-r6,lr}
        0x01004296:    482f        /H      LDR      r0,[pc,#188] ; [0x1004354] = 0x2003c
        0x01004298:    6800        .h      LDR      r0,[r0,#0]
        0x0100429a:    2800        .(      CMP      r0,#0
        0x0100429c:    dc02        ..      BGT      0x10042a4 ; BT_GetEventOpcode + 16
        0x0100429e:    2000        .       MOVS     r0,#0
        0x010042a0:    43c0        .C      MVNS     r0,r0
        0x010042a2:    bd70        p.      POP      {r4-r6,pc}
        0x010042a4:    482c        ,H      LDR      r0,[pc,#176] ; [0x1004358] = 0x2116c
        0x010042a6:    68c0        .h      LDR      r0,[r0,#0xc]
        0x010042a8:    1c45        E.      ADDS     r5,r0,#1
        0x010042aa:    482b        +H      LDR      r0,[pc,#172] ; [0x1004358] = 0x2116c
        0x010042ac:    6840        @h      LDR      r0,[r0,#4]
        0x010042ae:    42a8        .B      CMP      r0,r5
        0x010042b0:    d100        ..      BNE      0x10042b4 ; BT_GetEventOpcode + 32
        0x010042b2:    2500        .%      MOVS     r5,#0
        0x010042b4:    4828        (H      LDR      r0,[pc,#160] ; [0x1004358] = 0x2116c
        0x010042b6:    6800        .h      LDR      r0,[r0,#0]
        0x010042b8:    5d44        D]      LDRB     r4,[r0,r5]
        0x010042ba:    2c00        .,      CMP      r4,#0
        0x010042bc:    d00f        ..      BEQ      0x10042de ; BT_GetEventOpcode + 74
        0x010042be:    2c02        .,      CMP      r4,#2
        0x010042c0:    d00d        ..      BEQ      0x10042de ; BT_GetEventOpcode + 74
        0x010042c2:    2c03        .,      CMP      r4,#3
        0x010042c4:    d00b        ..      BEQ      0x10042de ; BT_GetEventOpcode + 74
        0x010042c6:    2c05        .,      CMP      r4,#5
        0x010042c8:    d009        ..      BEQ      0x10042de ; BT_GetEventOpcode + 74
        0x010042ca:    2c2c        ,,      CMP      r4,#0x2c
        0x010042cc:    d007        ..      BEQ      0x10042de ; BT_GetEventOpcode + 74
        0x010042ce:    2c2d        -,      CMP      r4,#0x2d
        0x010042d0:    d005        ..      BEQ      0x10042de ; BT_GetEventOpcode + 74
        0x010042d2:    2c34        4,      CMP      r4,#0x34
        0x010042d4:    d003        ..      BEQ      0x10042de ; BT_GetEventOpcode + 74
        0x010042d6:    2c36        6,      CMP      r4,#0x36
        0x010042d8:    d001        ..      BEQ      0x10042de ; BT_GetEventOpcode + 74
        0x010042da:    2c10        .,      CMP      r4,#0x10
        0x010042dc:    d102        ..      BNE      0x10042e4 ; BT_GetEventOpcode + 80
        0x010042de:    2003        .       MOVS     r0,#3
        0x010042e0:    f7fefd5b    ..[.    BL       SkipData ; 0x1002d9a
        0x010042e4:    481b        .H      LDR      r0,[pc,#108] ; [0x1004354] = 0x2003c
        0x010042e6:    6800        .h      LDR      r0,[r0,#0]
        0x010042e8:    1e40        @.      SUBS     r0,r0,#1
        0x010042ea:    491a        .I      LDR      r1,[pc,#104] ; [0x1004354] = 0x2003c
        0x010042ec:    6008        .`      STR      r0,[r1,#0]
        0x010042ee:    4620         F      MOV      r0,r4
        0x010042f0:    e7d7        ..      B        0x10042a2 ; BT_GetEventOpcode + 14
    BT_ReadBTData
        0x010042f2:    b5f8        ..      PUSH     {r3-r7,lr}
        0x010042f4:    4606        .F      MOV      r6,r0
        0x010042f6:    2400        .$      MOVS     r4,#0
        0x010042f8:    2500        .%      MOVS     r5,#0
        0x010042fa:    4817        .H      LDR      r0,[pc,#92] ; [0x1004358] = 0x2116c
        0x010042fc:    6880        .h      LDR      r0,[r0,#8]
        0x010042fe:    2803        .(      CMP      r0,#3
        0x01004300:    da01        ..      BGE      0x1004306 ; BT_ReadBTData + 20
        0x01004302:    2000        .       MOVS     r0,#0
        0x01004304:    bdf8        ..      POP      {r3-r7,pc}
        0x01004306:    2001        .       MOVS     r0,#1
        0x01004308:    f7fefd47    ..G.    BL       SkipData ; 0x1002d9a
        0x0100430c:    2001        .       MOVS     r0,#1
        0x0100430e:    f7fefde7    ....    BL       GetData ; 0x1002ee0
        0x01004312:    4607        .F      MOV      r7,r0
        0x01004314:    2001        .       MOVS     r0,#1
        0x01004316:    f7fefde3    ....    BL       GetData ; 0x1002ee0
        0x0100431a:    4604        .F      MOV      r4,r0
        0x0100431c:    2f08        ./      CMP      r7,#8
        0x0100431e:    d103        ..      BNE      0x1004328 ; BT_ReadBTData + 54
        0x01004320:    1ea4        ..      SUBS     r4,r4,#2
        0x01004322:    2002        .       MOVS     r0,#2
        0x01004324:    f7fefd39    ..9.    BL       SkipData ; 0x1002d9a
        0x01004328:    2500        .%      MOVS     r5,#0
        0x0100432a:    e004        ..      B        0x1004336 ; BT_ReadBTData + 68
        0x0100432c:    2001        .       MOVS     r0,#1
        0x0100432e:    f7fefdd7    ....    BL       GetData ; 0x1002ee0
        0x01004332:    5570        pU      STRB     r0,[r6,r5]
        0x01004334:    1c6d        m.      ADDS     r5,r5,#1
        0x01004336:    42a5        .B      CMP      r5,r4
        0x01004338:    dbf8        ..      BLT      0x100432c ; BT_ReadBTData + 58
        0x0100433a:    4620         F      MOV      r0,r4
        0x0100433c:    e7e2        ..      B        0x1004304 ; BT_ReadBTData + 18
    $d
        0x0100433e:    0000        ..      DCW    0
        0x01004340:    00020043    C...    DCD    131139
        0x01004344:    0002002c    ,...    DCD    131116
        0x01004348:    00020034    4...    DCD    131124
        0x0100434c:    000c4fe0    .O..    DCD    806880
        0x01004350:    000f8520     ...    DCD    1017120
        0x01004354:    0002003c    <...    DCD    131132
        0x01004358:    0002116c    l...    DCD    135532
    $t
    .text
    lpm_read
        0x0100435c:    b510        ..      PUSH     {r4,lr}
        0x0100435e:    4604        .F      MOV      r4,r0
        0x01004360:    4620         F      MOV      r0,r4
        0x01004362:    49b9        .I      LDR      r1,[pc,#740] ; [0x1004648] = 0x4c81
        0x01004364:    4788        .G      BLX      r1
        0x01004366:    bd10        ..      POP      {r4,pc}
    lpm_write
        0x01004368:    b570        p.      PUSH     {r4-r6,lr}
        0x0100436a:    4604        .F      MOV      r4,r0
        0x0100436c:    460d        .F      MOV      r5,r1
        0x0100436e:    4629        )F      MOV      r1,r5
        0x01004370:    4620         F      MOV      r0,r4
        0x01004372:    4ab5        .J      LDR      r2,[pc,#724] ; [0x1004648] = 0x4c81
        0x01004374:    321c        .2      ADDS     r2,r2,#0x1c
        0x01004376:    4790        .G      BLX      r2
        0x01004378:    bd70        p.      POP      {r4-r6,pc}
    lpm_bt_write
        0x0100437a:    b570        p.      PUSH     {r4-r6,lr}
        0x0100437c:    4605        .F      MOV      r5,r0
        0x0100437e:    460c        .F      MOV      r4,r1
        0x01004380:    200d        .       MOVS     r0,#0xd
        0x01004382:    49b2        .I      LDR      r1,[pc,#712] ; [0x100464c] = 0xf8540
        0x01004384:    6ac9        .j      LDR      r1,[r1,#0x2c]
        0x01004386:    2201        ."      MOVS     r2,#1
        0x01004388:    4082        .@      LSLS     r2,r2,r0
        0x0100438a:    4391        .C      BICS     r1,r1,r2
        0x0100438c:    4aaf        .J      LDR      r2,[pc,#700] ; [0x100464c] = 0xf8540
        0x0100438e:    62d1        .b      STR      r1,[r2,#0x2c]
        0x01004390:    bf00        ..      NOP      
        0x01004392:    49af        .I      LDR      r1,[pc,#700] ; [0x1004650] = 0xc8040
        0x01004394:    730c        .s      STRB     r4,[r1,#0xc]
        0x01004396:    200a        .       MOVS     r0,#0xa
        0x01004398:    f002fc0e    ....    BL       $Ven$TT$L$$delay ; 0x1006bb8
        0x0100439c:    20ff        .       MOVS     r0,#0xff
        0x0100439e:    0200        ..      LSLS     r0,r0,#8
        0x010043a0:    4020         @      ANDS     r0,r0,r4
        0x010043a2:    0a00        ..      LSRS     r0,r0,#8
        0x010043a4:    49aa        .I      LDR      r1,[pc,#680] ; [0x1004650] = 0xc8040
        0x010043a6:    7348        Hs      STRB     r0,[r1,#0xd]
        0x010043a8:    200a        .       MOVS     r0,#0xa
        0x010043aa:    f002fc05    ....    BL       $Ven$TT$L$$delay ; 0x1006bb8
        0x010043ae:    20ff        .       MOVS     r0,#0xff
        0x010043b0:    0400        ..      LSLS     r0,r0,#16
        0x010043b2:    4020         @      ANDS     r0,r0,r4
        0x010043b4:    0c00        ..      LSRS     r0,r0,#16
        0x010043b6:    49a6        .I      LDR      r1,[pc,#664] ; [0x1004650] = 0xc8040
        0x010043b8:    7388        .s      STRB     r0,[r1,#0xe]
        0x010043ba:    200a        .       MOVS     r0,#0xa
        0x010043bc:    f002fbfc    ....    BL       $Ven$TT$L$$delay ; 0x1006bb8
        0x010043c0:    0e20         .      LSRS     r0,r4,#24
        0x010043c2:    49a3        .I      LDR      r1,[pc,#652] ; [0x1004650] = 0xc8040
        0x010043c4:    73c8        .s      STRB     r0,[r1,#0xf]
        0x010043c6:    200a        .       MOVS     r0,#0xa
        0x010043c8:    f002fbf6    ....    BL       $Ven$TT$L$$delay ; 0x1006bb8
        0x010043cc:    2001        .       MOVS     r0,#1
        0x010043ce:    40a8        .@      LSLS     r0,r0,r5
        0x010043d0:    2119        .!      MOVS     r1,#0x19
        0x010043d2:    03c9        ..      LSLS     r1,r1,#15
        0x010043d4:    7148        Hq      STRB     r0,[r1,#5]
        0x010043d6:    bd70        p.      POP      {r4-r6,pc}
    lpm_bt_read
        0x010043d8:    b510        ..      PUSH     {r4,lr}
        0x010043da:    4604        .F      MOV      r4,r0
        0x010043dc:    2c02        .,      CMP      r4,#2
        0x010043de:    d001        ..      BEQ      0x10043e4 ; lpm_bt_read + 12
        0x010043e0:    2c03        .,      CMP      r4,#3
        0x010043e2:    d105        ..      BNE      0x10043f0 ; lpm_bt_read + 24
        0x010043e4:    4620         F      MOV      r0,r4
        0x010043e6:    4998        .I      LDR      r1,[pc,#608] ; [0x1004648] = 0x4c81
        0x010043e8:    31a4        .1      ADDS     r1,r1,#0xa4
        0x010043ea:    4788        .G      BLX      r1
        0x010043ec:    0880        ..      LSRS     r0,r0,#2
        0x010043ee:    bd10        ..      POP      {r4,pc}
        0x010043f0:    4620         F      MOV      r0,r4
        0x010043f2:    4995        .I      LDR      r1,[pc,#596] ; [0x1004648] = 0x4c81
        0x010043f4:    31a4        .1      ADDS     r1,r1,#0xa4
        0x010043f6:    4788        .G      BLX      r1
        0x010043f8:    e7f9        ..      B        0x10043ee ; lpm_bt_read + 22
    lpm_sleep
        0x010043fa:    b510        ..      PUSH     {r4,lr}
        0x010043fc:    4892        .H      LDR      r0,[pc,#584] ; [0x1004648] = 0x4c81
        0x010043fe:    30e8        .0      ADDS     r0,r0,#0xe8
        0x01004400:    4780        .G      BLX      r0
        0x01004402:    bd10        ..      POP      {r4,pc}
    setlpmval
        0x01004404:    b5ff        ..      PUSH     {r0-r7,lr}
        0x01004406:    b081        ..      SUB      sp,sp,#4
        0x01004408:    4604        .F      MOV      r4,r0
        0x0100440a:    460d        .F      MOV      r5,r1
        0x0100440c:    4616        .F      MOV      r6,r2
        0x0100440e:    4632        2F      MOV      r2,r6
        0x01004410:    4629        )F      MOV      r1,r5
        0x01004412:    4620         F      MOV      r0,r4
        0x01004414:    4f8f        .O      LDR      r7,[pc,#572] ; [0x1004654] = 0x4281
        0x01004416:    9b04        ..      LDR      r3,[sp,#0x10]
        0x01004418:    47b8        .G      BLX      r7
        0x0100441a:    b005        ..      ADD      sp,sp,#0x14
        0x0100441c:    bdf0        ..      POP      {r4-r7,pc}
    readlpmval
        0x0100441e:    b5f8        ..      PUSH     {r3-r7,lr}
        0x01004420:    4606        .F      MOV      r6,r0
        0x01004422:    460d        .F      MOV      r5,r1
        0x01004424:    4614        .F      MOV      r4,r2
        0x01004426:    2700        .'      MOVS     r7,#0
        0x01004428:    2c20         ,      CMP      r4,#0x20
        0x0100442a:    d10a        ..      BNE      0x1004442 ; readlpmval + 36
        0x0100442c:    4630        0F      MOV      r0,r6
        0x0100442e:    f7ffff95    ....    BL       lpm_read ; 0x100435c
        0x01004432:    4607        .F      MOV      r7,r0
        0x01004434:    4638        8F      MOV      r0,r7
        0x01004436:    40e8        .@      LSRS     r0,r0,r5
        0x01004438:    2101        .!      MOVS     r1,#1
        0x0100443a:    40a1        .@      LSLS     r1,r1,r4
        0x0100443c:    1e49        I.      SUBS     r1,r1,#1
        0x0100443e:    4008        .@      ANDS     r0,r0,r1
        0x01004440:    bdf8        ..      POP      {r3-r7,pc}
        0x01004442:    4630        0F      MOV      r0,r6
        0x01004444:    f7ffff8a    ....    BL       lpm_read ; 0x100435c
        0x01004448:    e7fa        ..      B        0x1004440 ; readlpmval + 34
    GPIO_Unused_Pd
        0x0100444a:    2000        .       MOVS     r0,#0
        0x0100444c:    e017        ..      B        0x100447e ; GPIO_Unused_Pd + 52
        0x0100444e:    4982        .I      LDR      r1,[pc,#520] ; [0x1004658] = 0xf8700
        0x01004450:    1841        A.      ADDS     r1,r0,r1
        0x01004452:    7809        .x      LDRB     r1,[r1,#0]
        0x01004454:    2900        .)      CMP      r1,#0
        0x01004456:    d009        ..      BEQ      0x100446c ; GPIO_Unused_Pd + 34
        0x01004458:    497f        .I      LDR      r1,[pc,#508] ; [0x1004658] = 0xf8700
        0x0100445a:    1841        A.      ADDS     r1,r0,r1
        0x0100445c:    7809        .x      LDRB     r1,[r1,#0]
        0x0100445e:    2904        .)      CMP      r1,#4
        0x01004460:    d004        ..      BEQ      0x100446c ; GPIO_Unused_Pd + 34
        0x01004462:    497d        }I      LDR      r1,[pc,#500] ; [0x1004658] = 0xf8700
        0x01004464:    1841        A.      ADDS     r1,r0,r1
        0x01004466:    7809        .x      LDRB     r1,[r1,#0]
        0x01004468:    2905        .)      CMP      r1,#5
        0x0100446a:    d107        ..      BNE      0x100447c ; GPIO_Unused_Pd + 50
        0x0100446c:    497a        zI      LDR      r1,[pc,#488] ; [0x1004658] = 0xf8700
        0x0100446e:    1841        A.      ADDS     r1,r0,r1
        0x01004470:    7809        .x      LDRB     r1,[r1,#0]
        0x01004472:    2280        ."      MOVS     r2,#0x80
        0x01004474:    4311        .C      ORRS     r1,r1,r2
        0x01004476:    4a78        xJ      LDR      r2,[pc,#480] ; [0x1004658] = 0xf8700
        0x01004478:    1882        ..      ADDS     r2,r0,r2
        0x0100447a:    7011        .p      STRB     r1,[r2,#0]
        0x0100447c:    1c40        @.      ADDS     r0,r0,#1
        0x0100447e:    2830        0(      CMP      r0,#0x30
        0x01004480:    dbe5        ..      BLT      0x100444e ; GPIO_Unused_Pd + 4
        0x01004482:    4770        pG      BX       lr
    get_otp
        0x01004484:    b508        ..      PUSH     {r3,lr}
        0x01004486:    4875        uH      LDR      r0,[pc,#468] ; [0x100465c] = 0x20048
        0x01004488:    6800        .h      LDR      r0,[r0,#0]
        0x0100448a:    2800        .(      CMP      r0,#0
        0x0100448c:    d112        ..      BNE      0x10044b4 ; get_otp + 48
        0x0100448e:    2202        ."      MOVS     r2,#2
        0x01004490:    4669        iF      MOV      r1,sp
        0x01004492:    20ff        .       MOVS     r0,#0xff
        0x01004494:    303f        ?0      ADDS     r0,r0,#0x3f
        0x01004496:    f7fef88e    ....    BL       read_otp ; 0x10025b6
        0x0100449a:    9800        ..      LDR      r0,[sp,#0]
        0x0100449c:    2800        .(      CMP      r0,#0
        0x0100449e:    d102        ..      BNE      0x10044a6 ; get_otp + 34
        0x010044a0:    2001        .       MOVS     r0,#1
        0x010044a2:    03c0        ..      LSLS     r0,r0,#15
        0x010044a4:    e000        ..      B        0x10044a8 ; get_otp + 36
        0x010044a6:    9800        ..      LDR      r0,[sp,#0]
        0x010044a8:    9000        ..      STR      r0,[sp,#0]
        0x010044aa:    9800        ..      LDR      r0,[sp,#0]
        0x010044ac:    0040        @.      LSLS     r0,r0,#1
        0x010044ae:    0840        @.      LSRS     r0,r0,#1
        0x010044b0:    9000        ..      STR      r0,[sp,#0]
        0x010044b2:    e007        ..      B        0x10044c4 ; get_otp + 64
        0x010044b4:    4869        iH      LDR      r0,[pc,#420] ; [0x100465c] = 0x20048
        0x010044b6:    6800        .h      LDR      r0,[r0,#0]
        0x010044b8:    9000        ..      STR      r0,[sp,#0]
        0x010044ba:    2101        .!      MOVS     r1,#1
        0x010044bc:    07c9        ..      LSLS     r1,r1,#31
        0x010044be:    9800        ..      LDR      r0,[sp,#0]
        0x010044c0:    4308        .C      ORRS     r0,r0,r1
        0x010044c2:    9000        ..      STR      r0,[sp,#0]
        0x010044c4:    9800        ..      LDR      r0,[sp,#0]
        0x010044c6:    bd08        ..      POP      {r3,pc}
    BT_Hibernate
        0x010044c8:    b51c        ..      PUSH     {r2-r4,lr}
        0x010044ca:    2000        .       MOVS     r0,#0
        0x010044cc:    4964        dI      LDR      r1,[pc,#400] ; [0x1004660] = 0x20024
        0x010044ce:    7008        .p      STRB     r0,[r1,#0]
        0x010044d0:    2202        ."      MOVS     r2,#2
        0x010044d2:    4962        bI      LDR      r1,[pc,#392] ; [0x100465c] = 0x20048
        0x010044d4:    20ff        .       MOVS     r0,#0xff
        0x010044d6:    303f        ?0      ADDS     r0,r0,#0x3f
        0x010044d8:    f7fef86d    ..m.    BL       read_otp ; 0x10025b6
        0x010044dc:    485f        _H      LDR      r0,[pc,#380] ; [0x100465c] = 0x20048
        0x010044de:    6800        .h      LDR      r0,[r0,#0]
        0x010044e0:    2800        .(      CMP      r0,#0
        0x010044e2:    d102        ..      BNE      0x10044ea ; BT_Hibernate + 34
        0x010044e4:    2001        .       MOVS     r0,#1
        0x010044e6:    03c0        ..      LSLS     r0,r0,#15
        0x010044e8:    e001        ..      B        0x10044ee ; BT_Hibernate + 38
        0x010044ea:    485c        \H      LDR      r0,[pc,#368] ; [0x100465c] = 0x20048
        0x010044ec:    6800        .h      LDR      r0,[r0,#0]
        0x010044ee:    495b        [I      LDR      r1,[pc,#364] ; [0x100465c] = 0x20048
        0x010044f0:    6008        .`      STR      r0,[r1,#0]
        0x010044f2:    4857        WH      LDR      r0,[pc,#348] ; [0x1004650] = 0xc8040
        0x010044f4:    78c0        .x      LDRB     r0,[r0,#3]
        0x010044f6:    2180        .!      MOVS     r1,#0x80
        0x010044f8:    4388        .C      BICS     r0,r0,r1
        0x010044fa:    4955        UI      LDR      r1,[pc,#340] ; [0x1004650] = 0xc8040
        0x010044fc:    70c8        .p      STRB     r0,[r1,#3]
        0x010044fe:    200b        .       MOVS     r0,#0xb
        0x01004500:    f7fbffd5    ....    BL       NVIC_DisableIRQ ; 0x10004ae
        0x01004504:    2090        .       MOVS     r0,#0x90
        0x01004506:    4951        QI      LDR      r1,[pc,#324] ; [0x100464c] = 0xf8540
        0x01004508:    3920         9      SUBS     r1,r1,#0x20
        0x0100450a:    7708        .w      STRB     r0,[r1,#0x1c]
        0x0100450c:    2101        .!      MOVS     r1,#1
        0x0100450e:    4668        hF      MOV      r0,sp
        0x01004510:    7001        .p      STRB     r1,[r0,#0]
        0x01004512:    2127        '!      MOVS     r1,#0x27
        0x01004514:    7041        Ap      STRB     r1,[r0,#1]
        0x01004516:    2100        .!      MOVS     r1,#0
        0x01004518:    7081        .p      STRB     r1,[r0,#2]
        0x0100451a:    f7fef8c1    ....    BL       IPC_TxData ; 0x10026a0
        0x0100451e:    4851        QH      LDR      r0,[pc,#324] ; [0x1004664] = 0x2710
        0x01004520:    f002fb4a    ..J.    BL       $Ven$TT$L$$delay ; 0x1006bb8
        0x01004524:    bd1c        ..      POP      {r2-r4,pc}
    Chip_Speedstep
        0x01004526:    b510        ..      PUSH     {r4,lr}
        0x01004528:    200e        .       MOVS     r0,#0xe
        0x0100452a:    f7fdfd29    ..).    BL       SYSCTRL_HCLKConfig ; 0x1001f80
        0x0100452e:    bd10        ..      POP      {r4,pc}
    CM0_Sleep
        0x01004530:    b5ff        ..      PUSH     {r0-r7,lr}
        0x01004532:    b081        ..      SUB      sp,sp,#4
        0x01004534:    4606        .F      MOV      r6,r0
        0x01004536:    460c        .F      MOV      r4,r1
        0x01004538:    461f        .F      MOV      r7,r3
        0x0100453a:    2100        .!      MOVS     r1,#0
        0x0100453c:    484a        JH      LDR      r0,[pc,#296] ; [0x1004668] = 0x757fe
        0x0100453e:    f7fdfce9    ....    BL       SYSCTRL_AHBPeriphClockCmd ; 0x1001f14
        0x01004542:    2300        .#      MOVS     r3,#0
        0x01004544:    2201        ."      MOVS     r2,#1
        0x01004546:    2111        .!      MOVS     r1,#0x11
        0x01004548:    4848        HH      LDR      r0,[pc,#288] ; [0x100466c] = 0xf8414
        0x0100454a:    f7ffff5b    ..[.    BL       setlpmval ; 0x1004404
        0x0100454e:    2f00        ./      CMP      r7,#0
        0x01004550:    d001        ..      BEQ      0x1004556 ; CM0_Sleep + 38
        0x01004552:    2001        .       MOVS     r0,#1
        0x01004554:    e000        ..      B        0x1004558 ; CM0_Sleep + 40
        0x01004556:    2000        .       MOVS     r0,#0
        0x01004558:    4603        .F      MOV      r3,r0
        0x0100455a:    2201        ."      MOVS     r2,#1
        0x0100455c:    2112        .!      MOVS     r1,#0x12
        0x0100455e:    4843        CH      LDR      r0,[pc,#268] ; [0x100466c] = 0xf8414
        0x01004560:    f7ffff50    ..P.    BL       setlpmval ; 0x1004404
        0x01004564:    2f00        ./      CMP      r7,#0
        0x01004566:    d005        ..      BEQ      0x1004574 ; CM0_Sleep + 68
        0x01004568:    2240        @"      MOVS     r2,#0x40
        0x0100456a:    4620         F      MOV      r0,r4
        0x0100456c:    9903        ..      LDR      r1,[sp,#0xc]
        0x0100456e:    f7fcf963    ..c.    BL       GPIO_Config ; 0x1000838
        0x01004572:    e004        ..      B        0x100457e ; CM0_Sleep + 78
        0x01004574:    2280        ."      MOVS     r2,#0x80
        0x01004576:    4620         F      MOV      r0,r4
        0x01004578:    9903        ..      LDR      r1,[sp,#0xc]
        0x0100457a:    f7fcf95d    ..].    BL       GPIO_Config ; 0x1000838
        0x0100457e:    2c00        .,      CMP      r4,#0
        0x01004580:    d107        ..      BNE      0x1004592 ; CM0_Sleep + 98
        0x01004582:    2210        ."      MOVS     r2,#0x10
        0x01004584:    2100        .!      MOVS     r1,#0
        0x01004586:    4839        9H      LDR      r0,[pc,#228] ; [0x100466c] = 0xf8414
        0x01004588:    1f00        ..      SUBS     r0,r0,#4
        0x0100458a:    9b03        ..      LDR      r3,[sp,#0xc]
        0x0100458c:    f7ffff3a    ..:.    BL       setlpmval ; 0x1004404
        0x01004590:    e01f        ..      B        0x10045d2 ; CM0_Sleep + 162
        0x01004592:    2c01        .,      CMP      r4,#1
        0x01004594:    d107        ..      BNE      0x10045a6 ; CM0_Sleep + 118
        0x01004596:    2210        ."      MOVS     r2,#0x10
        0x01004598:    4611        .F      MOV      r1,r2
        0x0100459a:    4834        4H      LDR      r0,[pc,#208] ; [0x100466c] = 0xf8414
        0x0100459c:    1f00        ..      SUBS     r0,r0,#4
        0x0100459e:    9b03        ..      LDR      r3,[sp,#0xc]
        0x010045a0:    f7ffff30    ..0.    BL       setlpmval ; 0x1004404
        0x010045a4:    e015        ..      B        0x10045d2 ; CM0_Sleep + 162
        0x010045a6:    2c02        .,      CMP      r4,#2
        0x010045a8:    d106        ..      BNE      0x10045b8 ; CM0_Sleep + 136
        0x010045aa:    2210        ."      MOVS     r2,#0x10
        0x010045ac:    2100        .!      MOVS     r1,#0
        0x010045ae:    482f        /H      LDR      r0,[pc,#188] ; [0x100466c] = 0xf8414
        0x010045b0:    9b03        ..      LDR      r3,[sp,#0xc]
        0x010045b2:    f7ffff27    ..'.    BL       setlpmval ; 0x1004404
        0x010045b6:    e00c        ..      B        0x10045d2 ; CM0_Sleep + 162
        0x010045b8:    2300        .#      MOVS     r3,#0
        0x010045ba:    2220         "      MOVS     r2,#0x20
        0x010045bc:    4619        .F      MOV      r1,r3
        0x010045be:    482b        +H      LDR      r0,[pc,#172] ; [0x100466c] = 0xf8414
        0x010045c0:    1f00        ..      SUBS     r0,r0,#4
        0x010045c2:    f7ffff1f    ....    BL       setlpmval ; 0x1004404
        0x010045c6:    2300        .#      MOVS     r3,#0
        0x010045c8:    2210        ."      MOVS     r2,#0x10
        0x010045ca:    4619        .F      MOV      r1,r3
        0x010045cc:    4827        'H      LDR      r0,[pc,#156] ; [0x100466c] = 0xf8414
        0x010045ce:    f7ffff19    ....    BL       setlpmval ; 0x1004404
        0x010045d2:    f7ffff57    ..W.    BL       get_otp ; 0x1004484
        0x010045d6:    4605        .F      MOV      r5,r0
        0x010045d8:    2e00        ..      CMP      r6,#0
        0x010045da:    d01a        ..      BEQ      0x1004612 ; CM0_Sleep + 226
        0x010045dc:    462b        +F      MOV      r3,r5
        0x010045de:    2210        ."      MOVS     r2,#0x10
        0x010045e0:    2100        .!      MOVS     r1,#0
        0x010045e2:    4822        "H      LDR      r0,[pc,#136] ; [0x100466c] = 0xf8414
        0x010045e4:    3808        .8      SUBS     r0,r0,#8
        0x010045e6:    f7ffff0d    ....    BL       setlpmval ; 0x1004404
        0x010045ea:    4633        3F      MOV      r3,r6
        0x010045ec:    2220         "      MOVS     r2,#0x20
        0x010045ee:    2100        .!      MOVS     r1,#0
        0x010045f0:    481e        .H      LDR      r0,[pc,#120] ; [0x100466c] = 0xf8414
        0x010045f2:    380c        .8      SUBS     r0,r0,#0xc
        0x010045f4:    f7ffff06    ....    BL       setlpmval ; 0x1004404
        0x010045f8:    2300        .#      MOVS     r3,#0
        0x010045fa:    2220         "      MOVS     r2,#0x20
        0x010045fc:    4619        .F      MOV      r1,r3
        0x010045fe:    481b        .H      LDR      r0,[pc,#108] ; [0x100466c] = 0xf8414
        0x01004600:    3068        h0      ADDS     r0,r0,#0x68
        0x01004602:    f7fffeff    ....    BL       setlpmval ; 0x1004404
        0x01004606:    2301        .#      MOVS     r3,#1
        0x01004608:    461a        .F      MOV      r2,r3
        0x0100460a:    2111        .!      MOVS     r1,#0x11
        0x0100460c:    4817        .H      LDR      r0,[pc,#92] ; [0x100466c] = 0xf8414
        0x0100460e:    f7fffef9    ....    BL       setlpmval ; 0x1004404
        0x01004612:    980a        ..      LDR      r0,[sp,#0x28]
        0x01004614:    2801        .(      CMP      r0,#1
        0x01004616:    d104        ..      BNE      0x1004622 ; CM0_Sleep + 242
        0x01004618:    0fe8        ..      LSRS     r0,r5,#31
        0x0100461a:    2800        .(      CMP      r0,#0
        0x0100461c:    d101        ..      BNE      0x1004622 ; CM0_Sleep + 242
        0x0100461e:    f7ffff53    ..S.    BL       BT_Hibernate ; 0x10044c8
        0x01004622:    f7fffeea    ....    BL       lpm_sleep ; 0x10043fa
        0x01004626:    b005        ..      ADD      sp,sp,#0x14
        0x01004628:    bdf0        ..      POP      {r4-r7,pc}
    enable_gpio_32
        0x0100462a:    b510        ..      PUSH     {r4,lr}
        0x0100462c:    2001        .       MOVS     r0,#1
        0x0100462e:    f7fffed3    ....    BL       lpm_bt_read ; 0x10043d8
        0x01004632:    4604        .F      MOV      r4,r0
        0x01004634:    2101        .!      MOVS     r1,#1
        0x01004636:    0449        I.      LSLS     r1,r1,#17
        0x01004638:    4620         F      MOV      r0,r4
        0x0100463a:    4388        .C      BICS     r0,r0,r1
        0x0100463c:    4604        .F      MOV      r4,r0
        0x0100463e:    4621        !F      MOV      r1,r4
        0x01004640:    2001        .       MOVS     r0,#1
        0x01004642:    f7fffe9a    ....    BL       lpm_bt_write ; 0x100437a
        0x01004646:    bd10        ..      POP      {r4,pc}
    $d
        0x01004648:    00004c81    .L..    DCD    19585
        0x0100464c:    000f8540    @...    DCD    1017152
        0x01004650:    000c8040    @...    DCD    819264
        0x01004654:    00004281    .B..    DCD    17025
        0x01004658:    000f8700    ....    DCD    1017600
        0x0100465c:    00020048    H...    DCD    131144
        0x01004660:    00020024    $...    DCD    131108
        0x01004664:    00002710    .'..    DCD    10000
        0x01004668:    000757fe    .W..    DCD    481278
        0x0100466c:    000f8414    ....    DCD    1016852
    $t
    .text
    hal_log_printf
        0x01004670:    b40f        ..      PUSH     {r0-r3}
        0x01004672:    b510        ..      PUSH     {r4,lr}
        0x01004674:    b0c2        ..      SUB      sp,sp,#0x108
        0x01004676:    21ff        .!      MOVS     r1,#0xff
        0x01004678:    3101        .1      ADDS     r1,#1
        0x0100467a:    a801        ..      ADD      r0,sp,#4
        0x0100467c:    f001ffe1    ....    BL       __aeabi_memclr ; 0x1006642
        0x01004680:    a845        E.      ADD      r0,sp,#0x114
        0x01004682:    9041        A.      STR      r0,[sp,#0x104]
        0x01004684:    21ff        .!      MOVS     r1,#0xff
        0x01004686:    3101        .1      ADDS     r1,#1
        0x01004688:    a801        ..      ADD      r0,sp,#4
        0x0100468a:    9b41        A.      LDR      r3,[sp,#0x104]
        0x0100468c:    9a44        D.      LDR      r2,[sp,#0x110]
        0x0100468e:    f002faa9    ....    BL       __0vsnprintf ; 0x1006be4
        0x01004692:    4604        .F      MOV      r4,r0
        0x01004694:    4622        "F      MOV      r2,r4
        0x01004696:    a901        ..      ADD      r1,sp,#4
        0x01004698:    2000        .       MOVS     r0,#0
        0x0100469a:    f7fdf856    ..V.    BL       UART_SendBuf ; 0x100174a
        0x0100469e:    2000        .       MOVS     r0,#0
        0x010046a0:    9041        A.      STR      r0,[sp,#0x104]
        0x010046a2:    b042        B.      ADD      sp,sp,#0x108
        0x010046a4:    bc10        ..      POP      {r4}
        0x010046a6:    bc08        ..      POP      {r3}
        0x010046a8:    b004        ..      ADD      sp,sp,#0x10
        0x010046aa:    4718        .G      BX       r3
    fputc
        0x010046ac:    b570        p.      PUSH     {r4-r6,lr}
        0x010046ae:    4604        .F      MOV      r4,r0
        0x010046b0:    460d        .F      MOV      r5,r1
        0x010046b2:    b2e1        ..      UXTB     r1,r4
        0x010046b4:    2000        .       MOVS     r0,#0
        0x010046b6:    f7fdf88d    ....    BL       UART_SendData ; 0x10017d4
        0x010046ba:    4620         F      MOV      r0,r4
        0x010046bc:    bd70        p.      POP      {r4-r6,pc}
    hal_log_init
        0x010046be:    b51f        ..      PUSH     {r0-r4,lr}
        0x010046c0:    2208        ."      MOVS     r2,#8
        0x010046c2:    2102        .!      MOVS     r1,#2
        0x010046c4:    2000        .       MOVS     r0,#0
        0x010046c6:    f7fcf8b7    ....    BL       GPIO_Config ; 0x1000838
        0x010046ca:    2209        ."      MOVS     r2,#9
        0x010046cc:    2101        .!      MOVS     r1,#1
        0x010046ce:    2000        .       MOVS     r0,#0
        0x010046d0:    f7fcf8b2    ....    BL       GPIO_Config ; 0x1000838
        0x010046d4:    20e1        .       MOVS     r0,#0xe1
        0x010046d6:    0300        ..      LSLS     r0,r0,#12
        0x010046d8:    9001        ..      STR      r0,[sp,#4]
        0x010046da:    2100        .!      MOVS     r1,#0
        0x010046dc:    4668        hF      MOV      r0,sp
        0x010046de:    7201        .r      STRB     r1,[r0,#8]
        0x010046e0:    7241        Ar      STRB     r1,[r0,#9]
        0x010046e2:    7281        .r      STRB     r1,[r0,#0xa]
        0x010046e4:    72c1        .r      STRB     r1,[r0,#0xb]
        0x010046e6:    7001        .p      STRB     r1,[r0,#0]
        0x010046e8:    4669        iF      MOV      r1,sp
        0x010046ea:    2000        .       MOVS     r0,#0
        0x010046ec:    f7fcfec6    ....    BL       UART_Init ; 0x100147c
        0x010046f0:    2201        ."      MOVS     r2,#1
        0x010046f2:    2102        .!      MOVS     r1,#2
        0x010046f4:    2000        .       MOVS     r0,#0
        0x010046f6:    f7fcfdcc    ....    BL       UART_ITConfig ; 0x1001292
        0x010046fa:    210a        .!      MOVS     r1,#0xa
        0x010046fc:    2000        .       MOVS     r0,#0
        0x010046fe:    f7fdf89f    ....    BL       UART_SetRxITNum ; 0x1001840
        0x01004702:    21ff        .!      MOVS     r1,#0xff
        0x01004704:    2000        .       MOVS     r0,#0
        0x01004706:    f7fdf893    ....    BL       UART_SetITTimeout ; 0x1001830
        0x0100470a:    2000        .       MOVS     r0,#0
        0x0100470c:    b004        ..      ADD      sp,sp,#0x10
        0x0100470e:    bd10        ..      POP      {r4,pc}
    .text
    hal_print_send_data
        0x01004710:    b570        p.      PUSH     {r4-r6,lr}
        0x01004712:    4605        .F      MOV      r5,r0
        0x01004714:    460c        .F      MOV      r4,r1
        0x01004716:    48a0        .H      LDR      r0,[pc,#640] ; [0x1004998] = 0xf8900
        0x01004718:    6005        .`      STR      r5,[r0,#0]
        0x0100471a:    0420         .      LSLS     r0,r4,#16
        0x0100471c:    499e        .I      LDR      r1,[pc,#632] ; [0x1004998] = 0xf8900
        0x0100471e:    6088        .`      STR      r0,[r1,#8]
        0x01004720:    2080        .       MOVS     r0,#0x80
        0x01004722:    73c8        .s      STRB     r0,[r1,#0xf]
        0x01004724:    bf00        ..      NOP      
        0x01004726:    489c        .H      LDR      r0,[pc,#624] ; [0x1004998] = 0xf8900
        0x01004728:    6900        .i      LDR      r0,[r0,#0x10]
        0x0100472a:    07c0        ..      LSLS     r0,r0,#31
        0x0100472c:    0fc0        ..      LSRS     r0,r0,#31
        0x0100472e:    2800        .(      CMP      r0,#0
        0x01004730:    d0f9        ..      BEQ      0x1004726 ; hal_print_send_data + 22
        0x01004732:    f001fc40    ..@.    BL       middle_print_latch_to_heat_handle ; 0x1005fb6
        0x01004736:    2000        .       MOVS     r0,#0
        0x01004738:    bd70        p.      POP      {r4-r6,pc}
    hal_print_heat_time
        0x0100473a:    b510        ..      PUSH     {r4,lr}
        0x0100473c:    4604        .F      MOV      r4,r0
        0x0100473e:    2100        .!      MOVS     r1,#0
        0x01004740:    2005        .       MOVS     r0,#5
        0x01004742:    f7fdfcac    ....    BL       TIM_Cmd ; 0x100209e
        0x01004746:    2060        `       MOVS     r0,#0x60
        0x01004748:    4360        `C      MULS     r0,r4,r0
        0x0100474a:    4601        .F      MOV      r1,r0
        0x0100474c:    2005        .       MOVS     r0,#5
        0x0100474e:    f7fdfd42    ..B.    BL       TIM_SetPeriod ; 0x10021d6
        0x01004752:    2101        .!      MOVS     r1,#1
        0x01004754:    2005        .       MOVS     r0,#5
        0x01004756:    f7fdfca2    ....    BL       TIM_Cmd ; 0x100209e
        0x0100475a:    2000        .       MOVS     r0,#0
        0x0100475c:    bd10        ..      POP      {r4,pc}
    hal_print_stop
        0x0100475e:    b510        ..      PUSH     {r4,lr}
        0x01004760:    2104        .!      MOVS     r1,#4
        0x01004762:    2001        .       MOVS     r0,#1
        0x01004764:    f7fcfa39    ..9.    BL       GPIO_ResetBits ; 0x1000bda
        0x01004768:    2101        .!      MOVS     r1,#1
        0x0100476a:    2005        .       MOVS     r0,#5
        0x0100476c:    f7fdfc97    ....    BL       TIM_Cmd ; 0x100209e
        0x01004770:    2000        .       MOVS     r0,#0
        0x01004772:    bd10        ..      POP      {r4,pc}
    hal_print_motor_speed_time
        0x01004774:    b510        ..      PUSH     {r4,lr}
        0x01004776:    4604        .F      MOV      r4,r0
        0x01004778:    2100        .!      MOVS     r1,#0
        0x0100477a:    2004        .       MOVS     r0,#4
        0x0100477c:    f7fdfc8f    ....    BL       TIM_Cmd ; 0x100209e
        0x01004780:    2060        `       MOVS     r0,#0x60
        0x01004782:    4360        `C      MULS     r0,r4,r0
        0x01004784:    4601        .F      MOV      r1,r0
        0x01004786:    2004        .       MOVS     r0,#4
        0x01004788:    f7fdfd25    ..%.    BL       TIM_SetPeriod ; 0x10021d6
        0x0100478c:    2101        .!      MOVS     r1,#1
        0x0100478e:    2004        .       MOVS     r0,#4
        0x01004790:    f7fdfc85    ....    BL       TIM_Cmd ; 0x100209e
        0x01004794:    2000        .       MOVS     r0,#0
        0x01004796:    bd10        ..      POP      {r4,pc}
    hal_print_motor_stop
        0x01004798:    b510        ..      PUSH     {r4,lr}
        0x0100479a:    2108        .!      MOVS     r1,#8
        0x0100479c:    2000        .       MOVS     r0,#0
        0x0100479e:    f7fcfa1c    ....    BL       GPIO_ResetBits ; 0x1000bda
        0x010047a2:    2101        .!      MOVS     r1,#1
        0x010047a4:    2004        .       MOVS     r0,#4
        0x010047a6:    f7fdfc7a    ..z.    BL       TIM_Cmd ; 0x100209e
        0x010047aa:    2000        .       MOVS     r0,#0
        0x010047ac:    497b        {I      LDR      r1,[pc,#492] ; [0x100499c] = 0xf0c00
        0x010047ae:    6008        .`      STR      r0,[r1,#0]
        0x010047b0:    20ff        .       MOVS     r0,#0xff
        0x010047b2:    30e1        .0      ADDS     r0,r0,#0xe1
        0x010047b4:    6048        H`      STR      r0,[r1,#4]
        0x010047b6:    2000        .       MOVS     r0,#0
        0x010047b8:    6088        .`      STR      r0,[r1,#8]
        0x010047ba:    20ff        .       MOVS     r0,#0xff
        0x010047bc:    30e1        .0      ADDS     r0,r0,#0xe1
        0x010047be:    60c8        .`      STR      r0,[r1,#0xc]
        0x010047c0:    2000        .       MOVS     r0,#0
        0x010047c2:    6108        .a      STR      r0,[r1,#0x10]
        0x010047c4:    20ff        .       MOVS     r0,#0xff
        0x010047c6:    30e1        .0      ADDS     r0,r0,#0xe1
        0x010047c8:    6148        Ha      STR      r0,[r1,#0x14]
        0x010047ca:    2000        .       MOVS     r0,#0
        0x010047cc:    6188        .a      STR      r0,[r1,#0x18]
        0x010047ce:    20ff        .       MOVS     r0,#0xff
        0x010047d0:    30e1        .0      ADDS     r0,r0,#0xe1
        0x010047d2:    61c8        .a      STR      r0,[r1,#0x1c]
        0x010047d4:    2000        .       MOVS     r0,#0
        0x010047d6:    bd10        ..      POP      {r4,pc}
    hal_print_temprature
        0x010047d8:    2000        .       MOVS     r0,#0
        0x010047da:    4770        pG      BX       lr
    hal_print_motor_spwm_init
        0x010047dc:    b500        ..      PUSH     {lr}
        0x010047de:    b085        ..      SUB      sp,sp,#0x14
        0x010047e0:    2108        .!      MOVS     r1,#8
        0x010047e2:    4668        hF      MOV      r0,sp
        0x010047e4:    8201        ..      STRH     r1,[r0,#0x10]
        0x010047e6:    2105        .!      MOVS     r1,#5
        0x010047e8:    7481        .t      STRB     r1,[r0,#0x12]
        0x010047ea:    a904        ..      ADD      r1,sp,#0x10
        0x010047ec:    2000        .       MOVS     r0,#0
        0x010047ee:    f7fcf86b    ..k.    BL       GPIO_Init ; 0x10008c8
        0x010047f2:    2108        .!      MOVS     r1,#8
        0x010047f4:    2000        .       MOVS     r0,#0
        0x010047f6:    f7fcf9f0    ....    BL       GPIO_ResetBits ; 0x1000bda
        0x010047fa:    20ff        .       MOVS     r0,#0xff
        0x010047fc:    30e1        .0      ADDS     r0,r0,#0xe1
        0x010047fe:    9001        ..      STR      r0,[sp,#4]
        0x01004800:    2000        .       MOVS     r0,#0
        0x01004802:    9002        ..      STR      r0,[sp,#8]
        0x01004804:    2100        .!      MOVS     r1,#0
        0x01004806:    4668        hF      MOV      r0,sp
        0x01004808:    7301        .s      STRB     r1,[r0,#0xc]
        0x0100480a:    2210        ."      MOVS     r2,#0x10
        0x0100480c:    2120         !      MOVS     r1,#0x20
        0x0100480e:    2000        .       MOVS     r0,#0
        0x01004810:    f7fcf812    ....    BL       GPIO_Config ; 0x1000838
        0x01004814:    2211        ."      MOVS     r2,#0x11
        0x01004816:    2110        .!      MOVS     r1,#0x10
        0x01004818:    2000        .       MOVS     r0,#0
        0x0100481a:    f7fcf80d    ....    BL       GPIO_Config ; 0x1000838
        0x0100481e:    2212        ."      MOVS     r2,#0x12
        0x01004820:    2101        .!      MOVS     r1,#1
        0x01004822:    02c9        ..      LSLS     r1,r1,#11
        0x01004824:    2000        .       MOVS     r0,#0
        0x01004826:    f7fcf807    ....    BL       GPIO_Config ; 0x1000838
        0x0100482a:    2213        ."      MOVS     r2,#0x13
        0x0100482c:    2101        .!      MOVS     r1,#1
        0x0100482e:    0289        ..      LSLS     r1,r1,#10
        0x01004830:    2000        .       MOVS     r0,#0
        0x01004832:    f7fcf801    ....    BL       GPIO_Config ; 0x1000838
        0x01004836:    2100        .!      MOVS     r1,#0
        0x01004838:    4668        hF      MOV      r0,sp
        0x0100483a:    7001        .p      STRB     r1,[r0,#0]
        0x0100483c:    f7fdfcdb    ....    BL       TIM_PWMInit ; 0x10021f6
        0x01004840:    2100        .!      MOVS     r1,#0
        0x01004842:    4608        .F      MOV      r0,r1
        0x01004844:    f7fdfc8e    ....    BL       TIM_ModeConfig ; 0x1002164
        0x01004848:    2101        .!      MOVS     r1,#1
        0x0100484a:    2000        .       MOVS     r0,#0
        0x0100484c:    f7fdfc27    ..'.    BL       TIM_Cmd ; 0x100209e
        0x01004850:    2101        .!      MOVS     r1,#1
        0x01004852:    4668        hF      MOV      r0,sp
        0x01004854:    7001        .p      STRB     r1,[r0,#0]
        0x01004856:    f7fdfcce    ....    BL       TIM_PWMInit ; 0x10021f6
        0x0100485a:    2100        .!      MOVS     r1,#0
        0x0100485c:    2001        .       MOVS     r0,#1
        0x0100485e:    f7fdfc81    ....    BL       TIM_ModeConfig ; 0x1002164
        0x01004862:    2101        .!      MOVS     r1,#1
        0x01004864:    4608        .F      MOV      r0,r1
        0x01004866:    f7fdfc1a    ....    BL       TIM_Cmd ; 0x100209e
        0x0100486a:    2102        .!      MOVS     r1,#2
        0x0100486c:    4668        hF      MOV      r0,sp
        0x0100486e:    7001        .p      STRB     r1,[r0,#0]
        0x01004870:    f7fdfcc1    ....    BL       TIM_PWMInit ; 0x10021f6
        0x01004874:    2100        .!      MOVS     r1,#0
        0x01004876:    2002        .       MOVS     r0,#2
        0x01004878:    f7fdfc74    ..t.    BL       TIM_ModeConfig ; 0x1002164
        0x0100487c:    2101        .!      MOVS     r1,#1
        0x0100487e:    2002        .       MOVS     r0,#2
        0x01004880:    f7fdfc0d    ....    BL       TIM_Cmd ; 0x100209e
        0x01004884:    2103        .!      MOVS     r1,#3
        0x01004886:    4668        hF      MOV      r0,sp
        0x01004888:    7001        .p      STRB     r1,[r0,#0]
        0x0100488a:    f7fdfcb4    ....    BL       TIM_PWMInit ; 0x10021f6
        0x0100488e:    2100        .!      MOVS     r1,#0
        0x01004890:    2003        .       MOVS     r0,#3
        0x01004892:    f7fdfc67    ..g.    BL       TIM_ModeConfig ; 0x1002164
        0x01004896:    2101        .!      MOVS     r1,#1
        0x01004898:    2003        .       MOVS     r0,#3
        0x0100489a:    f7fdfc00    ....    BL       TIM_Cmd ; 0x100209e
        0x0100489e:    b005        ..      ADD      sp,sp,#0x14
        0x010048a0:    bd00        ..      POP      {pc}
    hal_print_motor_speed_init
        0x010048a2:    b51c        ..      PUSH     {r2-r4,lr}
        0x010048a4:    2060        `       MOVS     r0,#0x60
        0x010048a6:    9001        ..      STR      r0,[sp,#4]
        0x010048a8:    2004        .       MOVS     r0,#4
        0x010048aa:    4669        iF      MOV      r1,sp
        0x010048ac:    7008        .p      STRB     r0,[r1,#0]
        0x010048ae:    4668        hF      MOV      r0,sp
        0x010048b0:    f7fdfc25    ..%.    BL       TIM_Init ; 0x10020fe
        0x010048b4:    2101        .!      MOVS     r1,#1
        0x010048b6:    2004        .       MOVS     r0,#4
        0x010048b8:    f7fdfc54    ..T.    BL       TIM_ModeConfig ; 0x1002164
        0x010048bc:    2100        .!      MOVS     r1,#0
        0x010048be:    2004        .       MOVS     r0,#4
        0x010048c0:    f7fdfbed    ....    BL       TIM_Cmd ; 0x100209e
        0x010048c4:    2011        .       MOVS     r0,#0x11
        0x010048c6:    f7fbfde8    ....    BL       NVIC_EnableIRQ ; 0x100049a
        0x010048ca:    2101        .!      MOVS     r1,#1
        0x010048cc:    2011        .       MOVS     r0,#0x11
        0x010048ce:    f7fbfda1    ....    BL       NVIC_SetPriority ; 0x1000414
        0x010048d2:    bd1c        ..      POP      {r2-r4,pc}
    hal_print_tp_init
        0x010048d4:    b500        ..      PUSH     {lr}
        0x010048d6:    b085        ..      SUB      sp,sp,#0x14
        0x010048d8:    2101        .!      MOVS     r1,#1
        0x010048da:    03c9        ..      LSLS     r1,r1,#15
        0x010048dc:    4668        hF      MOV      r0,sp
        0x010048de:    8201        ..      STRH     r1,[r0,#0x10]
        0x010048e0:    2105        .!      MOVS     r1,#5
        0x010048e2:    7481        .t      STRB     r1,[r0,#0x12]
        0x010048e4:    a904        ..      ADD      r1,sp,#0x10
        0x010048e6:    2000        .       MOVS     r0,#0
        0x010048e8:    f7fbffee    ....    BL       GPIO_Init ; 0x10008c8
        0x010048ec:    2101        .!      MOVS     r1,#1
        0x010048ee:    03c9        ..      LSLS     r1,r1,#15
        0x010048f0:    2000        .       MOVS     r0,#0
        0x010048f2:    f7fcf9e7    ....    BL       GPIO_SetBits ; 0x1000cc4
        0x010048f6:    2104        .!      MOVS     r1,#4
        0x010048f8:    4668        hF      MOV      r0,sp
        0x010048fa:    8201        ..      STRH     r1,[r0,#0x10]
        0x010048fc:    2105        .!      MOVS     r1,#5
        0x010048fe:    7481        .t      STRB     r1,[r0,#0x12]
        0x01004900:    a904        ..      ADD      r1,sp,#0x10
        0x01004902:    2001        .       MOVS     r0,#1
        0x01004904:    f7fbffe0    ....    BL       GPIO_Init ; 0x10008c8
        0x01004908:    2104        .!      MOVS     r1,#4
        0x0100490a:    2001        .       MOVS     r0,#1
        0x0100490c:    f7fcf965    ..e.    BL       GPIO_ResetBits ; 0x1000bda
        0x01004910:    20ff        .       MOVS     r0,#0xff
        0x01004912:    30e1        .0      ADDS     r0,r0,#0xe1
        0x01004914:    9003        ..      STR      r0,[sp,#0xc]
        0x01004916:    2105        .!      MOVS     r1,#5
        0x01004918:    4668        hF      MOV      r0,sp
        0x0100491a:    7201        .r      STRB     r1,[r0,#8]
        0x0100491c:    a802        ..      ADD      r0,sp,#8
        0x0100491e:    f7fdfbee    ....    BL       TIM_Init ; 0x10020fe
        0x01004922:    2101        .!      MOVS     r1,#1
        0x01004924:    2005        .       MOVS     r0,#5
        0x01004926:    f7fdfc1d    ....    BL       TIM_ModeConfig ; 0x1002164
        0x0100492a:    2100        .!      MOVS     r1,#0
        0x0100492c:    2005        .       MOVS     r0,#5
        0x0100492e:    f7fdfbb6    ....    BL       TIM_Cmd ; 0x100209e
        0x01004932:    2012        .       MOVS     r0,#0x12
        0x01004934:    f7fbfdb1    ....    BL       NVIC_EnableIRQ ; 0x100049a
        0x01004938:    2100        .!      MOVS     r1,#0
        0x0100493a:    2012        .       MOVS     r0,#0x12
        0x0100493c:    f7fbfd6a    ..j.    BL       NVIC_SetPriority ; 0x1000414
        0x01004940:    221a        ."      MOVS     r2,#0x1a
        0x01004942:    2102        .!      MOVS     r1,#2
        0x01004944:    2001        .       MOVS     r0,#1
        0x01004946:    f7fbff77    ..w.    BL       GPIO_Config ; 0x1000838
        0x0100494a:    2219        ."      MOVS     r2,#0x19
        0x0100494c:    2101        .!      MOVS     r1,#1
        0x0100494e:    4608        .F      MOV      r0,r1
        0x01004950:    f7fbff72    ..r.    BL       GPIO_Config ; 0x1000838
        0x01004954:    2100        .!      MOVS     r1,#0
        0x01004956:    4668        hF      MOV      r0,sp
        0x01004958:    7001        .p      STRB     r1,[r0,#0]
        0x0100495a:    2104        .!      MOVS     r1,#4
        0x0100495c:    70c1        .p      STRB     r1,[r0,#3]
        0x0100495e:    2100        .!      MOVS     r1,#0
        0x01004960:    7081        .p      STRB     r1,[r0,#2]
        0x01004962:    7041        Ap      STRB     r1,[r0,#1]
        0x01004964:    2101        .!      MOVS     r1,#1
        0x01004966:    7101        .q      STRB     r1,[r0,#4]
        0x01004968:    4669        iF      MOV      r1,sp
        0x0100496a:    2001        .       MOVS     r0,#1
        0x0100496c:    f7fdfd2c    ..,.    BL       SPI_Init ; 0x10023c8
        0x01004970:    b005        ..      ADD      sp,sp,#0x14
        0x01004972:    bd00        ..      POP      {pc}
    hal_print_init
        0x01004974:    b510        ..      PUSH     {r4,lr}
        0x01004976:    f7ffff31    ..1.    BL       hal_print_motor_spwm_init ; 0x10047dc
        0x0100497a:    f7ffff92    ....    BL       hal_print_motor_speed_init ; 0x10048a2
        0x0100497e:    f7ffffa9    ....    BL       hal_print_tp_init ; 0x10048d4
        0x01004982:    2000        .       MOVS     r0,#0
        0x01004984:    bd10        ..      POP      {r4,pc}
    TIMER4_IRQHandler
        0x01004986:    b510        ..      PUSH     {r4,lr}
        0x01004988:    f001fa0c    ....    BL       middle_print_motor_spwm_handle ; 0x1005da4
        0x0100498c:    bd10        ..      POP      {r4,pc}
    TIMER5_IRQHandler
        0x0100498e:    b510        ..      PUSH     {r4,lr}
        0x01004990:    f001fb31    ..1.    BL       middle_print_heat_haddle ; 0x1005ff6
        0x01004994:    bd10        ..      POP      {r4,pc}
    $d
        0x01004996:    0000        ..      DCW    0
        0x01004998:    000f8900    ....    DCD    1018112
        0x0100499c:    000f0c00    ....    DCD    986112
    $t
    .text
    hal_systick_time
        0x010049a0:    4814        .H      LDR      r0,[pc,#80] ; [0x10049f4] = 0x2004c
        0x010049a2:    6800        .h      LDR      r0,[r0,#0]
        0x010049a4:    4770        pG      BX       lr
    hal_systick_delay
        0x010049a6:    4602        .F      MOV      r2,r0
        0x010049a8:    4812        .H      LDR      r0,[pc,#72] ; [0x10049f4] = 0x2004c
        0x010049aa:    6801        .h      LDR      r1,[r0,#0]
        0x010049ac:    bf00        ..      NOP      
        0x010049ae:    4811        .H      LDR      r0,[pc,#68] ; [0x10049f4] = 0x2004c
        0x010049b0:    6800        .h      LDR      r0,[r0,#0]
        0x010049b2:    1a40        @.      SUBS     r0,r0,r1
        0x010049b4:    237d        }#      MOVS     r3,#0x7d
        0x010049b6:    00db        ..      LSLS     r3,r3,#3
        0x010049b8:    4298        .B      CMP      r0,r3
        0x010049ba:    d3f8        ..      BCC      0x10049ae ; hal_systick_delay + 8
        0x010049bc:    2000        .       MOVS     r0,#0
        0x010049be:    4770        pG      BX       lr
    hal_systick_init
        0x010049c0:    b570        p.      PUSH     {r4-r6,lr}
        0x010049c2:    480d        .H      LDR      r0,[pc,#52] ; [0x10049f8] = 0xf8540
        0x010049c4:    6a00        .j      LDR      r0,[r0,#0x20]
        0x010049c6:    0700        ..      LSLS     r0,r0,#28
        0x010049c8:    0f00        ..      LSRS     r0,r0,#28
        0x010049ca:    1c81        ..      ADDS     r1,r0,#2
        0x010049cc:    480b        .H      LDR      r0,[pc,#44] ; [0x10049fc] = 0xb71b000
        0x010049ce:    f001fe0b    ....    BL       __aeabi_idiv ; 0x10065e8
        0x010049d2:    4605        .F      MOV      r5,r0
        0x010049d4:    217d        }!      MOVS     r1,#0x7d
        0x010049d6:    00c9        ..      LSLS     r1,r1,#3
        0x010049d8:    f001fe06    ....    BL       __aeabi_idiv ; 0x10065e8
        0x010049dc:    4604        .F      MOV      r4,r0
        0x010049de:    f7fdf81f    ....    BL       SysTick_Config ; 0x1001a20
        0x010049e2:    2000        .       MOVS     r0,#0
        0x010049e4:    bd70        p.      POP      {r4-r6,pc}
    SYSTICK_IRQHandler
        0x010049e6:    4803        .H      LDR      r0,[pc,#12] ; [0x10049f4] = 0x2004c
        0x010049e8:    6800        .h      LDR      r0,[r0,#0]
        0x010049ea:    1c40        @.      ADDS     r0,r0,#1
        0x010049ec:    4901        .I      LDR      r1,[pc,#4] ; [0x10049f4] = 0x2004c
        0x010049ee:    6008        .`      STR      r0,[r1,#0]
        0x010049f0:    4770        pG      BX       lr
    $d
        0x010049f2:    0000        ..      DCW    0
        0x010049f4:    0002004c    L...    DCD    131148
        0x010049f8:    000f8540    @...    DCD    1017152
        0x010049fc:    0b71b000    ..q.    DCD    192000000
    $t
    .text
    hal_adc_init
        0x01004a00:    b508        ..      PUSH     {r3,lr}
        0x01004a02:    22c0        ."      MOVS     r2,#0xc0
        0x01004a04:    2101        .!      MOVS     r1,#1
        0x01004a06:    0289        ..      LSLS     r1,r1,#10
        0x01004a08:    2002        .       MOVS     r0,#2
        0x01004a0a:    f7fbff15    ....    BL       GPIO_Config ; 0x1000838
        0x01004a0e:    2106        .!      MOVS     r1,#6
        0x01004a10:    4668        hF      MOV      r0,sp
        0x01004a12:    7001        .p      STRB     r1,[r0,#0]
        0x01004a14:    2100        .!      MOVS     r1,#0
        0x01004a16:    7041        Ap      STRB     r1,[r0,#1]
        0x01004a18:    f7fdf8a2    ....    BL       ADC_Init ; 0x1001b60
        0x01004a1c:    2000        .       MOVS     r0,#0
        0x01004a1e:    bd08        ..      POP      {r3,pc}
    .text
    hal_time_period_execute_register
        0x01004a20:    4601        .F      MOV      r1,r0
        0x01004a22:    4813        .H      LDR      r0,[pc,#76] ; [0x1004a70] = 0x20050
        0x01004a24:    6001        .`      STR      r1,[r0,#0]
        0x01004a26:    2000        .       MOVS     r0,#0
        0x01004a28:    4770        pG      BX       lr
    hal_time_init
        0x01004a2a:    b51c        ..      PUSH     {r2-r4,lr}
        0x01004a2c:    4811        .H      LDR      r0,[pc,#68] ; [0x1004a74] = 0xbb80
        0x01004a2e:    9001        ..      STR      r0,[sp,#4]
        0x01004a30:    2006        .       MOVS     r0,#6
        0x01004a32:    4669        iF      MOV      r1,sp
        0x01004a34:    7008        .p      STRB     r0,[r1,#0]
        0x01004a36:    4668        hF      MOV      r0,sp
        0x01004a38:    f7fdfb61    ..a.    BL       TIM_Init ; 0x10020fe
        0x01004a3c:    2101        .!      MOVS     r1,#1
        0x01004a3e:    2006        .       MOVS     r0,#6
        0x01004a40:    f7fdfb90    ....    BL       TIM_ModeConfig ; 0x1002164
        0x01004a44:    2101        .!      MOVS     r1,#1
        0x01004a46:    2006        .       MOVS     r0,#6
        0x01004a48:    f7fdfb29    ..).    BL       TIM_Cmd ; 0x100209e
        0x01004a4c:    2013        .       MOVS     r0,#0x13
        0x01004a4e:    f7fbfd24    ..$.    BL       NVIC_EnableIRQ ; 0x100049a
        0x01004a52:    2104        .!      MOVS     r1,#4
        0x01004a54:    2013        .       MOVS     r0,#0x13
        0x01004a56:    f7fbfcdd    ....    BL       NVIC_SetPriority ; 0x1000414
        0x01004a5a:    2000        .       MOVS     r0,#0
        0x01004a5c:    bd1c        ..      POP      {r2-r4,pc}
    TIMER6_IRQHandler
        0x01004a5e:    b510        ..      PUSH     {r4,lr}
        0x01004a60:    4803        .H      LDR      r0,[pc,#12] ; [0x1004a70] = 0x20050
        0x01004a62:    6800        .h      LDR      r0,[r0,#0]
        0x01004a64:    2800        .(      CMP      r0,#0
        0x01004a66:    d002        ..      BEQ      0x1004a6e ; TIMER6_IRQHandler + 16
        0x01004a68:    4801        .H      LDR      r0,[pc,#4] ; [0x1004a70] = 0x20050
        0x01004a6a:    6800        .h      LDR      r0,[r0,#0]
        0x01004a6c:    4780        .G      BLX      r0
        0x01004a6e:    bd10        ..      POP      {r4,pc}
    $d
        0x01004a70:    00020050    P...    DCD    131152
        0x01004a74:    0000bb80    ....    DCD    48000
    $t
    .text
    hal_button_progress
        0x01004a78:    b510        ..      PUSH     {r4,lr}
        0x01004a7a:    4814        .H      LDR      r0,[pc,#80] ; [0x1004acc] = 0x20054
        0x01004a7c:    6800        .h      LDR      r0,[r0,#0]
        0x01004a7e:    2800        .(      CMP      r0,#0
        0x01004a80:    d012        ..      BEQ      0x1004aa8 ; hal_button_progress + 48
        0x01004a82:    4812        .H      LDR      r0,[pc,#72] ; [0x1004acc] = 0x20054
        0x01004a84:    6800        .h      LDR      r0,[r0,#0]
        0x01004a86:    1c40        @.      ADDS     r0,r0,#1
        0x01004a88:    4910        .I      LDR      r1,[pc,#64] ; [0x1004acc] = 0x20054
        0x01004a8a:    6008        .`      STR      r0,[r1,#0]
        0x01004a8c:    4608        .F      MOV      r0,r1
        0x01004a8e:    6800        .h      LDR      r0,[r0,#0]
        0x01004a90:    2864        d(      CMP      r0,#0x64
        0x01004a92:    dd10        ..      BLE      0x1004ab6 ; hal_button_progress + 62
        0x01004a94:    2000        .       MOVS     r0,#0
        0x01004a96:    6008        .`      STR      r0,[r1,#0]
        0x01004a98:    f7fef920    .. .    BL       Power_Keyscan ; 0x1002cdc
        0x01004a9c:    2800        .(      CMP      r0,#0
        0x01004a9e:    d00a        ..      BEQ      0x1004ab6 ; hal_button_progress + 62
        0x01004aa0:    2001        .       MOVS     r0,#1
        0x01004aa2:    490b        .I      LDR      r1,[pc,#44] ; [0x1004ad0] = 0x20058
        0x01004aa4:    6008        .`      STR      r0,[r1,#0]
        0x01004aa6:    e006        ..      B        0x1004ab6 ; hal_button_progress + 62
        0x01004aa8:    f7fef918    ....    BL       Power_Keyscan ; 0x1002cdc
        0x01004aac:    2800        .(      CMP      r0,#0
        0x01004aae:    d002        ..      BEQ      0x1004ab6 ; hal_button_progress + 62
        0x01004ab0:    2001        .       MOVS     r0,#1
        0x01004ab2:    4906        .I      LDR      r1,[pc,#24] ; [0x1004acc] = 0x20054
        0x01004ab4:    6008        .`      STR      r0,[r1,#0]
        0x01004ab6:    2000        .       MOVS     r0,#0
        0x01004ab8:    bd10        ..      POP      {r4,pc}
    hal_button_value
        0x01004aba:    4905        .I      LDR      r1,[pc,#20] ; [0x1004ad0] = 0x20058
        0x01004abc:    6808        .h      LDR      r0,[r1,#0]
        0x01004abe:    2100        .!      MOVS     r1,#0
        0x01004ac0:    4a03        .J      LDR      r2,[pc,#12] ; [0x1004ad0] = 0x20058
        0x01004ac2:    6011        .`      STR      r1,[r2,#0]
        0x01004ac4:    4770        pG      BX       lr
    hal_button_init
        0x01004ac6:    2000        .       MOVS     r0,#0
        0x01004ac8:    4770        pG      BX       lr
    $d
        0x01004aca:    0000        ..      DCW    0
        0x01004acc:    00020054    T...    DCD    131156
        0x01004ad0:    00020058    X...    DCD    131160
    $t
    .text
    hal_led_init
        0x01004ad4:    b508        ..      PUSH     {r3,lr}
        0x01004ad6:    2180        .!      MOVS     r1,#0x80
        0x01004ad8:    4668        hF      MOV      r0,sp
        0x01004ada:    8001        ..      STRH     r1,[r0,#0]
        0x01004adc:    2105        .!      MOVS     r1,#5
        0x01004ade:    7081        .p      STRB     r1,[r0,#2]
        0x01004ae0:    4669        iF      MOV      r1,sp
        0x01004ae2:    2002        .       MOVS     r0,#2
        0x01004ae4:    f7fbfef0    ....    BL       GPIO_Init ; 0x10008c8
        0x01004ae8:    2180        .!      MOVS     r1,#0x80
        0x01004aea:    2002        .       MOVS     r0,#2
        0x01004aec:    f7fcf8ea    ....    BL       GPIO_SetBits ; 0x1000cc4
        0x01004af0:    2000        .       MOVS     r0,#0
        0x01004af2:    bd08        ..      POP      {r3,pc}
    .text
    hal_init
        0x01004af4:    b510        ..      PUSH     {r4,lr}
        0x01004af6:    2000        .       MOVS     r0,#0
        0x01004af8:    f7fdfa42    ..B.    BL       SYSCTRL_HCLKConfig ; 0x1001f80
        0x01004afc:    f7ffff60    ..`.    BL       hal_systick_init ; 0x10049c0
        0x01004b00:    f7fffddd    ....    BL       hal_log_init ; 0x10046be
        0x01004b04:    a008        ..      ADR      r0,{pc}+0x24 ; 0x1004b28
        0x01004b06:    f7fffdb3    ....    BL       hal_log_printf ; 0x1004670
        0x01004b0a:    f7ffffe3    ....    BL       hal_led_init ; 0x1004ad4
        0x01004b0e:    f7ffff31    ..1.    BL       hal_print_init ; 0x1004974
        0x01004b12:    f7ffff75    ..u.    BL       hal_adc_init ; 0x1004a00
        0x01004b16:    f7ffffd6    ....    BL       hal_button_init ; 0x1004ac6
        0x01004b1a:    f7ffff86    ....    BL       hal_time_init ; 0x1004a2a
        0x01004b1e:    f000f80d    ....    BL       hal_bt_init ; 0x1004b3c
        0x01004b22:    2000        .       MOVS     r0,#0
        0x01004b24:    bd10        ..      POP      {r4,pc}
    $d
        0x01004b26:    0000        ..      DCW    0
        0x01004b28:    6f6c6168    halo    DCD    1869373800
        0x01004b2c:    69727020     pri    DCD    1769107488
        0x01004b30:    7265746e    nter    DCD    1919251566
        0x01004b34:    2e2e2e20     ...    DCD    774778400
        0x01004b38:    00000a0d    ....    DCD    2573
    $t
    .text
    hal_bt_init
        0x01004b3c:    b530        0.      PUSH     {r4,r5,lr}
        0x01004b3e:    b087        ..      SUB      sp,sp,#0x1c
        0x01004b40:    4b6d        mK      LDR      r3,[pc,#436] ; [0x1004cf8] = 0x1008264
        0x01004b42:    cb0f        ..      LDM      r3,{r0-r3}
        0x01004b44:    ac03        ..      ADD      r4,sp,#0xc
        0x01004b46:    c40f        ..      STM      r4!,{r0-r3}
        0x01004b48:    a16c        l.      ADR      r1,{pc}+0x1b4 ; 0x1004cfc
        0x01004b4a:    c903        ..      LDM      r1,{r0,r1}
        0x01004b4c:    9102        ..      STR      r1,[sp,#8]
        0x01004b4e:    9001        ..      STR      r0,[sp,#4]
        0x01004b50:    f7fef99a    ....    BL       BT_Init ; 0x1002e88
        0x01004b54:    200b        .       MOVS     r0,#0xb
        0x01004b56:    496b        kI      LDR      r1,[pc,#428] ; [0x1004d04] = 0xe000e100
        0x01004b58:    6809        .h      LDR      r1,[r1,#0]
        0x01004b5a:    2201        ."      MOVS     r2,#1
        0x01004b5c:    4082        .@      LSLS     r2,r2,r0
        0x01004b5e:    4311        .C      ORRS     r1,r1,r2
        0x01004b60:    4a68        hJ      LDR      r2,[pc,#416] ; [0x1004d04] = 0xe000e100
        0x01004b62:    6011        .`      STR      r1,[r2,#0]
        0x01004b64:    bf00        ..      NOP      
        0x01004b66:    210e        .!      MOVS     r1,#0xe
        0x01004b68:    a803        ..      ADD      r0,sp,#0xc
        0x01004b6a:    f7fefaa0    ....    BL       BT_SetBleName ; 0x10030ae
        0x01004b6e:    2801        .(      CMP      r0,#1
        0x01004b70:    d106        ..      BNE      0x1004b80 ; hal_bt_init + 68
        0x01004b72:    ab03        ..      ADD      r3,sp,#0xc
        0x01004b74:    a264        d.      ADR      r2,{pc}+0x194 ; 0x1004d08
        0x01004b76:    a166        f.      ADR      r1,{pc}+0x19a ; 0x1004d10
        0x01004b78:    a066        f.      ADR      r0,{pc}+0x19c ; 0x1004d14
        0x01004b7a:    f7fffd79    ..y.    BL       hal_log_printf ; 0x1004670
        0x01004b7e:    e004        ..      B        0x1004b8a ; hal_bt_init + 78
        0x01004b80:    a261        a.      ADR      r2,{pc}+0x188 ; 0x1004d08
        0x01004b82:    a163        c.      ADR      r1,{pc}+0x18e ; 0x1004d10
        0x01004b84:    a06e        n.      ADR      r0,{pc}+0x1bc ; 0x1004d40
        0x01004b86:    f7fffd73    ..s.    BL       hal_log_printf ; 0x1004670
        0x01004b8a:    210e        .!      MOVS     r1,#0xe
        0x01004b8c:    a803        ..      ADD      r0,sp,#0xc
        0x01004b8e:    f7fefa65    ..e.    BL       BT_SetBtName ; 0x100305c
        0x01004b92:    2801        .(      CMP      r0,#1
        0x01004b94:    d105        ..      BNE      0x1004ba2 ; hal_bt_init + 102
        0x01004b96:    a25c        \.      ADR      r2,{pc}+0x172 ; 0x1004d08
        0x01004b98:    a15d        ].      ADR      r1,{pc}+0x178 ; 0x1004d10
        0x01004b9a:    a072        r.      ADR      r0,{pc}+0x1ca ; 0x1004d64
        0x01004b9c:    f7fffd68    ..h.    BL       hal_log_printf ; 0x1004670
        0x01004ba0:    e004        ..      B        0x1004bac ; hal_bt_init + 112
        0x01004ba2:    a259        Y.      ADR      r2,{pc}+0x166 ; 0x1004d08
        0x01004ba4:    a15a        Z.      ADR      r1,{pc}+0x16c ; 0x1004d10
        0x01004ba6:    a077        w.      ADR      r0,{pc}+0x1de ; 0x1004d84
        0x01004ba8:    f7fffd62    ..b.    BL       hal_log_printf ; 0x1004670
        0x01004bac:    a801        ..      ADD      r0,sp,#4
        0x01004bae:    f7fef9eb    ....    BL       BT_SetBleAddr ; 0x1002f88
        0x01004bb2:    2801        .(      CMP      r0,#1
        0x01004bb4:    d105        ..      BNE      0x1004bc2 ; hal_bt_init + 134
        0x01004bb6:    a254        T.      ADR      r2,{pc}+0x152 ; 0x1004d08
        0x01004bb8:    a155        U.      ADR      r1,{pc}+0x158 ; 0x1004d10
        0x01004bba:    a07a        z.      ADR      r0,{pc}+0x1ea ; 0x1004da4
        0x01004bbc:    f7fffd58    ..X.    BL       hal_log_printf ; 0x1004670
        0x01004bc0:    e004        ..      B        0x1004bcc ; hal_bt_init + 144
        0x01004bc2:    a251        Q.      ADR      r2,{pc}+0x146 ; 0x1004d08
        0x01004bc4:    a152        R.      ADR      r1,{pc}+0x14c ; 0x1004d10
        0x01004bc6:    a07f        ..      ADR      r0,{pc}+0x1fe ; 0x1004dc4
        0x01004bc8:    f7fffd52    ..R.    BL       hal_log_printf ; 0x1004670
        0x01004bcc:    a801        ..      ADD      r0,sp,#4
        0x01004bce:    f7fef9b2    ....    BL       BT_SetBtAddr ; 0x1002f36
        0x01004bd2:    2801        .(      CMP      r0,#1
        0x01004bd4:    d105        ..      BNE      0x1004be2 ; hal_bt_init + 166
        0x01004bd6:    a24c        L.      ADR      r2,{pc}+0x132 ; 0x1004d08
        0x01004bd8:    a14d        M.      ADR      r1,{pc}+0x138 ; 0x1004d10
        0x01004bda:    a082        ..      ADR      r0,{pc}+0x20a ; 0x1004de4
        0x01004bdc:    f7fffd48    ..H.    BL       hal_log_printf ; 0x1004670
        0x01004be0:    e004        ..      B        0x1004bec ; hal_bt_init + 176
        0x01004be2:    a249        I.      ADR      r2,{pc}+0x126 ; 0x1004d08
        0x01004be4:    a14a        J.      ADR      r1,{pc}+0x12c ; 0x1004d10
        0x01004be6:    a087        ..      ADR      r0,{pc}+0x21e ; 0x1004e04
        0x01004be8:    f7fffd42    ..B.    BL       hal_log_printf ; 0x1004670
        0x01004bec:    2003        .       MOVS     r0,#3
        0x01004bee:    f7fefb1f    ....    BL       BT_SetParingMode ; 0x1003230
        0x01004bf2:    2801        .(      CMP      r0,#1
        0x01004bf4:    d105        ..      BNE      0x1004c02 ; hal_bt_init + 198
        0x01004bf6:    a244        D.      ADR      r2,{pc}+0x112 ; 0x1004d08
        0x01004bf8:    a145        E.      ADR      r1,{pc}+0x118 ; 0x1004d10
        0x01004bfa:    a08a        ..      ADR      r0,{pc}+0x22a ; 0x1004e24
        0x01004bfc:    f7fffd38    ..8.    BL       hal_log_printf ; 0x1004670
        0x01004c00:    e004        ..      B        0x1004c0c ; hal_bt_init + 208
        0x01004c02:    a241        A.      ADR      r2,{pc}+0x106 ; 0x1004d08
        0x01004c04:    a142        B.      ADR      r1,{pc}+0x10c ; 0x1004d10
        0x01004c06:    a092        ..      ADR      r0,{pc}+0x24a ; 0x1004e50
        0x01004c08:    f7fffd32    ..2.    BL       hal_log_printf ; 0x1004670
        0x01004c0c:    489b        .H      LDR      r0,[pc,#620] ; [0x1004e7c] = 0x1008241
        0x01004c0e:    f7fefdd9    ....    BL       BT_SetCOD ; 0x10037c4
        0x01004c12:    2801        .(      CMP      r0,#1
        0x01004c14:    d105        ..      BNE      0x1004c22 ; hal_bt_init + 230
        0x01004c16:    a23c        <.      ADR      r2,{pc}+0xf2 ; 0x1004d08
        0x01004c18:    a13d        =.      ADR      r1,{pc}+0xf8 ; 0x1004d10
        0x01004c1a:    a099        ..      ADR      r0,{pc}+0x266 ; 0x1004e80
        0x01004c1c:    f7fffd28    ..(.    BL       hal_log_printf ; 0x1004670
        0x01004c20:    e004        ..      B        0x1004c2c ; hal_bt_init + 240
        0x01004c22:    a239        9.      ADR      r2,{pc}+0xe6 ; 0x1004d08
        0x01004c24:    a13a        :.      ADR      r1,{pc}+0xec ; 0x1004d10
        0x01004c26:    a09e        ..      ADR      r0,{pc}+0x27a ; 0x1004ea0
        0x01004c28:    f7fffd22    ..".    BL       hal_log_printf ; 0x1004670
        0x01004c2c:    f7fefdf3    ....    BL       BT_DeleteService ; 0x1003816
        0x01004c30:    2801        .(      CMP      r0,#1
        0x01004c32:    d105        ..      BNE      0x1004c40 ; hal_bt_init + 260
        0x01004c34:    a234        4.      ADR      r2,{pc}+0xd4 ; 0x1004d08
        0x01004c36:    a136        6.      ADR      r1,{pc}+0xda ; 0x1004d10
        0x01004c38:    a0a1        ..      ADR      r0,{pc}+0x288 ; 0x1004ec0
        0x01004c3a:    f7fffd19    ....    BL       hal_log_printf ; 0x1004670
        0x01004c3e:    e004        ..      B        0x1004c4a ; hal_bt_init + 270
        0x01004c40:    a231        1.      ADR      r2,{pc}+0xc8 ; 0x1004d08
        0x01004c42:    a133        3.      ADR      r1,{pc}+0xce ; 0x1004d10
        0x01004c44:    a0a8        ..      ADR      r0,{pc}+0x2a4 ; 0x1004ee8
        0x01004c46:    f7fffd13    ....    BL       hal_log_printf ; 0x1004670
        0x01004c4a:    2111        .!      MOVS     r1,#0x11
        0x01004c4c:    48b0        .H      LDR      r0,[pc,#704] ; [0x1004f10] = 0x10081f4
        0x01004c4e:    f7fefe0a    ....    BL       BT_AddBleService ; 0x1003866
        0x01004c52:    4604        .F      MOV      r4,r0
        0x01004c54:    2c00        .,      CMP      r4,#0
        0x01004c56:    d006        ..      BEQ      0x1004c66 ; hal_bt_init + 298
        0x01004c58:    4623        #F      MOV      r3,r4
        0x01004c5a:    a22b        +.      ADR      r2,{pc}+0xae ; 0x1004d08
        0x01004c5c:    a12c        ,.      ADR      r1,{pc}+0xb4 ; 0x1004d10
        0x01004c5e:    a0ad        ..      ADR      r0,{pc}+0x2b6 ; 0x1004f14
        0x01004c60:    f7fffd06    ....    BL       hal_log_printf ; 0x1004670
        0x01004c64:    e005        ..      B        0x1004c72 ; hal_bt_init + 310
        0x01004c66:    4623        #F      MOV      r3,r4
        0x01004c68:    a227        '.      ADR      r2,{pc}+0xa0 ; 0x1004d08
        0x01004c6a:    a129        ).      ADR      r1,{pc}+0xa6 ; 0x1004d10
        0x01004c6c:    a0b5        ..      ADR      r0,{pc}+0x2d8 ; 0x1004f44
        0x01004c6e:    f7fffcff    ....    BL       hal_log_printf ; 0x1004670
        0x01004c72:    2114        .!      MOVS     r1,#0x14
        0x01004c74:    48bf        .H      LDR      r0,[pc,#764] ; [0x1004f74] = 0x1008205
        0x01004c76:    f7fefe24    ..$.    BL       BT_AddBleCharacteristic ; 0x10038c2
        0x01004c7a:    49bf        .I      LDR      r1,[pc,#764] ; [0x1004f78] = 0x2005c
        0x01004c7c:    8008        ..      STRH     r0,[r1,#0]
        0x01004c7e:    4608        .F      MOV      r0,r1
        0x01004c80:    8800        ..      LDRH     r0,[r0,#0]
        0x01004c82:    2800        .(      CMP      r0,#0
        0x01004c84:    d007        ..      BEQ      0x1004c96 ; hal_bt_init + 346
        0x01004c86:    4608        .F      MOV      r0,r1
        0x01004c88:    8803        ..      LDRH     r3,[r0,#0]
        0x01004c8a:    a21f        ..      ADR      r2,{pc}+0x7e ; 0x1004d08
        0x01004c8c:    a120         .      ADR      r1,{pc}+0x84 ; 0x1004d10
        0x01004c8e:    a0bb        ..      ADR      r0,{pc}+0x2ee ; 0x1004f7c
        0x01004c90:    f7fffcee    ....    BL       hal_log_printf ; 0x1004670
        0x01004c94:    e006        ..      B        0x1004ca4 ; hal_bt_init + 360
        0x01004c96:    48b8        .H      LDR      r0,[pc,#736] ; [0x1004f78] = 0x2005c
        0x01004c98:    8803        ..      LDRH     r3,[r0,#0]
        0x01004c9a:    a21b        ..      ADR      r2,{pc}+0x6e ; 0x1004d08
        0x01004c9c:    a11c        ..      ADR      r1,{pc}+0x74 ; 0x1004d10
        0x01004c9e:    a0c6        ..      ADR      r0,{pc}+0x31a ; 0x1004fb8
        0x01004ca0:    f7fffce6    ....    BL       hal_log_printf ; 0x1004670
        0x01004ca4:    2114        .!      MOVS     r1,#0x14
        0x01004ca6:    48d3        .H      LDR      r0,[pc,#844] ; [0x1004ff4] = 0x1008219
        0x01004ca8:    f7fefe0b    ....    BL       BT_AddBleCharacteristic ; 0x10038c2
        0x01004cac:    4604        .F      MOV      r4,r0
        0x01004cae:    2c00        .,      CMP      r4,#0
        0x01004cb0:    d006        ..      BEQ      0x1004cc0 ; hal_bt_init + 388
        0x01004cb2:    4623        #F      MOV      r3,r4
        0x01004cb4:    a214        ..      ADR      r2,{pc}+0x54 ; 0x1004d08
        0x01004cb6:    a116        ..      ADR      r1,{pc}+0x5a ; 0x1004d10
        0x01004cb8:    a0cf        ..      ADR      r0,{pc}+0x340 ; 0x1004ff8
        0x01004cba:    f7fffcd9    ....    BL       hal_log_printf ; 0x1004670
        0x01004cbe:    e005        ..      B        0x1004ccc ; hal_bt_init + 400
        0x01004cc0:    4623        #F      MOV      r3,r4
        0x01004cc2:    a211        ..      ADR      r2,{pc}+0x46 ; 0x1004d08
        0x01004cc4:    a112        ..      ADR      r1,{pc}+0x4c ; 0x1004d10
        0x01004cc6:    a0db        ..      ADR      r0,{pc}+0x36e ; 0x1005034
        0x01004cc8:    f7fffcd2    ....    BL       hal_log_printf ; 0x1004670
        0x01004ccc:    2114        .!      MOVS     r1,#0x14
        0x01004cce:    48e8        .H      LDR      r0,[pc,#928] ; [0x1005070] = 0x100822d
        0x01004cd0:    f7fefdf7    ....    BL       BT_AddBleCharacteristic ; 0x10038c2
        0x01004cd4:    4604        .F      MOV      r4,r0
        0x01004cd6:    2c00        .,      CMP      r4,#0
        0x01004cd8:    d006        ..      BEQ      0x1004ce8 ; hal_bt_init + 428
        0x01004cda:    4623        #F      MOV      r3,r4
        0x01004cdc:    a20a        ..      ADR      r2,{pc}+0x2c ; 0x1004d08
        0x01004cde:    a10c        ..      ADR      r1,{pc}+0x32 ; 0x1004d10
        0x01004ce0:    a0e4        ..      ADR      r0,{pc}+0x394 ; 0x1005074
        0x01004ce2:    f7fffcc5    ....    BL       hal_log_printf ; 0x1004670
        0x01004ce6:    e005        ..      B        0x1004cf4 ; hal_bt_init + 440
        0x01004ce8:    4623        #F      MOV      r3,r4
        0x01004cea:    a207        ..      ADR      r2,{pc}+0x1e ; 0x1004d08
        0x01004cec:    a108        ..      ADR      r1,{pc}+0x24 ; 0x1004d10
        0x01004cee:    a0f1        ..      ADR      r0,{pc}+0x3c6 ; 0x10050b4
        0x01004cf0:    f7fffcbe    ....    BL       hal_log_printf ; 0x1004670
        0x01004cf4:    211f        .!      MOVS     r1,#0x1f
        0x01004cf6:    e1fd        ..      B        0x10050f4 ; hal_bt_init + 1464
    $d
        0x01004cf8:    01008264    d...    DCD    16810596
        0x01004cfc:    33000000    ...3    DCD    855638016
        0x01004d00:    00001022    "...    DCD    4130
        0x01004d04:    e000e100    ....    DCD    3758153984
        0x01004d08:    204c4148    HAL     DCD    541868360
        0x01004d0c:    00005442    BT..    DCD    21570
        0x01004d10:    00002020      ..    DCD    8224
        0x01004d14:    756c255b    [%lu    DCD    1970021723
        0x01004d18:    257c205d    ] |%    DCD    628891741
        0x01004d1c:    382e382d    -8.8    DCD    942553133
        0x01004d20:    53207c73    s| S    DCD    1394637939
        0x01004d24:    6c427465    etBl    DCD    1816294501
        0x01004d28:    6d614e65    eNam    DCD    1835093605
        0x01004d2c:    75735f65    e_su    DCD    1970495333
        0x01004d30:    6c622063    c bl    DCD    1818370147
        0x01004d34:    616e2065    e na    DCD    1634607205
        0x01004d38:    253a656d    me:%    DCD    624584045
        0x01004d3c:    00000a73    s...    DCD    2675
        0x01004d40:    756c255b    [%lu    DCD    1970021723
        0x01004d44:    257c205d    ] |%    DCD    628891741
        0x01004d48:    382e382d    -8.8    DCD    942553133
        0x01004d4c:    53207c73    s| S    DCD    1394637939
        0x01004d50:    6c427465    etBl    DCD    1816294501
        0x01004d54:    6d614e65    eNam    DCD    1835093605
        0x01004d58:    61665f65    e_fa    DCD    1634099045
        0x01004d5c:    64656c69    iled    DCD    1684368489
        0x01004d60:    0000000a    ....    DCD    10
        0x01004d64:    756c255b    [%lu    DCD    1970021723
        0x01004d68:    257c205d    ] |%    DCD    628891741
        0x01004d6c:    382e382d    -8.8    DCD    942553133
        0x01004d70:    53207c73    s| S    DCD    1394637939
        0x01004d74:    74627465    etbt    DCD    1952609381
        0x01004d78:    656d614e    Name    DCD    1701667150
        0x01004d7c:    6375735f    _suc    DCD    1668641631
        0x01004d80:    0000000a    ....    DCD    10
        0x01004d84:    756c255b    [%lu    DCD    1970021723
        0x01004d88:    257c205d    ] |%    DCD    628891741
        0x01004d8c:    382e382d    -8.8    DCD    942553133
        0x01004d90:    53207c73    s| S    DCD    1394637939
        0x01004d94:    74627465    etbt    DCD    1952609381
        0x01004d98:    656d614e    Name    DCD    1701667150
        0x01004d9c:    6961665f    _fai    DCD    1767990879
        0x01004da0:    00000a6c    l...    DCD    2668
        0x01004da4:    756c255b    [%lu    DCD    1970021723
        0x01004da8:    257c205d    ] |%    DCD    628891741
        0x01004dac:    382e382d    -8.8    DCD    942553133
        0x01004db0:    53207c73    s| S    DCD    1394637939
        0x01004db4:    6c427465    etBl    DCD    1816294501
        0x01004db8:    64644165    eAdd    DCD    1684291941
        0x01004dbc:    75735f72    r_su    DCD    1970495346
        0x01004dc0:    00000a63    c...    DCD    2659
        0x01004dc4:    756c255b    [%lu    DCD    1970021723
        0x01004dc8:    257c205d    ] |%    DCD    628891741
        0x01004dcc:    382e382d    -8.8    DCD    942553133
        0x01004dd0:    53207c73    s| S    DCD    1394637939
        0x01004dd4:    6c427465    etBl    DCD    1816294501
        0x01004dd8:    64644165    eAdd    DCD    1684291941
        0x01004ddc:    61665f72    r_fa    DCD    1634099058
        0x01004de0:    000a6c69    il..    DCD    683113
        0x01004de4:    756c255b    [%lu    DCD    1970021723
        0x01004de8:    257c205d    ] |%    DCD    628891741
        0x01004dec:    382e382d    -8.8    DCD    942553133
        0x01004df0:    53207c73    s| S    DCD    1394637939
        0x01004df4:    74427465    etBt    DCD    1950512229
        0x01004df8:    72646441    Addr    DCD    1919181889
        0x01004dfc:    6375735f    _suc    DCD    1668641631
        0x01004e00:    0000000a    ....    DCD    10
        0x01004e04:    756c255b    [%lu    DCD    1970021723
        0x01004e08:    257c205d    ] |%    DCD    628891741
        0x01004e0c:    382e382d    -8.8    DCD    942553133
        0x01004e10:    53207c73    s| S    DCD    1394637939
        0x01004e14:    74427465    etBt    DCD    1950512229
        0x01004e18:    72646441    Addr    DCD    1919181889
        0x01004e1c:    6961665f    _fai    DCD    1767990879
        0x01004e20:    00000a6c    l...    DCD    2668
        0x01004e24:    756c255b    [%lu    DCD    1970021723
        0x01004e28:    257c205d    ] |%    DCD    628891741
        0x01004e2c:    382e382d    -8.8    DCD    942553133
        0x01004e30:    73207c73    s| s    DCD    1931508851
        0x01004e34:    63207465    et c    DCD    1663071333
        0x01004e38:    69666e6f    onfi    DCD    1768320623
        0x01004e3c:    656b6d72    rmke    DCD    1701539186
        0x01004e40:    6f6d2079    y mo    DCD    1869422713
        0x01004e44:    73206564    de s    DCD    1931502948
        0x01004e48:    65636375    ucce    DCD    1701012341
        0x01004e4c:    000a7373    ss..    DCD    684915
        0x01004e50:    756c255b    [%lu    DCD    1970021723
        0x01004e54:    257c205d    ] |%    DCD    628891741
        0x01004e58:    382e382d    -8.8    DCD    942553133
        0x01004e5c:    73207c73    s| s    DCD    1931508851
        0x01004e60:    63207465    et c    DCD    1663071333
        0x01004e64:    69666e6f    onfi    DCD    1768320623
        0x01004e68:    656b6d72    rmke    DCD    1701539186
        0x01004e6c:    6f6d2079    y mo    DCD    1869422713
        0x01004e70:    66206564    de f    DCD    1713399140
        0x01004e74:    656c6961    aile    DCD    1701603681
        0x01004e78:    00000a64    d...    DCD    2660
        0x01004e7c:    01008241    A...    DCD    16810561
        0x01004e80:    756c255b    [%lu    DCD    1970021723
        0x01004e84:    257c205d    ] |%    DCD    628891741
        0x01004e88:    382e382d    -8.8    DCD    942553133
        0x01004e8c:    73207c73    s| s    DCD    1931508851
        0x01004e90:    43207465    et C    DCD    1126200421
        0x01004e94:    7320444f    OD s    DCD    1931494479
        0x01004e98:    73656375    uces    DCD    1936024437
        0x01004e9c:    00000a73    s...    DCD    2675
        0x01004ea0:    756c255b    [%lu    DCD    1970021723
        0x01004ea4:    257c205d    ] |%    DCD    628891741
        0x01004ea8:    382e382d    -8.8    DCD    942553133
        0x01004eac:    73207c73    s| s    DCD    1931508851
        0x01004eb0:    43207465    et C    DCD    1126200421
        0x01004eb4:    6620444f    OD f    DCD    1713390671
        0x01004eb8:    656c6961    aile    DCD    1701603681
        0x01004ebc:    00000a64    d...    DCD    2660
        0x01004ec0:    756c255b    [%lu    DCD    1970021723
        0x01004ec4:    257c205d    ] |%    DCD    628891741
        0x01004ec8:    382e382d    -8.8    DCD    942553133
        0x01004ecc:    64207c73    s| d    DCD    1679850611
        0x01004ed0:    74656c65    elet    DCD    1952803941
        0x01004ed4:    65732065    e se    DCD    1702043749
        0x01004ed8:    63697672    rvic    DCD    1667855986
        0x01004edc:    75732065    e su    DCD    1970479205
        0x01004ee0:    73736563    cess    DCD    1936942435
        0x01004ee4:    0000000a    ....    DCD    10
        0x01004ee8:    756c255b    [%lu    DCD    1970021723
        0x01004eec:    257c205d    ] |%    DCD    628891741
        0x01004ef0:    382e382d    -8.8    DCD    942553133
        0x01004ef4:    64207c73    s| d    DCD    1679850611
        0x01004ef8:    74656c65    elet    DCD    1952803941
        0x01004efc:    65732065    e se    DCD    1702043749
        0x01004f00:    63697672    rvic    DCD    1667855986
        0x01004f04:    61662065    e fa    DCD    1634082917
        0x01004f08:    64656c69    iled    DCD    1684368489
        0x01004f0c:    0000000a    ....    DCD    10
        0x01004f10:    010081f4    ....    DCD    16810484
        0x01004f14:    756c255b    [%lu    DCD    1970021723
        0x01004f18:    257c205d    ] |%    DCD    628891741
        0x01004f1c:    382e382d    -8.8    DCD    942553133
        0x01004f20:    61207c73    s| a    DCD    1629518963
        0x01004f24:    73206464    dd s    DCD    1931502692
        0x01004f28:    69767265    ervi    DCD    1769370213
        0x01004f2c:    73206563    ce s    DCD    1931502947
        0x01004f30:    73656375    uces    DCD    1936024437
        0x01004f34:    61682c73    s,ha    DCD    1634217075
        0x01004f38:    656c646e    ndle    DCD    1701602414
        0x01004f3c:    3430253d    =%04    DCD    875570493
        0x01004f40:    00000a78    x...    DCD    2680
        0x01004f44:    756c255b    [%lu    DCD    1970021723
        0x01004f48:    257c205d    ] |%    DCD    628891741
        0x01004f4c:    382e382d    -8.8    DCD    942553133
        0x01004f50:    61207c73    s| a    DCD    1629518963
        0x01004f54:    73206464    dd s    DCD    1931502692
        0x01004f58:    69767265    ervi    DCD    1769370213
        0x01004f5c:    66206563    ce f    DCD    1713399139
        0x01004f60:    656c6961    aile    DCD    1701603681
        0x01004f64:    65722c64    d,re    DCD    1701981284
        0x01004f68:    6e727574    turn    DCD    1852994932
        0x01004f6c:    3430253d    =%04    DCD    875570493
        0x01004f70:    00000a78    x...    DCD    2680
        0x01004f74:    01008205    ....    DCD    16810501
        0x01004f78:    0002005c    \...    DCD    131164
        0x01004f7c:    756c255b    [%lu    DCD    1970021723
        0x01004f80:    257c205d    ] |%    DCD    628891741
        0x01004f84:    382e382d    -8.8    DCD    942553133
        0x01004f88:    61207c73    s| a    DCD    1629518963
        0x01004f8c:    43206464    dd C    DCD    1126196324
        0x01004f90:    61726168    hara    DCD    1634885992
        0x01004f94:    72657463    cter    DCD    1919251555
        0x01004f98:    69747369    isti    DCD    1769239401
        0x01004f9c:    78742063    c tx    DCD    2020876387
        0x01004fa0:    63757320     suc    DCD    1668641568
        0x01004fa4:    2c737365    ess,    DCD    745763685
        0x01004fa8:    646e6168    hand    DCD    1684955496
        0x01004fac:    253d656c    le=%    DCD    624780652
        0x01004fb0:    0a783430    04x.    DCD    175649840
        0x01004fb4:    00000000    ....    DCD    0
        0x01004fb8:    756c255b    [%lu    DCD    1970021723
        0x01004fbc:    257c205d    ] |%    DCD    628891741
        0x01004fc0:    382e382d    -8.8    DCD    942553133
        0x01004fc4:    61207c73    s| a    DCD    1629518963
        0x01004fc8:    43206464    dd C    DCD    1126196324
        0x01004fcc:    61726168    hara    DCD    1634885992
        0x01004fd0:    72657463    cter    DCD    1919251555
        0x01004fd4:    69747369    isti    DCD    1769239401
        0x01004fd8:    78742063    c tx    DCD    2020876387
        0x01004fdc:    69616620     fai    DCD    1767990816
        0x01004fe0:    2c64656c    led,    DCD    744777068
        0x01004fe4:    75746572    retu    DCD    1970562418
        0x01004fe8:    253d6e72    rn=%    DCD    624782962
        0x01004fec:    0a783430    04x.    DCD    175649840
        0x01004ff0:    00000000    ....    DCD    0
        0x01004ff4:    01008219    ....    DCD    16810521
        0x01004ff8:    756c255b    [%lu    DCD    1970021723
        0x01004ffc:    257c205d    ] |%    DCD    628891741
        0x01005000:    382e382d    -8.8    DCD    942553133
        0x01005004:    61207c73    s| a    DCD    1629518963
        0x01005008:    43206464    dd C    DCD    1126196324
        0x0100500c:    61726168    hara    DCD    1634885992
        0x01005010:    72657463    cter    DCD    1919251555
        0x01005014:    69747369    isti    DCD    1769239401
        0x01005018:    78722063    c rx    DCD    2020745315
        0x0100501c:    63757320     suc    DCD    1668641568
        0x01005020:    3b737365    ess;    DCD    997421925
        0x01005024:    646e6168    hand    DCD    1684955496
        0x01005028:    253d656c    le=%    DCD    624780652
        0x0100502c:    0a783430    04x.    DCD    175649840
        0x01005030:    00000000    ....    DCD    0
        0x01005034:    756c255b    [%lu    DCD    1970021723
        0x01005038:    257c205d    ] |%    DCD    628891741
        0x0100503c:    382e382d    -8.8    DCD    942553133
        0x01005040:    61207c73    s| a    DCD    1629518963
        0x01005044:    43206464    dd C    DCD    1126196324
        0x01005048:    61726168    hara    DCD    1634885992
        0x0100504c:    72657463    cter    DCD    1919251555
        0x01005050:    69747369    isti    DCD    1769239401
        0x01005054:    78722063    c rx    DCD    2020745315
        0x01005058:    69616620     fai    DCD    1767990816
        0x0100505c:    2c64656c    led,    DCD    744777068
        0x01005060:    75746572    retu    DCD    1970562418
        0x01005064:    253d6e72    rn=%    DCD    624782962
        0x01005068:    0a783430    04x.    DCD    175649840
        0x0100506c:    00000000    ....    DCD    0
        0x01005070:    0100822d    -...    DCD    16810541
        0x01005074:    756c255b    [%lu    DCD    1970021723
        0x01005078:    257c205d    ] |%    DCD    628891741
        0x0100507c:    382e382d    -8.8    DCD    942553133
        0x01005080:    61207c73    s| a    DCD    1629518963
        0x01005084:    43206464    dd C    DCD    1126196324
        0x01005088:    61726168    hara    DCD    1634885992
        0x0100508c:    72657463    cter    DCD    1919251555
        0x01005090:    69747369    isti    DCD    1769239401
        0x01005094:    6c662063    c fl    DCD    1818632291
        0x01005098:    635f776f    ow_c    DCD    1667200879
        0x0100509c:    206c7274    trl     DCD    543978100
        0x010050a0:    65637573    suce    DCD    1701016947
        0x010050a4:    683b7373    ss;h    DCD    1748726643
        0x010050a8:    6c646e61    andl    DCD    1818521185
        0x010050ac:    30253d65    e=%0    DCD    807746917
        0x010050b0:    000a7834    4x..    DCD    686132
        0x010050b4:    756c255b    [%lu    DCD    1970021723
        0x010050b8:    257c205d    ] |%    DCD    628891741
        0x010050bc:    382e382d    -8.8    DCD    942553133
        0x010050c0:    61207c73    s| a    DCD    1629518963
        0x010050c4:    43206464    dd C    DCD    1126196324
        0x010050c8:    61726168    hara    DCD    1634885992
        0x010050cc:    72657463    cter    DCD    1919251555
        0x010050d0:    69747369    isti    DCD    1769239401
        0x010050d4:    6c662063    c fl    DCD    1818632291
        0x010050d8:    635f776f    ow_c    DCD    1667200879
        0x010050dc:    206c7274    trl     DCD    543978100
        0x010050e0:    6c696166    fail    DCD    1818845542
        0x010050e4:    722c6465    ed,r    DCD    1915511909
        0x010050e8:    72757465    etur    DCD    1920300133
        0x010050ec:    30253d6e    n=%0    DCD    807746926
        0x010050f0:    000a7834    4x..    DCD    686132
    $t
        0x010050f4:    48c1        .H      LDR      r0,[pc,#772] ; [0x10053fc] = 0x1008244
        0x010050f6:    f7fefa35    ..5.    BL       BT_SetLEAdvData ; 0x1003564
        0x010050fa:    2801        .(      CMP      r0,#1
        0x010050fc:    d105        ..      BNE      0x100510a ; hal_bt_init + 1486
        0x010050fe:    4ac0        .J      LDR      r2,[pc,#768] ; [0x1005400] = 0x1004d08
        0x01005100:    a1c0        ..      ADR      r1,{pc}+0x304 ; 0x1005404
        0x01005102:    a0c1        ..      ADR      r0,{pc}+0x306 ; 0x1005408
        0x01005104:    f7fffab4    ....    BL       hal_log_printf ; 0x1004670
        0x01005108:    e004        ..      B        0x1005114 ; hal_bt_init + 1496
        0x0100510a:    4abd        .J      LDR      r2,[pc,#756] ; [0x1005400] = 0x1004d08
        0x0100510c:    a1bd        ..      ADR      r1,{pc}+0x2f8 ; 0x1005404
        0x0100510e:    a0c7        ..      ADR      r0,{pc}+0x31e ; 0x100542c
        0x01005110:    f7fffaae    ....    BL       hal_log_printf ; 0x1004670
        0x01005114:    2201        ."      MOVS     r2,#1
        0x01005116:    4611        .F      MOV      r1,r2
        0x01005118:    4610        .F      MOV      r0,r2
        0x0100511a:    f7fdff5e    ..^.    BL       BT_SetVisibility ; 0x1002fda
        0x0100511e:    2801        .(      CMP      r0,#1
        0x01005120:    d105        ..      BNE      0x100512e ; hal_bt_init + 1522
        0x01005122:    4ab7        .J      LDR      r2,[pc,#732] ; [0x1005400] = 0x1004d08
        0x01005124:    a1b7        ..      ADR      r1,{pc}+0x2e0 ; 0x1005404
        0x01005126:    a0ca        ..      ADR      r0,{pc}+0x32a ; 0x1005450
        0x01005128:    f7fffaa2    ....    BL       hal_log_printf ; 0x1004670
        0x0100512c:    e004        ..      B        0x1005138 ; hal_bt_init + 1532
        0x0100512e:    4ab4        .J      LDR      r2,[pc,#720] ; [0x1005400] = 0x1004d08
        0x01005130:    a1b4        ..      ADR      r1,{pc}+0x2d4 ; 0x1005404
        0x01005132:    a0d1        ..      ADR      r0,{pc}+0x346 ; 0x1005478
        0x01005134:    f7fffa9c    ....    BL       hal_log_printf ; 0x1004670
        0x01005138:    f7fef8f5    ....    BL       BT_GetVersion ; 0x1003326
        0x0100513c:    4605        .F      MOV      r5,r0
        0x0100513e:    462b        +F      MOV      r3,r5
        0x01005140:    4aaf        .J      LDR      r2,[pc,#700] ; [0x1005400] = 0x1004d08
        0x01005142:    a1b0        ..      ADR      r1,{pc}+0x2c2 ; 0x1005404
        0x01005144:    a0d6        ..      ADR      r0,{pc}+0x35c ; 0x10054a0
        0x01005146:    f7fffa93    ....    BL       hal_log_printf ; 0x1004670
        0x0100514a:    2000        .       MOVS     r0,#0
        0x0100514c:    b007        ..      ADD      sp,sp,#0x1c
        0x0100514e:    bd30        0.      POP      {r4,r5,pc}
    BT_IRQHandler
        0x01005150:    b510        ..      PUSH     {r4,lr}
        0x01005152:    e001        ..      B        0x1005158 ; BT_IRQHandler + 8
        0x01005154:    f7fefd9a    ....    BL       BT_ParseBTData ; 0x1003c8c
        0x01005158:    f7fdfa50    ..P.    BL       IPC_have_data ; 0x10025fc
        0x0100515c:    2800        .(      CMP      r0,#0
        0x0100515e:    d1f9        ..      BNE      0x1005154 ; BT_IRQHandler + 4
        0x01005160:    48d7        .H      LDR      r0,[pc,#860] ; [0x10054c0] = 0xc8040
        0x01005162:    78c0        .x      LDRB     r0,[r0,#3]
        0x01005164:    2180        .!      MOVS     r1,#0x80
        0x01005166:    4388        .C      BICS     r0,r0,r1
        0x01005168:    49d5        .I      LDR      r1,[pc,#852] ; [0x10054c0] = 0xc8040
        0x0100516a:    70c8        .p      STRB     r0,[r1,#3]
        0x0100516c:    bd10        ..      POP      {r4,pc}
    hal_bt_progress
        0x0100516e:    b570        p.      PUSH     {r4-r6,lr}
        0x01005170:    b0c2        ..      SUB      sp,sp,#0x108
        0x01005172:    f7fff88f    ....    BL       BT_GetEventOpcode ; 0x1004294
        0x01005176:    4605        .F      MOV      r5,r0
        0x01005178:    1c68        h.      ADDS     r0,r5,#1
        0x0100517a:    2816        .(      CMP      r0,#0x16
        0x0100517c:    d271        q.      BCS      0x1005262 ; hal_bt_progress + 244
        0x0100517e:    0043        C.      LSLS     r3,r0,#1
        0x01005180:    447b        {D      ADD      r3,r3,pc
        0x01005182:    889b        ..      LDRH     r3,[r3,#4]
        0x01005184:    005b        [.      LSLS     r3,r3,#1
        0x01005186:    449f        .D      ADD      pc,pc,r3
    $d
        0x01005188:    00a8037f    ....    DCD    11010943
        0x0100518c:    00ae006c    l...    DCD    11403372
        0x01005190:    006c00b4    ..l.    DCD    7078068
        0x01005194:    006c00ba    ..l.    DCD    7078074
        0x01005198:    00570015    ..W.    DCD    5701653
        0x0100519c:    006c006c    l.l.    DCD    7077996
        0x010051a0:    006c006c    l.l.    DCD    7077996
        0x010051a4:    00e100c0    ....    DCD    14745792
        0x010051a8:    0112006c    l...    DCD    17956972
        0x010051ac:    006c0118    ..l.    DCD    7078168
        0x010051b0:    033f006c    l.?.    DCD    54460524
    $t
        0x010051b4:    2400        .$      MOVS     r4,#0
        0x010051b6:    a802        ..      ADD      r0,sp,#8
        0x010051b8:    f7fff89b    ....    BL       BT_ReadBTData ; 0x10042f2
        0x010051bc:    4604        .F      MOV      r4,r0
        0x010051be:    2c00        .,      CMP      r4,#0
        0x010051c0:    dd34        4.      BLE      0x100522c ; hal_bt_progress + 190
        0x010051c2:    4623        #F      MOV      r3,r4
        0x010051c4:    4a8e        .J      LDR      r2,[pc,#568] ; [0x1005400] = 0x1004d08
        0x010051c6:    a18f        ..      ADR      r1,{pc}+0x23e ; 0x1005404
        0x010051c8:    a0be        ..      ADR      r0,{pc}+0x2fc ; 0x10054c4
        0x010051ca:    f7fffa51    ..Q.    BL       hal_log_printf ; 0x1004670
        0x010051ce:    2600        .&      MOVS     r6,#0
        0x010051d0:    e005        ..      B        0x10051de ; hal_bt_progress + 112
        0x010051d2:    a802        ..      ADD      r0,sp,#8
        0x010051d4:    5d81        .]      LDRB     r1,[r0,r6]
        0x010051d6:    a0c6        ..      ADR      r0,{pc}+0x31a ; 0x10054f0
        0x010051d8:    f001fcf4    ....    BL       __0printf ; 0x1006bc4
        0x010051dc:    1c76        v.      ADDS     r6,r6,#1
        0x010051de:    42a6        .B      CMP      r6,r4
        0x010051e0:    dbf7        ..      BLT      0x10051d2 ; hal_bt_progress + 100
        0x010051e2:    a0b6        ..      ADR      r0,{pc}+0x2da ; 0x10054bc
        0x010051e4:    f001fcee    ....    BL       __0printf ; 0x1006bc4
        0x010051e8:    b2a1        ..      UXTH     r1,r4
        0x010051ea:    a802        ..      ADD      r0,sp,#8
        0x010051ec:    f7fdff88    ....    BL       BT_SendSppData ; 0x1003100
        0x010051f0:    4623        #F      MOV      r3,r4
        0x010051f2:    4a83        .J      LDR      r2,[pc,#524] ; [0x1005400] = 0x1004d08
        0x010051f4:    a183        ..      ADR      r1,{pc}+0x210 ; 0x1005404
        0x010051f6:    a0c0        ..      ADR      r0,{pc}+0x302 ; 0x10054f8
        0x010051f8:    f7fffa3a    ..:.    BL       hal_log_printf ; 0x1004670
        0x010051fc:    2600        .&      MOVS     r6,#0
        0x010051fe:    e005        ..      B        0x100520c ; hal_bt_progress + 158
        0x01005200:    a802        ..      ADD      r0,sp,#8
        0x01005202:    5d81        .]      LDRB     r1,[r0,r6]
        0x01005204:    a0ba        ..      ADR      r0,{pc}+0x2ec ; 0x10054f0
        0x01005206:    f001fcdd    ....    BL       __0printf ; 0x1006bc4
        0x0100520a:    1c76        v.      ADDS     r6,r6,#1
        0x0100520c:    42a6        .B      CMP      r6,r4
        0x0100520e:    dbf7        ..      BLT      0x1005200 ; hal_bt_progress + 146
        0x01005210:    a0aa        ..      ADR      r0,{pc}+0x2ac ; 0x10054bc
        0x01005212:    f001fcd7    ....    BL       __0printf ; 0x1006bc4
        0x01005216:    2001        .       MOVS     r0,#1
        0x01005218:    f7fef93e    ..>.    BL       BT_SetSppFlowcontrol ; 0x1003498
        0x0100521c:    2801        .(      CMP      r0,#1
        0x0100521e:    d00a        ..      BEQ      0x1005236 ; hal_bt_progress + 200
        0x01005220:    4a77        wJ      LDR      r2,[pc,#476] ; [0x1005400] = 0x1004d08
        0x01005222:    a178        x.      ADR      r1,{pc}+0x1e2 ; 0x1005404
        0x01005224:    a0be        ..      ADR      r0,{pc}+0x2fc ; 0x1005520
        0x01005226:    f7fffa23    ..#.    BL       hal_log_printf ; 0x1004670
        0x0100522a:    e004        ..      B        0x1005236 ; hal_bt_progress + 200
        0x0100522c:    4a74        tJ      LDR      r2,[pc,#464] ; [0x1005400] = 0x1004d08
        0x0100522e:    a175        u.      ADR      r1,{pc}+0x1d6 ; 0x1005404
        0x01005230:    a0c5        ..      ADR      r0,{pc}+0x318 ; 0x1005548
        0x01005232:    f7fffa1d    ....    BL       hal_log_printf ; 0x1004670
        0x01005236:    e34c        L.      B        0x10058d2 ; hal_bt_progress + 1892
        0x01005238:    21ff        .!      MOVS     r1,#0xff
        0x0100523a:    3101        .1      ADDS     r1,#1
        0x0100523c:    a802        ..      ADD      r0,sp,#8
        0x0100523e:    f001fa00    ....    BL       __aeabi_memclr ; 0x1006642
        0x01005242:    2400        .$      MOVS     r4,#0
        0x01005244:    a802        ..      ADD      r0,sp,#8
        0x01005246:    3002        .0      ADDS     r0,#2
        0x01005248:    f7fff853    ..S.    BL       BT_ReadBTData ; 0x10042f2
        0x0100524c:    4604        .F      MOV      r4,r0
        0x0100524e:    2c00        .,      CMP      r4,#0
        0x01005250:    dd3d        =.      BLE      0x10052ce ; hal_bt_progress + 352
        0x01005252:    4623        #F      MOV      r3,r4
        0x01005254:    4a6a        jJ      LDR      r2,[pc,#424] ; [0x1005400] = 0x1004d08
        0x01005256:    a16b        k.      ADR      r1,{pc}+0x1ae ; 0x1005404
        0x01005258:    a0c4        ..      ADR      r0,{pc}+0x314 ; 0x100556c
        0x0100525a:    f7fffa09    ....    BL       hal_log_printf ; 0x1004670
        0x0100525e:    2600        .&      MOVS     r6,#0
        0x01005260:    e007        ..      B        0x1005272 ; hal_bt_progress + 260
        0x01005262:    e315        ..      B        0x1005890 ; hal_bt_progress + 1826
        0x01005264:    1cb0        ..      ADDS     r0,r6,#2
        0x01005266:    aa02        ..      ADD      r2,sp,#8
        0x01005268:    5c11        .\      LDRB     r1,[r2,r0]
        0x0100526a:    a0a1        ..      ADR      r0,{pc}+0x286 ; 0x10054f0
        0x0100526c:    f001fcaa    ....    BL       __0printf ; 0x1006bc4
        0x01005270:    1c76        v.      ADDS     r6,r6,#1
        0x01005272:    42a6        .B      CMP      r6,r4
        0x01005274:    dbf6        ..      BLT      0x1005264 ; hal_bt_progress + 246
        0x01005276:    a091        ..      ADR      r0,{pc}+0x246 ; 0x10054bc
        0x01005278:    f001fca4    ....    BL       __0printf ; 0x1006bc4
        0x0100527c:    48c6        .H      LDR      r0,[pc,#792] ; [0x1005598] = 0x2005c
        0x0100527e:    7801        .x      LDRB     r1,[r0,#0]
        0x01005280:    4668        hF      MOV      r0,sp
        0x01005282:    7201        .r      STRB     r1,[r0,#8]
        0x01005284:    48c4        .H      LDR      r0,[pc,#784] ; [0x1005598] = 0x2005c
        0x01005286:    8800        ..      LDRH     r0,[r0,#0]
        0x01005288:    1201        ..      ASRS     r1,r0,#8
        0x0100528a:    4668        hF      MOV      r0,sp
        0x0100528c:    7241        Ar      STRB     r1,[r0,#9]
        0x0100528e:    1ca0        ..      ADDS     r0,r4,#2
        0x01005290:    b281        ..      UXTH     r1,r0
        0x01005292:    a802        ..      ADD      r0,sp,#8
        0x01005294:    f7fdff63    ..c.    BL       BT_SendBleData ; 0x100315e
        0x01005298:    4668        hF      MOV      r0,sp
        0x0100529a:    7a40        @z      LDRB     r0,[r0,#9]
        0x0100529c:    4669        iF      MOV      r1,sp
        0x0100529e:    7a09        .z      LDRB     r1,[r1,#8]
        0x010052a0:    4623        #F      MOV      r3,r4
        0x010052a2:    4a57        WJ      LDR      r2,[pc,#348] ; [0x1005400] = 0x1004d08
        0x010052a4:    9100        ..      STR      r1,[sp,#0]
        0x010052a6:    9001        ..      STR      r0,[sp,#4]
        0x010052a8:    a156        V.      ADR      r1,{pc}+0x15c ; 0x1005404
        0x010052aa:    a0bc        ..      ADR      r0,{pc}+0x2f2 ; 0x100559c
        0x010052ac:    f7fff9e0    ....    BL       hal_log_printf ; 0x1004670
        0x010052b0:    2600        .&      MOVS     r6,#0
        0x010052b2:    e006        ..      B        0x10052c2 ; hal_bt_progress + 340
        0x010052b4:    1cb0        ..      ADDS     r0,r6,#2
        0x010052b6:    aa02        ..      ADD      r2,sp,#8
        0x010052b8:    5c11        .\      LDRB     r1,[r2,r0]
        0x010052ba:    a08d        ..      ADR      r0,{pc}+0x236 ; 0x10054f0
        0x010052bc:    f001fc82    ....    BL       __0printf ; 0x1006bc4
        0x010052c0:    1c76        v.      ADDS     r6,r6,#1
        0x010052c2:    42a6        .B      CMP      r6,r4
        0x010052c4:    dbf6        ..      BLT      0x10052b4 ; hal_bt_progress + 326
        0x010052c6:    a07d        }.      ADR      r0,{pc}+0x1f6 ; 0x10054bc
        0x010052c8:    f001fc7c    ..|.    BL       __0printf ; 0x1006bc4
        0x010052cc:    e004        ..      B        0x10052d8 ; hal_bt_progress + 362
        0x010052ce:    4a4c        LJ      LDR      r2,[pc,#304] ; [0x1005400] = 0x1004d08
        0x010052d0:    a14c        L.      ADR      r1,{pc}+0x134 ; 0x1005404
        0x010052d2:    a0bf        ..      ADR      r0,{pc}+0x2fe ; 0x10055d0
        0x010052d4:    f7fff9cc    ....    BL       hal_log_printf ; 0x1004670
        0x010052d8:    e2fb        ..      B        0x10058d2 ; hal_bt_progress + 1892
        0x010052da:    4a49        IJ      LDR      r2,[pc,#292] ; [0x1005400] = 0x1004d08
        0x010052dc:    a149        I.      ADR      r1,{pc}+0x128 ; 0x1005404
        0x010052de:    a0c6        ..      ADR      r0,{pc}+0x31a ; 0x10055f8
        0x010052e0:    f7fff9c6    ....    BL       hal_log_printf ; 0x1004670
        0x010052e4:    e2f5        ..      B        0x10058d2 ; hal_bt_progress + 1892
        0x010052e6:    4a46        FJ      LDR      r2,[pc,#280] ; [0x1005400] = 0x1004d08
        0x010052e8:    a146        F.      ADR      r1,{pc}+0x11c ; 0x1005404
        0x010052ea:    a0cb        ..      ADR      r0,{pc}+0x32e ; 0x1005618
        0x010052ec:    f7fff9c0    ....    BL       hal_log_printf ; 0x1004670
        0x010052f0:    e2ef        ..      B        0x10058d2 ; hal_bt_progress + 1892
        0x010052f2:    4a43        CJ      LDR      r2,[pc,#268] ; [0x1005400] = 0x1004d08
        0x010052f4:    a143        C.      ADR      r1,{pc}+0x110 ; 0x1005404
        0x010052f6:    a0d0        ..      ADR      r0,{pc}+0x342 ; 0x1005638
        0x010052f8:    f7fff9ba    ....    BL       hal_log_printf ; 0x1004670
        0x010052fc:    e2e9        ..      B        0x10058d2 ; hal_bt_progress + 1892
        0x010052fe:    4a40        @J      LDR      r2,[pc,#256] ; [0x1005400] = 0x1004d08
        0x01005300:    a140        @.      ADR      r1,{pc}+0x104 ; 0x1005404
        0x01005302:    a0d5        ..      ADR      r0,{pc}+0x356 ; 0x1005658
        0x01005304:    f7fff9b4    ....    BL       hal_log_printf ; 0x1004670
        0x01005308:    e2e3        ..      B        0x10058d2 ; hal_bt_progress + 1892
        0x0100530a:    2400        .$      MOVS     r4,#0
        0x0100530c:    a802        ..      ADD      r0,sp,#8
        0x0100530e:    f7fefff0    ....    BL       BT_ReadBTData ; 0x10042f2
        0x01005312:    4604        .F      MOV      r4,r0
        0x01005314:    2c00        .,      CMP      r4,#0
        0x01005316:    dd13        ..      BLE      0x1005340 ; hal_bt_progress + 466
        0x01005318:    4623        #F      MOV      r3,r4
        0x0100531a:    4a39        9J      LDR      r2,[pc,#228] ; [0x1005400] = 0x1004d08
        0x0100531c:    a139        9.      ADR      r1,{pc}+0xe8 ; 0x1005404
        0x0100531e:    a0d7        ..      ADR      r0,{pc}+0x35e ; 0x100567c
        0x01005320:    f7fff9a6    ....    BL       hal_log_printf ; 0x1004670
        0x01005324:    2600        .&      MOVS     r6,#0
        0x01005326:    e005        ..      B        0x1005334 ; hal_bt_progress + 454
        0x01005328:    a802        ..      ADD      r0,sp,#8
        0x0100532a:    5d81        .]      LDRB     r1,[r0,r6]
        0x0100532c:    a0de        ..      ADR      r0,{pc}+0x37c ; 0x10056a8
        0x0100532e:    f001fc49    ..I.    BL       __0printf ; 0x1006bc4
        0x01005332:    1c76        v.      ADDS     r6,r6,#1
        0x01005334:    42a6        .B      CMP      r6,r4
        0x01005336:    dbf7        ..      BLT      0x1005328 ; hal_bt_progress + 442
        0x01005338:    a060        `.      ADR      r0,{pc}+0x184 ; 0x10054bc
        0x0100533a:    f001fc43    ..C.    BL       __0printf ; 0x1006bc4
        0x0100533e:    e004        ..      B        0x100534a ; hal_bt_progress + 476
        0x01005340:    4a2f        /J      LDR      r2,[pc,#188] ; [0x1005400] = 0x1004d08
        0x01005342:    a130        0.      ADR      r1,{pc}+0xc2 ; 0x1005404
        0x01005344:    a0da        ..      ADR      r0,{pc}+0x36c ; 0x10056b0
        0x01005346:    f7fff993    ....    BL       hal_log_printf ; 0x1004670
        0x0100534a:    e2c2        ..      B        0x10058d2 ; hal_bt_progress + 1892
        0x0100534c:    2400        .$      MOVS     r4,#0
        0x0100534e:    a802        ..      ADD      r0,sp,#8
        0x01005350:    f7feffcf    ....    BL       BT_ReadBTData ; 0x10042f2
        0x01005354:    4604        .F      MOV      r4,r0
        0x01005356:    2c00        .,      CMP      r4,#0
        0x01005358:    dd13        ..      BLE      0x1005382 ; hal_bt_progress + 532
        0x0100535a:    4623        #F      MOV      r3,r4
        0x0100535c:    4a28        (J      LDR      r2,[pc,#160] ; [0x1005400] = 0x1004d08
        0x0100535e:    a129        ).      ADR      r1,{pc}+0xa6 ; 0x1005404
        0x01005360:    a0dd        ..      ADR      r0,{pc}+0x378 ; 0x10056d8
        0x01005362:    f7fff985    ....    BL       hal_log_printf ; 0x1004670
        0x01005366:    2600        .&      MOVS     r6,#0
        0x01005368:    e005        ..      B        0x1005376 ; hal_bt_progress + 520
        0x0100536a:    a802        ..      ADD      r0,sp,#8
        0x0100536c:    5d81        .]      LDRB     r1,[r0,r6]
        0x0100536e:    a0ce        ..      ADR      r0,{pc}+0x33a ; 0x10056a8
        0x01005370:    f001fc28    ..(.    BL       __0printf ; 0x1006bc4
        0x01005374:    1c76        v.      ADDS     r6,r6,#1
        0x01005376:    42a6        .B      CMP      r6,r4
        0x01005378:    dbf7        ..      BLT      0x100536a ; hal_bt_progress + 508
        0x0100537a:    a050        P.      ADR      r0,{pc}+0x142 ; 0x10054bc
        0x0100537c:    f001fc22    ..".    BL       __0printf ; 0x1006bc4
        0x01005380:    e004        ..      B        0x100538c ; hal_bt_progress + 542
        0x01005382:    4a1f        .J      LDR      r2,[pc,#124] ; [0x1005400] = 0x1004d08
        0x01005384:    a11f        ..      ADR      r1,{pc}+0x80 ; 0x1005404
        0x01005386:    a0e0        ..      ADR      r0,{pc}+0x382 ; 0x1005708
        0x01005388:    f7fff972    ..r.    BL       hal_log_printf ; 0x1004670
        0x0100538c:    2000        .       MOVS     r0,#0
        0x0100538e:    f7fef85a    ..Z.    BL       BT_ConfirmGkey ; 0x1003446
        0x01005392:    2801        .(      CMP      r0,#1
        0x01005394:    d105        ..      BNE      0x10053a2 ; hal_bt_progress + 564
        0x01005396:    4a1a        .J      LDR      r2,[pc,#104] ; [0x1005400] = 0x1004d08
        0x01005398:    a11a        ..      ADR      r1,{pc}+0x6c ; 0x1005404
        0x0100539a:    a0e7        ..      ADR      r0,{pc}+0x39e ; 0x1005738
        0x0100539c:    f7fff968    ..h.    BL       hal_log_printf ; 0x1004670
        0x010053a0:    e004        ..      B        0x10053ac ; hal_bt_progress + 574
        0x010053a2:    4a17        .J      LDR      r2,[pc,#92] ; [0x1005400] = 0x1004d08
        0x010053a4:    a117        ..      ADR      r1,{pc}+0x60 ; 0x1005404
        0x010053a6:    a0ee        ..      ADR      r0,{pc}+0x3ba ; 0x1005760
        0x010053a8:    f7fff962    ..b.    BL       hal_log_printf ; 0x1004670
        0x010053ac:    e291        ..      B        0x10058d2 ; hal_bt_progress + 1892
        0x010053ae:    4a14        .J      LDR      r2,[pc,#80] ; [0x1005400] = 0x1004d08
        0x010053b0:    a114        ..      ADR      r1,{pc}+0x54 ; 0x1005404
        0x010053b2:    a0f5        ..      ADR      r0,{pc}+0x3d6 ; 0x1005788
        0x010053b4:    f7fff95c    ..\.    BL       hal_log_printf ; 0x1004670
        0x010053b8:    e28b        ..      B        0x10058d2 ; hal_bt_progress + 1892
        0x010053ba:    2400        .$      MOVS     r4,#0
        0x010053bc:    a802        ..      ADD      r0,sp,#8
        0x010053be:    f7feff98    ....    BL       BT_ReadBTData ; 0x10042f2
        0x010053c2:    4604        .F      MOV      r4,r0
        0x010053c4:    2c00        .,      CMP      r4,#0
        0x010053c6:    dd13        ..      BLE      0x10053f0 ; hal_bt_progress + 642
        0x010053c8:    4623        #F      MOV      r3,r4
        0x010053ca:    4a0d        .J      LDR      r2,[pc,#52] ; [0x1005400] = 0x1004d08
        0x010053cc:    a10d        ..      ADR      r1,{pc}+0x38 ; 0x1005404
        0x010053ce:    a0f6        ..      ADR      r0,{pc}+0x3da ; 0x10057a8
        0x010053d0:    f7fff94e    ..N.    BL       hal_log_printf ; 0x1004670
        0x010053d4:    2600        .&      MOVS     r6,#0
        0x010053d6:    e005        ..      B        0x10053e4 ; hal_bt_progress + 630
        0x010053d8:    a802        ..      ADD      r0,sp,#8
        0x010053da:    5d81        .]      LDRB     r1,[r0,r6]
        0x010053dc:    a0b2        ..      ADR      r0,{pc}+0x2cc ; 0x10056a8
        0x010053de:    f001fbf1    ....    BL       __0printf ; 0x1006bc4
        0x010053e2:    1c76        v.      ADDS     r6,r6,#1
        0x010053e4:    42a6        .B      CMP      r6,r4
        0x010053e6:    dbf7        ..      BLT      0x10053d8 ; hal_bt_progress + 618
        0x010053e8:    a034        4.      ADR      r0,{pc}+0xd4 ; 0x10054bc
        0x010053ea:    f001fbeb    ....    BL       __0printf ; 0x1006bc4
        0x010053ee:    e004        ..      B        0x10053fa ; hal_bt_progress + 652
        0x010053f0:    4a03        .J      LDR      r2,[pc,#12] ; [0x1005400] = 0x1004d08
        0x010053f2:    a104        ..      ADR      r1,{pc}+0x12 ; 0x1005404
        0x010053f4:    a0f7        ..      ADR      r0,{pc}+0x3e0 ; 0x10057d4
        0x010053f6:    f7fff93b    ..;.    BL       hal_log_printf ; 0x1004670
        0x010053fa:    e26a        j.      B        0x10058d2 ; hal_bt_progress + 1892
    $d
        0x010053fc:    01008244    D...    DCD    16810564
        0x01005400:    01004d08    .M..    DCD    16796936
        0x01005404:    00002020      ..    DCD    8224
        0x01005408:    756c255b    [%lu    DCD    1970021723
        0x0100540c:    257c205d    ] |%    DCD    628891741
        0x01005410:    382e382d    -8.8    DCD    942553133
        0x01005414:    53207c73    s| S    DCD    1394637939
        0x01005418:    454c7465    etLE    DCD    1162638437
        0x0100541c:    44766441    AdvD    DCD    1148609601
        0x01005420:    20617461    ata     DCD    543257697
        0x01005424:    65637573    suce    DCD    1701016947
        0x01005428:    000a7373    ss..    DCD    684915
        0x0100542c:    756c255b    [%lu    DCD    1970021723
        0x01005430:    257c205d    ] |%    DCD    628891741
        0x01005434:    382e382d    -8.8    DCD    942553133
        0x01005438:    53207c73    s| S    DCD    1394637939
        0x0100543c:    454c7465    etLE    DCD    1162638437
        0x01005440:    44766441    AdvD    DCD    1148609601
        0x01005444:    20617461    ata     DCD    543257697
        0x01005448:    6c696166    fail    DCD    1818845542
        0x0100544c:    000a6465    ed..    DCD    681061
        0x01005450:    756c255b    [%lu    DCD    1970021723
        0x01005454:    257c205d    ] |%    DCD    628891741
        0x01005458:    382e382d    -8.8    DCD    942553133
        0x0100545c:    53207c73    s| S    DCD    1394637939
        0x01005460:    69567465    etVi    DCD    1767273573
        0x01005464:    69626973    sibi    DCD    1768057203
        0x01005468:    7974696c    lity    DCD    2037672300
        0x0100546c:    63757320     suc    DCD    1668641568
        0x01005470:    0a737365    ess.    DCD    175338341
        0x01005474:    00000000    ....    DCD    0
        0x01005478:    756c255b    [%lu    DCD    1970021723
        0x0100547c:    257c205d    ] |%    DCD    628891741
        0x01005480:    382e382d    -8.8    DCD    942553133
        0x01005484:    53207c73    s| S    DCD    1394637939
        0x01005488:    69567465    etVi    DCD    1767273573
        0x0100548c:    69626973    sibi    DCD    1768057203
        0x01005490:    7974696c    lity    DCD    2037672300
        0x01005494:    69616620     fai    DCD    1767990816
        0x01005498:    0a64656c    led.    DCD    174351724
        0x0100549c:    00000000    ....    DCD    0
        0x010054a0:    756c255b    [%lu    DCD    1970021723
        0x010054a4:    257c205d    ] |%    DCD    628891741
        0x010054a8:    382e382d    -8.8    DCD    942553133
        0x010054ac:    62207c73    s| b    DCD    1646296179
        0x010054b0:    65762074    t ve    DCD    1702240372
        0x010054b4:    6f697372    rsio    DCD    1869181810
        0x010054b8:    78253d6e    n=%x    DCD    2015706478
        0x010054bc:    0000000a    ....    DCD    10
        0x010054c0:    000c8040    @...    DCD    819264
        0x010054c4:    756c255b    [%lu    DCD    1970021723
        0x010054c8:    257c205d    ] |%    DCD    628891741
        0x010054cc:    382e382d    -8.8    DCD    942553133
        0x010054d0:    72207c73    s| r    DCD    1914731635
        0x010054d4:    69656365    ecei    DCD    1768252261
        0x010054d8:    20646576    ved     DCD    543450486
        0x010054dc:    62206425    %d b    DCD    1646289957
        0x010054e0:    73657479    ytes    DCD    1936028793
        0x010054e4:    20746220     bt     DCD    544498208
        0x010054e8:    61746164    data    DCD    1635017060
        0x010054ec:    00000a3a    :...    DCD    2618
        0x010054f0:    78323025    %02x    DCD    2016555045
        0x010054f4:    00000020     ...    DCD    32
        0x010054f8:    756c255b    [%lu    DCD    1970021723
        0x010054fc:    257c205d    ] |%    DCD    628891741
        0x01005500:    382e382d    -8.8    DCD    942553133
        0x01005504:    73207c73    s| s    DCD    1931508851
        0x01005508:    20646e65    end     DCD    543452773
        0x0100550c:    62206425    %d b    DCD    1646289957
        0x01005510:    73657479    ytes    DCD    1936028793
        0x01005514:    20746220     bt     DCD    544498208
        0x01005518:    61746164    data    DCD    1635017060
        0x0100551c:    00000a3a    :...    DCD    2618
        0x01005520:    756c255b    [%lu    DCD    1970021723
        0x01005524:    257c205d    ] |%    DCD    628891741
        0x01005528:    382e382d    -8.8    DCD    942553133
        0x0100552c:    73207c73    s| s    DCD    1931508851
        0x01005530:    46207465    et F    DCD    1176532069
        0x01005534:    63776f6c    lowc    DCD    1668771692
        0x01005538:    72746e6f    ontr    DCD    1920233071
        0x0100553c:    66206c6f    ol f    DCD    1713400943
        0x01005540:    656c6961    aile    DCD    1701603681
        0x01005544:    00000a64    d...    DCD    2660
        0x01005548:    756c255b    [%lu    DCD    1970021723
        0x0100554c:    257c205d    ] |%    DCD    628891741
        0x01005550:    382e382d    -8.8    DCD    942553133
        0x01005554:    72207c73    s| r    DCD    1914731635
        0x01005558:    20646165    ead     DCD    543449445
        0x0100555c:    64207462    bt d    DCD    1679848546
        0x01005560:    20617461    ata     DCD    543257697
        0x01005564:    6f727265    erro    DCD    1869771365
        0x01005568:    000a0d72    r...    DCD    658802
        0x0100556c:    756c255b    [%lu    DCD    1970021723
        0x01005570:    257c205d    ] |%    DCD    628891741
        0x01005574:    382e382d    -8.8    DCD    942553133
        0x01005578:    72207c73    s| r    DCD    1914731635
        0x0100557c:    69656365    ecei    DCD    1768252261
        0x01005580:    20646576    ved     DCD    543450486
        0x01005584:    62206425    %d b    DCD    1646289957
        0x01005588:    73657479    ytes    DCD    1936028793
        0x0100558c:    656c6220     ble    DCD    1701601824
        0x01005590:    74616420     dat    DCD    1952539680
        0x01005594:    000a3a61    a:..    DCD    670305
        0x01005598:    0002005c    \...    DCD    131164
        0x0100559c:    756c255b    [%lu    DCD    1970021723
        0x010055a0:    257c205d    ] |%    DCD    628891741
        0x010055a4:    382e382d    -8.8    DCD    942553133
        0x010055a8:    73207c73    s| s    DCD    1931508851
        0x010055ac:    20646e65    end     DCD    543452773
        0x010055b0:    62206425    %d b    DCD    1646289957
        0x010055b4:    73657479    ytes    DCD    1936028793
        0x010055b8:    656c6220     ble    DCD    1701601824
        0x010055bc:    74616420     dat    DCD    1952539680
        0x010055c0:    30255b61    a[%0    DCD    807754593
        0x010055c4:    25207832    2x %    DCD    622884914
        0x010055c8:    5d783230    02x]    DCD    1568158256
        0x010055cc:    00000a3a    :...    DCD    2618
        0x010055d0:    756c255b    [%lu    DCD    1970021723
        0x010055d4:    257c205d    ] |%    DCD    628891741
        0x010055d8:    382e382d    -8.8    DCD    942553133
        0x010055dc:    72207c73    s| r    DCD    1914731635
        0x010055e0:    20646165    ead     DCD    543449445
        0x010055e4:    20656c62    ble     DCD    543517794
        0x010055e8:    61746164    data    DCD    1635017060
        0x010055ec:    72726520     err    DCD    1920099616
        0x010055f0:    0a0d726f    or..    DCD    168653423
        0x010055f4:    00000000    ....    DCD    0
        0x010055f8:    756c255b    [%lu    DCD    1970021723
        0x010055fc:    257c205d    ] |%    DCD    628891741
        0x01005600:    382e382d    -8.8    DCD    942553133
        0x01005604:    62207c73    s| b    DCD    1646296179
        0x01005608:    6f632074    t co    DCD    1868767348
        0x0100560c:    63656e6e    nnec    DCD    1667591790
        0x01005610:    0a646574    ted.    DCD    174351732
        0x01005614:    00000000    ....    DCD    0
        0x01005618:    756c255b    [%lu    DCD    1970021723
        0x0100561c:    257c205d    ] |%    DCD    628891741
        0x01005620:    382e382d    -8.8    DCD    942553133
        0x01005624:    62207c73    s| b    DCD    1646296179
        0x01005628:    6320656c    le c    DCD    1663067500
        0x0100562c:    656e6e6f    onne    DCD    1701736047
        0x01005630:    64657463    cted    DCD    1684370531
        0x01005634:    0000000a    ....    DCD    10
        0x01005638:    756c255b    [%lu    DCD    1970021723
        0x0100563c:    257c205d    ] |%    DCD    628891741
        0x01005640:    382e382d    -8.8    DCD    942553133
        0x01005644:    62207c73    s| b    DCD    1646296179
        0x01005648:    69642074    t di    DCD    1768169588
        0x0100564c:    6e6f6373    scon    DCD    1852793715
        0x01005650:    7463656e    nect    DCD    1952671086
        0x01005654:    000a6465    ed..    DCD    681061
        0x01005658:    756c255b    [%lu    DCD    1970021723
        0x0100565c:    257c205d    ] |%    DCD    628891741
        0x01005660:    382e382d    -8.8    DCD    942553133
        0x01005664:    62207c73    s| b    DCD    1646296179
        0x01005668:    6420656c    le d    DCD    1679844716
        0x0100566c:    6f637369    isco    DCD    1868788585
        0x01005670:    63656e6e    nnec    DCD    1667591790
        0x01005674:    0a646574    ted.    DCD    174351732
        0x01005678:    00000000    ....    DCD    0
        0x0100567c:    756c255b    [%lu    DCD    1970021723
        0x01005680:    257c205d    ] |%    DCD    628891741
        0x01005684:    382e382d    -8.8    DCD    942553133
        0x01005688:    72207c73    s| r    DCD    1914731635
        0x0100568c:    69656365    ecei    DCD    1768252261
        0x01005690:    25206576    ve %    DCD    622880118
        0x01005694:    74796264    dbyt    DCD    1954112100
        0x01005698:    4e207365    es N    DCD    1310749541
        0x0100569c:    6d617276    vram    DCD    1835102838
        0x010056a0:    61746164    data    DCD    1635017060
        0x010056a4:    0000003a    :...    DCD    58
        0x010056a8:    58323025    %02X    DCD    1479684133
        0x010056ac:    00000020     ...    DCD    32
        0x010056b0:    756c255b    [%lu    DCD    1970021723
        0x010056b4:    257c205d    ] |%    DCD    628891741
        0x010056b8:    382e382d    -8.8    DCD    942553133
        0x010056bc:    72207c73    s| r    DCD    1914731635
        0x010056c0:    20646165    ead     DCD    543449445
        0x010056c4:    6172764e    Nvra    DCD    1634891342
        0x010056c8:    6164206d    m da    DCD    1633951853
        0x010056cc:    65206174    ta e    DCD    1696620916
        0x010056d0:    726f7272    rror    DCD    1919906418
        0x010056d4:    00000a0d    ....    DCD    2573
        0x010056d8:    756c255b    [%lu    DCD    1970021723
        0x010056dc:    257c205d    ] |%    DCD    628891741
        0x010056e0:    382e382d    -8.8    DCD    942553133
        0x010056e4:    72207c73    s| r    DCD    1914731635
        0x010056e8:    69656365    ecei    DCD    1768252261
        0x010056ec:    25206576    ve %    DCD    622880118
        0x010056f0:    74796264    dbyt    DCD    1954112100
        0x010056f4:    43207365    es C    DCD    1126200165
        0x010056f8:    49464e4f    ONFI    DCD    1229344335
        0x010056fc:    475f4d52    RM_G    DCD    1197428050
        0x01005700:    3a59454b    KEY:    DCD    978928971
        0x01005704:    00000000    ....    DCD    0
        0x01005708:    756c255b    [%lu    DCD    1970021723
        0x0100570c:    257c205d    ] |%    DCD    628891741
        0x01005710:    382e382d    -8.8    DCD    942553133
        0x01005714:    72207c73    s| r    DCD    1914731635
        0x01005718:    20646165    ead     DCD    543449445
        0x0100571c:    464e4f43    CONF    DCD    1179537219
        0x01005720:    5f4d5249    IRM_    DCD    1598902857
        0x01005724:    59454b47    GKEY    DCD    1497713479
        0x01005728:    74616420     dat    DCD    1952539680
        0x0100572c:    72652061    a er    DCD    1919230049
        0x01005730:    0d726f72    ror.    DCD    225603442
        0x01005734:    0000000a    ....    DCD    10
        0x01005738:    756c255b    [%lu    DCD    1970021723
        0x0100573c:    257c205d    ] |%    DCD    628891741
        0x01005740:    382e382d    -8.8    DCD    942553133
        0x01005744:    73207c73    s| s    DCD    1931508851
        0x01005748:    63207465    et c    DCD    1663071333
        0x0100574c:    69666e6f    onfi    DCD    1768320623
        0x01005750:    656b6d72    rmke    DCD    1701539186
        0x01005754:    73202079    y  s    DCD    1931485305
        0x01005758:    65636375    ucce    DCD    1701012341
        0x0100575c:    00007373    ss..    DCD    29555
        0x01005760:    756c255b    [%lu    DCD    1970021723
        0x01005764:    257c205d    ] |%    DCD    628891741
        0x01005768:    382e382d    -8.8    DCD    942553133
        0x0100576c:    73207c73    s| s    DCD    1931508851
        0x01005770:    63207465    et c    DCD    1663071333
        0x01005774:    69666e6f    onfi    DCD    1768320623
        0x01005778:    656b6d72    rmke    DCD    1701539186
        0x0100577c:    66202079    y  f    DCD    1713381497
        0x01005780:    656c6961    aile    DCD    1701603681
        0x01005784:    00000a64    d...    DCD    2660
        0x01005788:    756c255b    [%lu    DCD    1970021723
        0x0100578c:    257c205d    ] |%    DCD    628891741
        0x01005790:    382e382d    -8.8    DCD    942553133
        0x01005794:    72207c73    s| r    DCD    1914731635
        0x01005798:    65757165    eque    DCD    1702195557
        0x0100579c:    50207473    st P    DCD    1344304243
        0x010057a0:    6b737361    assk    DCD    1802728289
        0x010057a4:    00007965    ey..    DCD    31077
        0x010057a8:    756c255b    [%lu    DCD    1970021723
        0x010057ac:    257c205d    ] |%    DCD    628891741
        0x010057b0:    382e382d    -8.8    DCD    942553133
        0x010057b4:    72207c73    s| r    DCD    1914731635
        0x010057b8:    69656365    ecei    DCD    1768252261
        0x010057bc:    25206576    ve %    DCD    622880118
        0x010057c0:    74796264    dbyt    DCD    1954112100
        0x010057c4:    70207365    es p    DCD    1881174885
        0x010057c8:    6e697261    arin    DCD    1852404321
        0x010057cc:    61642067    g da    DCD    1633951847
        0x010057d0:    003a6174    ta:.    DCD    3826036
        0x010057d4:    756c255b    [%lu    DCD    1970021723
        0x010057d8:    257c205d    ] |%    DCD    628891741
        0x010057dc:    382e382d    -8.8    DCD    942553133
        0x010057e0:    72207c73    s| r    DCD    1914731635
        0x010057e4:    20646165    ead     DCD    543449445
        0x010057e8:    52494150    PAIR    DCD    1380532560
        0x010057ec:    5f474e49    ING_    DCD    1598508617
        0x010057f0:    504d4f43    COMP    DCD    1347243843
        0x010057f4:    4554454c    LETE    DCD    1163150668
        0x010057f8:    61642044    D da    DCD    1633951812
        0x010057fc:    65206174    ta e    DCD    1696620916
        0x01005800:    726f7272    rror    DCD    1919906418
        0x01005804:    00000a0d    ....    DCD    2573
    $t
        0x01005808:    2600        .&      MOVS     r6,#0
        0x0100580a:    2400        .$      MOVS     r4,#0
        0x0100580c:    a802        ..      ADD      r0,sp,#8
        0x0100580e:    f7fefd70    ..p.    BL       BT_ReadBTData ; 0x10042f2
        0x01005812:    4606        .F      MOV      r6,r0
        0x01005814:    2e02        ..      CMP      r6,#2
        0x01005816:    d131        1.      BNE      0x100587c ; hal_bt_progress + 1806
        0x01005818:    4668        hF      MOV      r0,sp
        0x0100581a:    7a00        .z      LDRB     r0,[r0,#8]
        0x0100581c:    4304        .C      ORRS     r4,r4,r0
        0x0100581e:    4668        hF      MOV      r0,sp
        0x01005820:    7a40        @z      LDRB     r0,[r0,#9]
        0x01005822:    0200        ..      LSLS     r0,r0,#8
        0x01005824:    4304        .C      ORRS     r4,r4,r0
        0x01005826:    2c01        .,      CMP      r4,#1
        0x01005828:    d008        ..      BEQ      0x100583c ; hal_bt_progress + 1742
        0x0100582a:    2c80        .,      CMP      r4,#0x80
        0x0100582c:    d012        ..      BEQ      0x1005854 ; hal_bt_progress + 1766
        0x0100582e:    1fe0        ..      SUBS     r0,r4,#7
        0x01005830:    38fa        .8      SUBS     r0,r0,#0xfa
        0x01005832:    2800        .(      CMP      r0,#0
        0x01005834:    d008        ..      BEQ      0x1005848 ; hal_bt_progress + 1754
        0x01005836:    287f        .(      CMP      r0,#0x7f
        0x01005838:    d118        ..      BNE      0x100586c ; hal_bt_progress + 1790
        0x0100583a:    e011        ..      B        0x1005860 ; hal_bt_progress + 1778
        0x0100583c:    4a26        &J      LDR      r2,[pc,#152] ; [0x10058d8] = 0x1004d08
        0x0100583e:    a127        '.      ADR      r1,{pc}+0x9e ; 0x10058dc
        0x01005840:    a027        '.      ADR      r0,{pc}+0xa0 ; 0x10058e0
        0x01005842:    f7feff15    ....    BL       hal_log_printf ; 0x1004670
        0x01005846:    e018        ..      B        0x100587a ; hal_bt_progress + 1804
        0x01005848:    4a23        #J      LDR      r2,[pc,#140] ; [0x10058d8] = 0x1004d08
        0x0100584a:    a124        $.      ADR      r1,{pc}+0x92 ; 0x10058dc
        0x0100584c:    a02d        -.      ADR      r0,{pc}+0xb8 ; 0x1005904
        0x0100584e:    f7feff0f    ....    BL       hal_log_printf ; 0x1004670
        0x01005852:    e012        ..      B        0x100587a ; hal_bt_progress + 1804
        0x01005854:    4a20         J      LDR      r2,[pc,#128] ; [0x10058d8] = 0x1004d08
        0x01005856:    a121        !.      ADR      r1,{pc}+0x86 ; 0x10058dc
        0x01005858:    a033        3.      ADR      r0,{pc}+0xd0 ; 0x1005928
        0x0100585a:    f7feff09    ....    BL       hal_log_printf ; 0x1004670
        0x0100585e:    e00c        ..      B        0x100587a ; hal_bt_progress + 1804
        0x01005860:    4a1d        .J      LDR      r2,[pc,#116] ; [0x10058d8] = 0x1004d08
        0x01005862:    a11e        ..      ADR      r1,{pc}+0x7a ; 0x10058dc
        0x01005864:    a03a        :.      ADR      r0,{pc}+0xec ; 0x1005950
        0x01005866:    f7feff03    ....    BL       hal_log_printf ; 0x1004670
        0x0100586a:    e006        ..      B        0x100587a ; hal_bt_progress + 1804
        0x0100586c:    4623        #F      MOV      r3,r4
        0x0100586e:    4a1a        .J      LDR      r2,[pc,#104] ; [0x10058d8] = 0x1004d08
        0x01005870:    a11a        ..      ADR      r1,{pc}+0x6c ; 0x10058dc
        0x01005872:    a040        @.      ADR      r0,{pc}+0x102 ; 0x1005974
        0x01005874:    f7fefefc    ....    BL       hal_log_printf ; 0x1004670
        0x01005878:    bf00        ..      NOP      
        0x0100587a:    e004        ..      B        0x1005886 ; hal_bt_progress + 1816
        0x0100587c:    4a16        .J      LDR      r2,[pc,#88] ; [0x10058d8] = 0x1004d08
        0x0100587e:    a117        ..      ADR      r1,{pc}+0x5e ; 0x10058dc
        0x01005880:    a048        H.      ADR      r0,{pc}+0x124 ; 0x10059a4
        0x01005882:    f7fefef5    ....    BL       hal_log_printf ; 0x1004670
        0x01005886:    e024        $.      B        0x10058d2 ; hal_bt_progress + 1892
        0x01005888:    2000        .       MOVS     r0,#0
        0x0100588a:    43c0        .C      MVNS     r0,r0
        0x0100588c:    b042        B.      ADD      sp,sp,#0x108
        0x0100588e:    bd70        p.      POP      {r4-r6,pc}
        0x01005890:    462b        +F      MOV      r3,r5
        0x01005892:    4a11        .J      LDR      r2,[pc,#68] ; [0x10058d8] = 0x1004d08
        0x01005894:    a111        ..      ADR      r1,{pc}+0x48 ; 0x10058dc
        0x01005896:    a04f        O.      ADR      r0,{pc}+0x13e ; 0x10059d4
        0x01005898:    f7fefeea    ....    BL       hal_log_printf ; 0x1004670
        0x0100589c:    2400        .$      MOVS     r4,#0
        0x0100589e:    a802        ..      ADD      r0,sp,#8
        0x010058a0:    f7fefd27    ..'.    BL       BT_ReadBTData ; 0x10042f2
        0x010058a4:    4604        .F      MOV      r4,r0
        0x010058a6:    2c00        .,      CMP      r4,#0
        0x010058a8:    dd12        ..      BLE      0x10058d0 ; hal_bt_progress + 1890
        0x010058aa:    4623        #F      MOV      r3,r4
        0x010058ac:    4a0a        .J      LDR      r2,[pc,#40] ; [0x10058d8] = 0x1004d08
        0x010058ae:    a10b        ..      ADR      r1,{pc}+0x2e ; 0x10058dc
        0x010058b0:    a051        Q.      ADR      r0,{pc}+0x148 ; 0x10059f8
        0x010058b2:    f7fefedd    ....    BL       hal_log_printf ; 0x1004670
        0x010058b6:    2600        .&      MOVS     r6,#0
        0x010058b8:    e005        ..      B        0x10058c6 ; hal_bt_progress + 1880
        0x010058ba:    a802        ..      ADD      r0,sp,#8
        0x010058bc:    5d81        .]      LDRB     r1,[r0,r6]
        0x010058be:    4855        UH      LDR      r0,[pc,#340] ; [0x1005a14] = 0x10056a8
        0x010058c0:    f001f980    ....    BL       __0printf ; 0x1006bc4
        0x010058c4:    1c76        v.      ADDS     r6,r6,#1
        0x010058c6:    42a6        .B      CMP      r6,r4
        0x010058c8:    dbf7        ..      BLT      0x10058ba ; hal_bt_progress + 1868
        0x010058ca:    a029        ).      ADR      r0,{pc}+0xa6 ; 0x1005970
        0x010058cc:    f001f97a    ..z.    BL       __0printf ; 0x1006bc4
        0x010058d0:    bf00        ..      NOP      
        0x010058d2:    bf00        ..      NOP      
        0x010058d4:    2000        .       MOVS     r0,#0
        0x010058d6:    e7d9        ..      B        0x100588c ; hal_bt_progress + 1822
    $d
        0x010058d8:    01004d08    .M..    DCD    16796936
        0x010058dc:    00002020      ..    DCD    8224
        0x010058e0:    756c255b    [%lu    DCD    1970021723
        0x010058e4:    257c205d    ] |%    DCD    628891741
        0x010058e8:    382e382d    -8.8    DCD    942553133
        0x010058ec:    42207c73    s| B    DCD    1109425267
        0x010058f0:    61502054    T Pa    DCD    1632641108
        0x010058f4:    6e697269    irin    DCD    1852404329
        0x010058f8:    75532067    g Su    DCD    1968382055
        0x010058fc:    73656363    cces    DCD    1936024419
        0x01005900:    000a0d73    s...    DCD    658803
        0x01005904:    756c255b    [%lu    DCD    1970021723
        0x01005908:    257c205d    ] |%    DCD    628891741
        0x0100590c:    382e382d    -8.8    DCD    942553133
        0x01005910:    42207c73    s| B    DCD    1109425267
        0x01005914:    61502054    T Pa    DCD    1632641108
        0x01005918:    6e697269    irin    DCD    1852404329
        0x0100591c:    61662067    g fa    DCD    1634082919
        0x01005920:    0a0d6c69    il..    DCD    168651881
        0x01005924:    00000000    ....    DCD    0
        0x01005928:    756c255b    [%lu    DCD    1970021723
        0x0100592c:    257c205d    ] |%    DCD    628891741
        0x01005930:    382e382d    -8.8    DCD    942553133
        0x01005934:    42207c73    s| B    DCD    1109425267
        0x01005938:    5020454c    LE P    DCD    1344292172
        0x0100593c:    69726961    airi    DCD    1769105761
        0x01005940:    5320676e    ng S    DCD    1394632558
        0x01005944:    65636375    ucce    DCD    1701012341
        0x01005948:    0a0d7373    ss..    DCD    168653683
        0x0100594c:    00000000    ....    DCD    0
        0x01005950:    756c255b    [%lu    DCD    1970021723
        0x01005954:    257c205d    ] |%    DCD    628891741
        0x01005958:    382e382d    -8.8    DCD    942553133
        0x0100595c:    42207c73    s| B    DCD    1109425267
        0x01005960:    5020454c    LE P    DCD    1344292172
        0x01005964:    69726961    airi    DCD    1769105761
        0x01005968:    6620676e    ng f    DCD    1713399662
        0x0100596c:    0d6c6961    ail.    DCD    225208673
        0x01005970:    0000000a    ....    DCD    10
        0x01005974:    756c255b    [%lu    DCD    1970021723
        0x01005978:    257c205d    ] |%    DCD    628891741
        0x0100597c:    382e382d    -8.8    DCD    942553133
        0x01005980:    75207c73    s| u    DCD    1965063283
        0x01005984:    6f6e6b6e    nkno    DCD    1869507438
        0x01005988:    70206e77    wn p    DCD    1881173623
        0x0100598c:    69726961    airi    DCD    1769105761
        0x01005990:    735f676e    ng_s    DCD    1935632238
        0x01005994:    75746174    tatu    DCD    1970561396
        0x01005998:    30255b73    s[%0    DCD    807754611
        0x0100599c:    0d5d7834    4x].    DCD    224229428
        0x010059a0:    0000000a    ....    DCD    10
        0x010059a4:    756c255b    [%lu    DCD    1970021723
        0x010059a8:    257c205d    ] |%    DCD    628891741
        0x010059ac:    382e382d    -8.8    DCD    942553133
        0x010059b0:    72207c73    s| r    DCD    1914731635
        0x010059b4:    20646165    ead     DCD    543449445
        0x010059b8:    52494150    PAIR    DCD    1380532560
        0x010059bc:    5f474e49    ING_    DCD    1598508617
        0x010059c0:    54415453    STAT    DCD    1413567571
        0x010059c4:    61642045    E da    DCD    1633951813
        0x010059c8:    65206174    ta e    DCD    1696620916
        0x010059cc:    726f7272    rror    DCD    1919906418
        0x010059d0:    00000a0d    ....    DCD    2573
        0x010059d4:    756c255b    [%lu    DCD    1970021723
        0x010059d8:    257c205d    ] |%    DCD    628891741
        0x010059dc:    382e382d    -8.8    DCD    942553133
        0x010059e0:    75207c73    s| u    DCD    1965063283
        0x010059e4:    6f6e6b6e    nkno    DCD    1869507438
        0x010059e8:    65206e77    wn e    DCD    1696624247
        0x010059ec:    746e6576    vent    DCD    1953391990
        0x010059f0:    3230253a    :%02    DCD    842016058
        0x010059f4:    000a0d78    x...    DCD    658808
        0x010059f8:    756c255b    [%lu    DCD    1970021723
        0x010059fc:    257c205d    ] |%    DCD    628891741
        0x01005a00:    382e382d    -8.8    DCD    942553133
        0x01005a04:    64207c73    s| d    DCD    1679850611
        0x01005a08:    6c617461    atal    DCD    1818326113
        0x01005a0c:    253a6e65    en:%    DCD    624586341
        0x01005a10:    000a0d64    d...    DCD    658788
        0x01005a14:    010056a8    .V..    DCD    16799400
    $t
    .text
    middle_print_line_data_slice
        0x01005a18:    b5ff        ..      PUSH     {r0-r7,lr}
        0x01005a1a:    b081        ..      SUB      sp,sp,#4
        0x01005a1c:    460c        .F      MOV      r4,r1
        0x01005a1e:    461d        .F      MOV      r5,r3
        0x01005a20:    9f0a        ..      LDR      r7,[sp,#0x28]
        0x01005a22:    8828        (.      LDRH     r0,[r5,#0]
        0x01005a24:    9000        ..      STR      r0,[sp,#0]
        0x01005a26:    17c0        ..      ASRS     r0,r0,#31
        0x01005a28:    0f46        F.      LSRS     r6,r0,#29
        0x01005a2a:    9800        ..      LDR      r0,[sp,#0]
        0x01005a2c:    1830        0.      ADDS     r0,r6,r0
        0x01005a2e:    10c1        ..      ASRS     r1,r0,#3
        0x01005a30:    8828        (.      LDRH     r0,[r5,#0]
        0x01005a32:    17c6        ..      ASRS     r6,r0,#31
        0x01005a34:    0f76        v.      LSRS     r6,r6,#29
        0x01005a36:    1836        6.      ADDS     r6,r6,r0
        0x01005a38:    10f6        ..      ASRS     r6,r6,#3
        0x01005a3a:    00f6        ..      LSLS     r6,r6,#3
        0x01005a3c:    1b86        ..      SUBS     r6,r0,r6
        0x01005a3e:    b2b2        ..      UXTH     r2,r6
        0x01005a40:    2300        .#      MOVS     r3,#0
        0x01005a42:    2a00        .*      CMP      r2,#0
        0x01005a44:    d00a        ..      BEQ      0x1005a5c ; middle_print_line_data_slice + 68
        0x01005a46:    9801        ..      LDR      r0,[sp,#4]
        0x01005a48:    5c40        @\      LDRB     r0,[r0,r1]
        0x01005a4a:    26ff        .&      MOVS     r6,#0xff
        0x01005a4c:    4116        .A      ASRS     r6,r6,r2
        0x01005a4e:    4030        0@      ANDS     r0,r0,r6
        0x01005a50:    5460        `T      STRB     r0,[r4,r1]
        0x01005a52:    5c60        `\      LDRB     r0,[r4,r1]
        0x01005a54:    4ebe        .N      LDR      r6,[pc,#760] ; [0x1005d50] = 0x1008273
        0x01005a56:    5c33        3\      LDRB     r3,[r6,r0]
        0x01005a58:    1c48        H.      ADDS     r0,r1,#1
        0x01005a5a:    b281        ..      UXTH     r1,r0
        0x01005a5c:    e00c        ..      B        0x1005a78 ; middle_print_line_data_slice + 96
        0x01005a5e:    9801        ..      LDR      r0,[sp,#4]
        0x01005a60:    5c40        @\      LDRB     r0,[r0,r1]
        0x01005a62:    5460        `T      STRB     r0,[r4,r1]
        0x01005a64:    5c60        `\      LDRB     r0,[r4,r1]
        0x01005a66:    4eba        .N      LDR      r6,[pc,#744] ; [0x1005d50] = 0x1008273
        0x01005a68:    5c30        0\      LDRB     r0,[r6,r0]
        0x01005a6a:    18c0        ..      ADDS     r0,r0,r3
        0x01005a6c:    b283        ..      UXTH     r3,r0
        0x01005a6e:    42bb        .B      CMP      r3,r7
        0x01005a70:    db00        ..      BLT      0x1005a74 ; middle_print_line_data_slice + 92
        0x01005a72:    e004        ..      B        0x1005a7e ; middle_print_line_data_slice + 102
        0x01005a74:    1c48        H.      ADDS     r0,r1,#1
        0x01005a76:    b281        ..      UXTH     r1,r0
        0x01005a78:    9803        ..      LDR      r0,[sp,#0xc]
        0x01005a7a:    4281        .B      CMP      r1,r0
        0x01005a7c:    dbef        ..      BLT      0x1005a5e ; middle_print_line_data_slice + 70
        0x01005a7e:    bf00        ..      NOP      
        0x01005a80:    2200        ."      MOVS     r2,#0
        0x01005a82:    42bb        .B      CMP      r3,r7
        0x01005a84:    dd18        ..      BLE      0x1005ab8 ; middle_print_line_data_slice + 160
        0x01005a86:    1bd8        ..      SUBS     r0,r3,r7
        0x01005a88:    b283        ..      UXTH     r3,r0
        0x01005a8a:    e009        ..      B        0x1005aa0 ; middle_print_line_data_slice + 136
        0x01005a8c:    5c60        `\      LDRB     r0,[r4,r1]
        0x01005a8e:    2601        .&      MOVS     r6,#1
        0x01005a90:    4096        .@      LSLS     r6,r6,r2
        0x01005a92:    4030        0@      ANDS     r0,r0,r6
        0x01005a94:    2800        .(      CMP      r0,#0
        0x01005a96:    d001        ..      BEQ      0x1005a9c ; middle_print_line_data_slice + 132
        0x01005a98:    1e58        X.      SUBS     r0,r3,#1
        0x01005a9a:    b283        ..      UXTH     r3,r0
        0x01005a9c:    1c50        P.      ADDS     r0,r2,#1
        0x01005a9e:    b282        ..      UXTH     r2,r0
        0x01005aa0:    2b00        .+      CMP      r3,#0
        0x01005aa2:    d001        ..      BEQ      0x1005aa8 ; middle_print_line_data_slice + 144
        0x01005aa4:    2a08        .*      CMP      r2,#8
        0x01005aa6:    dbf1        ..      BLT      0x1005a8c ; middle_print_line_data_slice + 116
        0x01005aa8:    5c60        `\      LDRB     r0,[r4,r1]
        0x01005aaa:    26ff        .&      MOVS     r6,#0xff
        0x01005aac:    4096        .@      LSLS     r6,r6,r2
        0x01005aae:    4030        0@      ANDS     r0,r0,r6
        0x01005ab0:    5460        `T      STRB     r0,[r4,r1]
        0x01005ab2:    1c48        H.      ADDS     r0,r1,#1
        0x01005ab4:    b281        ..      UXTH     r1,r0
        0x01005ab6:    e003        ..      B        0x1005ac0 ; middle_print_line_data_slice + 168
        0x01005ab8:    42bb        .B      CMP      r3,r7
        0x01005aba:    d101        ..      BNE      0x1005ac0 ; middle_print_line_data_slice + 168
        0x01005abc:    1c48        H.      ADDS     r0,r1,#1
        0x01005abe:    b281        ..      UXTH     r1,r0
        0x01005ac0:    00c8        ..      LSLS     r0,r1,#3
        0x01005ac2:    1a80        ..      SUBS     r0,r0,r2
        0x01005ac4:    8028        (.      STRH     r0,[r5,#0]
        0x01005ac6:    2000        .       MOVS     r0,#0
        0x01005ac8:    b005        ..      ADD      sp,sp,#0x14
        0x01005aca:    bdf0        ..      POP      {r4-r7,pc}
    middle_print_line_heattime
        0x01005acc:    b5ff        ..      PUSH     {r0-r7,lr}
        0x01005ace:    b083        ..      SUB      sp,sp,#0xc
        0x01005ad0:    4605        .F      MOV      r5,r0
        0x01005ad2:    460e        .F      MOV      r6,r1
        0x01005ad4:    462c        ,F      MOV      r4,r5
        0x01005ad6:    2064        d       MOVS     r0,#0x64
        0x01005ad8:    9002        ..      STR      r0,[sp,#8]
        0x01005ada:    9906        ..      LDR      r1,[sp,#0x18]
        0x01005adc:    00c8        ..      LSLS     r0,r1,#3
        0x01005ade:    2105        .!      MOVS     r1,#5
        0x01005ae0:    f000fd82    ....    BL       __aeabi_idiv ; 0x10065e8
        0x01005ae4:    218c        .!      MOVS     r1,#0x8c
        0x01005ae6:    1a08        ..      SUBS     r0,r1,r0
        0x01005ae8:    4360        `C      MULS     r0,r4,r0
        0x01005aea:    4607        .F      MOV      r7,r0
        0x01005aec:    2164        d!      MOVS     r1,#0x64
        0x01005aee:    f000fd7b    ..{.    BL       __aeabi_idiv ; 0x10065e8
        0x01005af2:    4604        .F      MOV      r4,r0
        0x01005af4:    bf00        ..      NOP      
        0x01005af6:    00e0        ..      LSLS     r0,r4,#3
        0x01005af8:    210a        .!      MOVS     r1,#0xa
        0x01005afa:    f000fd75    ..u.    BL       __aeabi_idiv ; 0x10065e8
        0x01005afe:    4607        .F      MOV      r7,r0
        0x01005b00:    00a1        ..      LSLS     r1,r4,#2
        0x01005b02:    9a05        ..      LDR      r2,[sp,#0x14]
        0x01005b04:    4351        QC      MULS     r1,r2,r1
        0x01005b06:    4608        .F      MOV      r0,r1
        0x01005b08:    210a        .!      MOVS     r1,#0xa
        0x01005b0a:    f000fd6d    ..m.    BL       __aeabi_idiv ; 0x10065e8
        0x01005b0e:    9001        ..      STR      r0,[sp,#4]
        0x01005b10:    17c0        ..      ASRS     r0,r0,#31
        0x01005b12:    0e81        ..      LSRS     r1,r0,#26
        0x01005b14:    9801        ..      LDR      r0,[sp,#4]
        0x01005b16:    1808        ..      ADDS     r0,r1,r0
        0x01005b18:    1180        ..      ASRS     r0,r0,#6
        0x01005b1a:    183c        <.      ADDS     r4,r7,r0
        0x01005b1c:    1e70        p.      SUBS     r0,r6,#1
        0x01005b1e:    0081        ..      LSLS     r1,r0,#2
        0x01005b20:    9802        ..      LDR      r0,[sp,#8]
        0x01005b22:    1808        ..      ADDS     r0,r1,r0
        0x01005b24:    9002        ..      STR      r0,[sp,#8]
        0x01005b26:    9902        ..      LDR      r1,[sp,#8]
        0x01005b28:    4361        aC      MULS     r1,r4,r1
        0x01005b2a:    4608        .F      MOV      r0,r1
        0x01005b2c:    2164        d!      MOVS     r1,#0x64
        0x01005b2e:    f000fd5b    ..[.    BL       __aeabi_idiv ; 0x10065e8
        0x01005b32:    4604        .F      MOV      r4,r0
        0x01005b34:    4620         F      MOV      r0,r4
        0x01005b36:    b007        ..      ADD      sp,sp,#0x1c
        0x01005b38:    bdf0        ..      POP      {r4-r7,pc}
    middle_print_line_data_parse
        0x01005b3a:    b5f3        ..      PUSH     {r0,r1,r4-r7,lr}
        0x01005b3c:    b085        ..      SUB      sp,sp,#0x14
        0x01005b3e:    4604        .F      MOV      r4,r0
        0x01005b40:    2500        .%      MOVS     r5,#0
        0x01005b42:    2000        .       MOVS     r0,#0
        0x01005b44:    9004        ..      STR      r0,[sp,#0x10]
        0x01005b46:    bf00        ..      NOP      
        0x01005b48:    e008        ..      B        0x1005b5c ; middle_print_line_data_parse + 34
        0x01005b4a:    9806        ..      LDR      r0,[sp,#0x18]
        0x01005b4c:    5d40        @]      LDRB     r0,[r0,r5]
        0x01005b4e:    4980        .I      LDR      r1,[pc,#512] ; [0x1005d50] = 0x1008273
        0x01005b50:    5c09        .\      LDRB     r1,[r1,r0]
        0x01005b52:    9804        ..      LDR      r0,[sp,#0x10]
        0x01005b54:    1808        ..      ADDS     r0,r1,r0
        0x01005b56:    9004        ..      STR      r0,[sp,#0x10]
        0x01005b58:    1c68        h.      ADDS     r0,r5,#1
        0x01005b5a:    b285        ..      UXTH     r5,r0
        0x01005b5c:    2d48        H-      CMP      r5,#0x48
        0x01005b5e:    dbf4        ..      BLT      0x1005b4a ; middle_print_line_data_parse + 16
        0x01005b60:    9804        ..      LDR      r0,[sp,#0x10]
        0x01005b62:    303f        ?0      ADDS     r0,r0,#0x3f
        0x01005b64:    0280        ..      LSLS     r0,r0,#10
        0x01005b66:    0c06        ..      LSRS     r6,r0,#16
        0x01005b68:    2e00        ..      CMP      r6,#0
        0x01005b6a:    d100        ..      BNE      0x1005b6e ; middle_print_line_data_parse + 52
        0x01005b6c:    2601        .&      MOVS     r6,#1
        0x01005b6e:    9904        ..      LDR      r1,[sp,#0x10]
        0x01005b70:    1989        ..      ADDS     r1,r1,r6
        0x01005b72:    1e48        H.      SUBS     r0,r1,#1
        0x01005b74:    4631        1F      MOV      r1,r6
        0x01005b76:    f000fd21    ..!.    BL       __aeabi_uidiv ; 0x10065bc
        0x01005b7a:    b287        ..      UXTH     r7,r0
        0x01005b7c:    2000        .       MOVS     r0,#0
        0x01005b7e:    8020         .      STRH     r0,[r4,#0]
        0x01005b80:    9003        ..      STR      r0,[sp,#0xc]
        0x01005b82:    2500        .%      MOVS     r5,#0
        0x01005b84:    e023        #.      B        0x1005bce ; middle_print_line_data_parse + 148
        0x01005b86:    2148        H!      MOVS     r1,#0x48
        0x01005b88:    2001        .       MOVS     r0,#1
        0x01005b8a:    f000fb31    ..1.    BL       middle_mmu_alloc ; 0x10061f0
        0x01005b8e:    00aa        ..      LSLS     r2,r5,#2
        0x01005b90:    1d21        !.      ADDS     r1,r4,#4
        0x01005b92:    5088        .P      STR      r0,[r1,r2]
        0x01005b94:    00a9        ..      LSLS     r1,r5,#2
        0x01005b96:    1d20         .      ADDS     r0,r4,#4
        0x01005b98:    5840        @X      LDR      r0,[r0,r1]
        0x01005b9a:    2800        .(      CMP      r0,#0
        0x01005b9c:    d107        ..      BNE      0x1005bae ; middle_print_line_data_parse + 116
        0x01005b9e:    2148        H!      MOVS     r1,#0x48
        0x01005ba0:    a06c        l.      ADR      r0,{pc}+0x1b4 ; 0x1005d54
        0x01005ba2:    f001f80f    ....    BL       __0printf ; 0x1006bc4
        0x01005ba6:    2000        .       MOVS     r0,#0
        0x01005ba8:    43c0        .C      MVNS     r0,r0
        0x01005baa:    b007        ..      ADD      sp,sp,#0x1c
        0x01005bac:    bdf0        ..      POP      {r4-r7,pc}
        0x01005bae:    00a9        ..      LSLS     r1,r5,#2
        0x01005bb0:    1d20         .      ADDS     r0,r4,#4
        0x01005bb2:    9700        ..      STR      r7,[sp,#0]
        0x01005bb4:    5840        @X      LDR      r0,[r0,r1]
        0x01005bb6:    ab03        ..      ADD      r3,sp,#0xc
        0x01005bb8:    2248        H"      MOVS     r2,#0x48
        0x01005bba:    4601        .F      MOV      r1,r0
        0x01005bbc:    9002        ..      STR      r0,[sp,#8]
        0x01005bbe:    9806        ..      LDR      r0,[sp,#0x18]
        0x01005bc0:    f7ffff2a    ..*.    BL       middle_print_line_data_slice ; 0x1005a18
        0x01005bc4:    8820         .      LDRH     r0,[r4,#0]
        0x01005bc6:    1c40        @.      ADDS     r0,r0,#1
        0x01005bc8:    8020         .      STRH     r0,[r4,#0]
        0x01005bca:    1c68        h.      ADDS     r0,r5,#1
        0x01005bcc:    b285        ..      UXTH     r5,r0
        0x01005bce:    42b5        .B      CMP      r5,r6
        0x01005bd0:    dbd9        ..      BLT      0x1005b86 ; middle_print_line_data_parse + 76
        0x01005bd2:    8067        g.      STRH     r7,[r4,#2]
        0x01005bd4:    231e        .#      MOVS     r3,#0x1e
        0x01005bd6:    463a        :F      MOV      r2,r7
        0x01005bd8:    4631        1F      MOV      r1,r6
        0x01005bda:    4868        hH      LDR      r0,[pc,#416] ; [0x1005d7c] = 0xbb8
        0x01005bdc:    f7ffff76    ..v.    BL       middle_print_line_heattime ; 0x1005acc
        0x01005be0:    62a0        .b      STR      r0,[r4,#0x28]
        0x01005be2:    f000fa6f    ..o.    BL       middle_print_motor_linefeed_step ; 0x10060c4
        0x01005be6:    9002        ..      STR      r0,[sp,#8]
        0x01005be8:    8822        ".      LDRH     r2,[r4,#0]
        0x01005bea:    6aa1        .j      LDR      r1,[r4,#0x28]
        0x01005bec:    4351        QC      MULS     r1,r2,r1
        0x01005bee:    4608        .F      MOV      r0,r1
        0x01005bf0:    9902        ..      LDR      r1,[sp,#8]
        0x01005bf2:    f000fce3    ....    BL       __aeabi_uidiv ; 0x10065bc
        0x01005bf6:    62e0        .b      STR      r0,[r4,#0x2c]
        0x01005bf8:    2000        .       MOVS     r0,#0
        0x01005bfa:    e7d6        ..      B        0x1005baa ; middle_print_line_data_parse + 112
    middle_print_list_is_free
        0x01005bfc:    2000        .       MOVS     r0,#0
        0x01005bfe:    4960        `I      LDR      r1,[pc,#384] ; [0x1005d80] = 0x21180
        0x01005c00:    8809        ..      LDRH     r1,[r1,#0]
        0x01005c02:    4a5f        _J      LDR      r2,[pc,#380] ; [0x1005d80] = 0x21180
        0x01005c04:    8852        R.      LDRH     r2,[r2,#2]
        0x01005c06:    4291        .B      CMP      r1,r2
        0x01005c08:    db07        ..      BLT      0x1005c1a ; middle_print_list_is_free + 30
        0x01005c0a:    495d        ]I      LDR      r1,[pc,#372] ; [0x1005d80] = 0x21180
        0x01005c0c:    8809        ..      LDRH     r1,[r1,#0]
        0x01005c0e:    4a5c        \J      LDR      r2,[pc,#368] ; [0x1005d80] = 0x21180
        0x01005c10:    8852        R.      LDRH     r2,[r2,#2]
        0x01005c12:    1a88        ..      SUBS     r0,r1,r2
        0x01005c14:    210a        .!      MOVS     r1,#0xa
        0x01005c16:    1a08        ..      SUBS     r0,r1,r0
        0x01005c18:    e004        ..      B        0x1005c24 ; middle_print_list_is_free + 40
        0x01005c1a:    4959        YI      LDR      r1,[pc,#356] ; [0x1005d80] = 0x21180
        0x01005c1c:    8849        I.      LDRH     r1,[r1,#2]
        0x01005c1e:    4a58        XJ      LDR      r2,[pc,#352] ; [0x1005d80] = 0x21180
        0x01005c20:    8812        ..      LDRH     r2,[r2,#0]
        0x01005c22:    1a88        ..      SUBS     r0,r1,r2
        0x01005c24:    4770        pG      BX       lr
    middle_print_list_is_empty
        0x01005c26:    4856        VH      LDR      r0,[pc,#344] ; [0x1005d80] = 0x21180
        0x01005c28:    8840        @.      LDRH     r0,[r0,#2]
        0x01005c2a:    4955        UI      LDR      r1,[pc,#340] ; [0x1005d80] = 0x21180
        0x01005c2c:    8809        ..      LDRH     r1,[r1,#0]
        0x01005c2e:    4288        .B      CMP      r0,r1
        0x01005c30:    d101        ..      BNE      0x1005c36 ; middle_print_list_is_empty + 16
        0x01005c32:    2001        .       MOVS     r0,#1
        0x01005c34:    4770        pG      BX       lr
        0x01005c36:    2000        .       MOVS     r0,#0
        0x01005c38:    e7fc        ..      B        0x1005c34 ; middle_print_list_is_empty + 14
    middle_print_list_put
        0x01005c3a:    b5f3        ..      PUSH     {r0,r1,r4-r7,lr}
        0x01005c3c:    b08d        ..      SUB      sp,sp,#0x34
        0x01005c3e:    4607        .F      MOV      r7,r0
        0x01005c40:    2148        H!      MOVS     r1,#0x48
        0x01005c42:    980e        ..      LDR      r0,[sp,#0x38]
        0x01005c44:    f000fcd0    ....    BL       __aeabi_idiv ; 0x10065e8
        0x01005c48:    2900        .)      CMP      r1,#0
        0x01005c4a:    d006        ..      BEQ      0x1005c5a ; middle_print_list_put + 32
        0x01005c4c:    a04d        M.      ADR      r0,{pc}+0x138 ; 0x1005d84
        0x01005c4e:    f000ffb9    ....    BL       __0printf ; 0x1006bc4
        0x01005c52:    2000        .       MOVS     r0,#0
        0x01005c54:    43c0        .C      MVNS     r0,r0
        0x01005c56:    b00f        ..      ADD      sp,sp,#0x3c
        0x01005c58:    bdf0        ..      POP      {r4-r7,pc}
        0x01005c5a:    2148        H!      MOVS     r1,#0x48
        0x01005c5c:    980e        ..      LDR      r0,[sp,#0x38]
        0x01005c5e:    f000fcc3    ....    BL       __aeabi_idiv ; 0x10065e8
        0x01005c62:    b284        ..      UXTH     r4,r0
        0x01005c64:    f7ffffca    ....    BL       middle_print_list_is_free ; 0x1005bfc
        0x01005c68:    42a0        .B      CMP      r0,r4
        0x01005c6a:    da05        ..      BGE      0x1005c78 ; middle_print_list_put + 62
        0x01005c6c:    a045        E.      ADR      r0,{pc}+0x118 ; 0x1005d84
        0x01005c6e:    f000ffa9    ....    BL       __0printf ; 0x1006bc4
        0x01005c72:    2000        .       MOVS     r0,#0
        0x01005c74:    43c0        .C      MVNS     r0,r0
        0x01005c76:    e7ee        ..      B        0x1005c56 ; middle_print_list_put + 28
        0x01005c78:    2500        .%      MOVS     r5,#0
        0x01005c7a:    bf00        ..      NOP      
        0x01005c7c:    e02d        -.      B        0x1005cda ; middle_print_list_put + 160
        0x01005c7e:    2048        H       MOVS     r0,#0x48
        0x01005c80:    4368        hC      MULS     r0,r5,r0
        0x01005c82:    19c1        ..      ADDS     r1,r0,r7
        0x01005c84:    a801        ..      ADD      r0,sp,#4
        0x01005c86:    f7ffff58    ..X.    BL       middle_print_line_data_parse ; 0x1005b3a
        0x01005c8a:    2800        .(      CMP      r0,#0
        0x01005c8c:    d00e        ..      BEQ      0x1005cac ; middle_print_list_put + 114
        0x01005c8e:    2600        .&      MOVS     r6,#0
        0x01005c90:    e005        ..      B        0x1005c9e ; middle_print_list_put + 100
        0x01005c92:    00b2        ..      LSLS     r2,r6,#2
        0x01005c94:    a902        ..      ADD      r1,sp,#8
        0x01005c96:    5888        .X      LDR      r0,[r1,r2]
        0x01005c98:    f000fadb    ....    BL       middle_mmu_free ; 0x1006252
        0x01005c9c:    1c76        v.      ADDS     r6,r6,#1
        0x01005c9e:    4668        hF      MOV      r0,sp
        0x01005ca0:    8880        ..      LDRH     r0,[r0,#4]
        0x01005ca2:    42b0        .B      CMP      r0,r6
        0x01005ca4:    dcf5        ..      BGT      0x1005c92 ; middle_print_list_put + 88
        0x01005ca6:    2000        .       MOVS     r0,#0
        0x01005ca8:    43c0        .C      MVNS     r0,r0
        0x01005caa:    e7d4        ..      B        0x1005c56 ; middle_print_list_put + 28
        0x01005cac:    4934        4I      LDR      r1,[pc,#208] ; [0x1005d80] = 0x21180
        0x01005cae:    8809        ..      LDRH     r1,[r1,#0]
        0x01005cb0:    2230        0"      MOVS     r2,#0x30
        0x01005cb2:    4351        QC      MULS     r1,r2,r1
        0x01005cb4:    4a32        2J      LDR      r2,[pc,#200] ; [0x1005d80] = 0x21180
        0x01005cb6:    1d12        ..      ADDS     r2,r2,#4
        0x01005cb8:    1888        ..      ADDS     r0,r1,r2
        0x01005cba:    2230        0"      MOVS     r2,#0x30
        0x01005cbc:    a901        ..      ADD      r1,sp,#4
        0x01005cbe:    f000fca7    ....    BL       __aeabi_memcpy ; 0x1006610
        0x01005cc2:    482f        /H      LDR      r0,[pc,#188] ; [0x1005d80] = 0x21180
        0x01005cc4:    8800        ..      LDRH     r0,[r0,#0]
        0x01005cc6:    1c40        @.      ADDS     r0,r0,#1
        0x01005cc8:    b280        ..      UXTH     r0,r0
        0x01005cca:    492d        -I      LDR      r1,[pc,#180] ; [0x1005d80] = 0x21180
        0x01005ccc:    8008        ..      STRH     r0,[r1,#0]
        0x01005cce:    280a        .(      CMP      r0,#0xa
        0x01005cd0:    db01        ..      BLT      0x1005cd6 ; middle_print_list_put + 156
        0x01005cd2:    2000        .       MOVS     r0,#0
        0x01005cd4:    8008        ..      STRH     r0,[r1,#0]
        0x01005cd6:    1c68        h.      ADDS     r0,r5,#1
        0x01005cd8:    b285        ..      UXTH     r5,r0
        0x01005cda:    42a5        .B      CMP      r5,r4
        0x01005cdc:    dbcf        ..      BLT      0x1005c7e ; middle_print_list_put + 68
        0x01005cde:    2000        .       MOVS     r0,#0
        0x01005ce0:    e7b9        ..      B        0x1005c56 ; middle_print_list_put + 28
    middle_print_list_get
        0x01005ce2:    b500        ..      PUSH     {lr}
        0x01005ce4:    f7ffff9f    ....    BL       middle_print_list_is_empty ; 0x1005c26
        0x01005ce8:    2800        .(      CMP      r0,#0
        0x01005cea:    d001        ..      BEQ      0x1005cf0 ; middle_print_list_get + 14
        0x01005cec:    2000        .       MOVS     r0,#0
        0x01005cee:    bd00        ..      POP      {pc}
        0x01005cf0:    4823        #H      LDR      r0,[pc,#140] ; [0x1005d80] = 0x21180
        0x01005cf2:    8840        @.      LDRH     r0,[r0,#2]
        0x01005cf4:    2130        0!      MOVS     r1,#0x30
        0x01005cf6:    4348        HC      MULS     r0,r1,r0
        0x01005cf8:    4921        !I      LDR      r1,[pc,#132] ; [0x1005d80] = 0x21180
        0x01005cfa:    1d09        ..      ADDS     r1,r1,#4
        0x01005cfc:    1842        B.      ADDS     r2,r0,r1
        0x01005cfe:    1f08        ..      SUBS     r0,r1,#4
        0x01005d00:    8840        @.      LDRH     r0,[r0,#2]
        0x01005d02:    1c40        @.      ADDS     r0,r0,#1
        0x01005d04:    b280        ..      UXTH     r0,r0
        0x01005d06:    1f09        ..      SUBS     r1,r1,#4
        0x01005d08:    8048        H.      STRH     r0,[r1,#2]
        0x01005d0a:    280a        .(      CMP      r0,#0xa
        0x01005d0c:    db01        ..      BLT      0x1005d12 ; middle_print_list_get + 48
        0x01005d0e:    2000        .       MOVS     r0,#0
        0x01005d10:    8048        H.      STRH     r0,[r1,#2]
        0x01005d12:    4610        .F      MOV      r0,r2
        0x01005d14:    e7eb        ..      B        0x1005cee ; middle_print_list_get + 12
    middle_print_list_destory
        0x01005d16:    b570        p.      PUSH     {r4-r6,lr}
        0x01005d18:    4604        .F      MOV      r4,r0
        0x01005d1a:    2c00        .,      CMP      r4,#0
        0x01005d1c:    d00c        ..      BEQ      0x1005d38 ; middle_print_list_destory + 34
        0x01005d1e:    2500        .%      MOVS     r5,#0
        0x01005d20:    e005        ..      B        0x1005d2e ; middle_print_list_destory + 24
        0x01005d22:    00aa        ..      LSLS     r2,r5,#2
        0x01005d24:    1d21        !.      ADDS     r1,r4,#4
        0x01005d26:    5888        .X      LDR      r0,[r1,r2]
        0x01005d28:    f000fa93    ....    BL       middle_mmu_free ; 0x1006252
        0x01005d2c:    1c6d        m.      ADDS     r5,r5,#1
        0x01005d2e:    8820         .      LDRH     r0,[r4,#0]
        0x01005d30:    42a8        .B      CMP      r0,r5
        0x01005d32:    dcf6        ..      BGT      0x1005d22 ; middle_print_list_destory + 12
        0x01005d34:    2000        .       MOVS     r0,#0
        0x01005d36:    bd70        p.      POP      {r4-r6,pc}
        0x01005d38:    2000        .       MOVS     r0,#0
        0x01005d3a:    43c0        .C      MVNS     r0,r0
        0x01005d3c:    e7fb        ..      B        0x1005d36 ; middle_print_list_destory + 32
    middle_print_list_init
        0x01005d3e:    b510        ..      PUSH     {r4,lr}
        0x01005d40:    21ff        .!      MOVS     r1,#0xff
        0x01005d42:    31e5        .1      ADDS     r1,r1,#0xe5
        0x01005d44:    480e        .H      LDR      r0,[pc,#56] ; [0x1005d80] = 0x21180
        0x01005d46:    f000fc7c    ..|.    BL       __aeabi_memclr ; 0x1006642
        0x01005d4a:    2000        .       MOVS     r0,#0
        0x01005d4c:    bd10        ..      POP      {r4,pc}
    $d
        0x01005d4e:    0000        ..      DCW    0
        0x01005d50:    01008273    s...    DCD    16810611
        0x01005d54:    6e697270    prin    DCD    1852404336
        0x01005d58:    65732074    t se    DCD    1702043764
        0x01005d5c:    6e656d67    gmen    DCD    1852140903
        0x01005d60:    61642074    t da    DCD    1633951860
        0x01005d64:    6d206174    ta m    DCD    1830838644
        0x01005d68:    6f6c6c61    allo    DCD    1869376609
        0x01005d6c:    64252063    c %d    DCD    1680154723
        0x01005d70:    6c616620     fal    DCD    1818322464
        0x01005d74:    0d646569    ied.    DCD    224683369
        0x01005d78:    0000000a    ....    DCD    10
        0x01005d7c:    00000bb8    ....    DCD    3000
        0x01005d80:    00021180    ....    DCD    135552
        0x01005d84:    6e697270    prin    DCD    1852404336
        0x01005d88:    696c2074    t li    DCD    1768693876
        0x01005d8c:    6420656e    ne d    DCD    1679844718
        0x01005d90:    20617461    ata     DCD    543257697
        0x01005d94:    657a6973    size    DCD    1702521203
        0x01005d98:    72726520     err    DCD    1920099616
        0x01005d9c:    0a0d726f    or..    DCD    168653423
        0x01005da0:    00000000    ....    DCD    0
    $t
    .text
    middle_print_motor_spwm_handle
        0x01005da4:    b510        ..      PUSH     {r4,lr}
        0x01005da6:    48f5        .H      LDR      r0,[pc,#980] ; [0x100617c] = 0x21364
        0x01005da8:    6900        .i      LDR      r0,[r0,#0x10]
        0x01005daa:    49f4        .I      LDR      r1,[pc,#976] ; [0x100617c] = 0x21364
        0x01005dac:    6949        Ii      LDR      r1,[r1,#0x14]
        0x01005dae:    4288        .B      CMP      r0,r1
        0x01005db0:    d303        ..      BCC      0x1005dba ; middle_print_motor_spwm_handle + 22
        0x01005db2:    f7fefcf1    ....    BL       hal_print_motor_stop ; 0x1004798
        0x01005db6:    2000        .       MOVS     r0,#0
        0x01005db8:    bd10        ..      POP      {r4,pc}
        0x01005dba:    48f0        .H      LDR      r0,[pc,#960] ; [0x100617c] = 0x21364
        0x01005dbc:    69c0        .i      LDR      r0,[r0,#0x1c]
        0x01005dbe:    49ef        .I      LDR      r1,[pc,#956] ; [0x100617c] = 0x21364
        0x01005dc0:    6a09        .j      LDR      r1,[r1,#0x20]
        0x01005dc2:    4288        .B      CMP      r0,r1
        0x01005dc4:    d007        ..      BEQ      0x1005dd6 ; middle_print_motor_spwm_handle + 50
        0x01005dc6:    49ed        .I      LDR      r1,[pc,#948] ; [0x100617c] = 0x21364
        0x01005dc8:    6a08        .j      LDR      r0,[r1,#0x20]
        0x01005dca:    f7fefcd3    ....    BL       hal_print_motor_speed_time ; 0x1004774
        0x01005dce:    48eb        .H      LDR      r0,[pc,#940] ; [0x100617c] = 0x21364
        0x01005dd0:    6a00        .j      LDR      r0,[r0,#0x20]
        0x01005dd2:    49ea        .I      LDR      r1,[pc,#936] ; [0x100617c] = 0x21364
        0x01005dd4:    61c8        .a      STR      r0,[r1,#0x1c]
        0x01005dd6:    48e9        .H      LDR      r0,[pc,#932] ; [0x100617c] = 0x21364
        0x01005dd8:    7880        .x      LDRB     r0,[r0,#2]
        0x01005dda:    2848        H(      CMP      r0,#0x48
        0x01005ddc:    db02        ..      BLT      0x1005de4 ; middle_print_motor_spwm_handle + 64
        0x01005dde:    2000        .       MOVS     r0,#0
        0x01005de0:    49e6        .I      LDR      r1,[pc,#920] ; [0x100617c] = 0x21364
        0x01005de2:    7088        .p      STRB     r0,[r1,#2]
        0x01005de4:    48e5        .H      LDR      r0,[pc,#916] ; [0x100617c] = 0x21364
        0x01005de6:    7880        .x      LDRB     r0,[r0,#2]
        0x01005de8:    1c40        @.      ADDS     r0,r0,#1
        0x01005dea:    b2c4        ..      UXTB     r4,r0
        0x01005dec:    2c12        .,      CMP      r4,#0x12
        0x01005dee:    dc2a        *.      BGT      0x1005e46 ; middle_print_motor_spwm_handle + 162
        0x01005df0:    2012        .       MOVS     r0,#0x12
        0x01005df2:    1b00        ..      SUBS     r0,r0,r4
        0x01005df4:    1c40        @.      ADDS     r0,r0,#1
        0x01005df6:    0040        @.      LSLS     r0,r0,#1
        0x01005df8:    49e1        .I      LDR      r1,[pc,#900] ; [0x1006180] = 0x1008374
        0x01005dfa:    5a08        .Z      LDRH     r0,[r1,r0]
        0x01005dfc:    49e1        .I      LDR      r1,[pc,#900] ; [0x1006184] = 0xf0c00
        0x01005dfe:    6008        .`      STR      r0,[r1,#0]
        0x01005e00:    2012        .       MOVS     r0,#0x12
        0x01005e02:    1b00        ..      SUBS     r0,r0,r4
        0x01005e04:    1c40        @.      ADDS     r0,r0,#1
        0x01005e06:    0040        @.      LSLS     r0,r0,#1
        0x01005e08:    49dd        .I      LDR      r1,[pc,#884] ; [0x1006180] = 0x1008374
        0x01005e0a:    5a08        .Z      LDRH     r0,[r1,r0]
        0x01005e0c:    21ff        .!      MOVS     r1,#0xff
        0x01005e0e:    31e1        .1      ADDS     r1,r1,#0xe1
        0x01005e10:    1a08        ..      SUBS     r0,r1,r0
        0x01005e12:    49dc        .I      LDR      r1,[pc,#880] ; [0x1006184] = 0xf0c00
        0x01005e14:    6048        H`      STR      r0,[r1,#4]
        0x01005e16:    0060        `.      LSLS     r0,r4,#1
        0x01005e18:    49d9        .I      LDR      r1,[pc,#868] ; [0x1006180] = 0x1008374
        0x01005e1a:    5a08        .Z      LDRH     r0,[r1,r0]
        0x01005e1c:    49d9        .I      LDR      r1,[pc,#868] ; [0x1006184] = 0xf0c00
        0x01005e1e:    6108        .a      STR      r0,[r1,#0x10]
        0x01005e20:    0060        `.      LSLS     r0,r4,#1
        0x01005e22:    49d7        .I      LDR      r1,[pc,#860] ; [0x1006180] = 0x1008374
        0x01005e24:    5a08        .Z      LDRH     r0,[r1,r0]
        0x01005e26:    21ff        .!      MOVS     r1,#0xff
        0x01005e28:    31e1        .1      ADDS     r1,r1,#0xe1
        0x01005e2a:    1a08        ..      SUBS     r0,r1,r0
        0x01005e2c:    49d5        .I      LDR      r1,[pc,#852] ; [0x1006184] = 0xf0c00
        0x01005e2e:    6148        Ha      STR      r0,[r1,#0x14]
        0x01005e30:    2000        .       MOVS     r0,#0
        0x01005e32:    6088        .`      STR      r0,[r1,#8]
        0x01005e34:    20ff        .       MOVS     r0,#0xff
        0x01005e36:    30e1        .0      ADDS     r0,r0,#0xe1
        0x01005e38:    60c8        .`      STR      r0,[r1,#0xc]
        0x01005e3a:    2000        .       MOVS     r0,#0
        0x01005e3c:    6188        .a      STR      r0,[r1,#0x18]
        0x01005e3e:    20ff        .       MOVS     r0,#0xff
        0x01005e40:    30e1        .0      ADDS     r0,r0,#0xe1
        0x01005e42:    61c8        .a      STR      r0,[r1,#0x1c]
        0x01005e44:    e08d        ..      B        0x1005f62 ; middle_print_motor_spwm_handle + 446
        0x01005e46:    2c24        $,      CMP      r4,#0x24
        0x01005e48:    dc2c        ,.      BGT      0x1005ea4 ; middle_print_motor_spwm_handle + 256
        0x01005e4a:    2024        $       MOVS     r0,#0x24
        0x01005e4c:    1b00        ..      SUBS     r0,r0,r4
        0x01005e4e:    0040        @.      LSLS     r0,r0,#1
        0x01005e50:    49cb        .I      LDR      r1,[pc,#812] ; [0x1006180] = 0x1008374
        0x01005e52:    5a08        .Z      LDRH     r0,[r1,r0]
        0x01005e54:    49cb        .I      LDR      r1,[pc,#812] ; [0x1006184] = 0xf0c00
        0x01005e56:    6108        .a      STR      r0,[r1,#0x10]
        0x01005e58:    2024        $       MOVS     r0,#0x24
        0x01005e5a:    1b00        ..      SUBS     r0,r0,r4
        0x01005e5c:    0040        @.      LSLS     r0,r0,#1
        0x01005e5e:    49c8        .I      LDR      r1,[pc,#800] ; [0x1006180] = 0x1008374
        0x01005e60:    5a08        .Z      LDRH     r0,[r1,r0]
        0x01005e62:    21ff        .!      MOVS     r1,#0xff
        0x01005e64:    31e1        .1      ADDS     r1,r1,#0xe1
        0x01005e66:    1a08        ..      SUBS     r0,r1,r0
        0x01005e68:    49c6        .I      LDR      r1,[pc,#792] ; [0x1006184] = 0xf0c00
        0x01005e6a:    6148        Ha      STR      r0,[r1,#0x14]
        0x01005e6c:    4620         F      MOV      r0,r4
        0x01005e6e:    3813        .8      SUBS     r0,r0,#0x13
        0x01005e70:    0040        @.      LSLS     r0,r0,#1
        0x01005e72:    49c3        .I      LDR      r1,[pc,#780] ; [0x1006180] = 0x1008374
        0x01005e74:    5a08        .Z      LDRH     r0,[r1,r0]
        0x01005e76:    49c3        .I      LDR      r1,[pc,#780] ; [0x1006184] = 0xf0c00
        0x01005e78:    6088        .`      STR      r0,[r1,#8]
        0x01005e7a:    4620         F      MOV      r0,r4
        0x01005e7c:    3813        .8      SUBS     r0,r0,#0x13
        0x01005e7e:    0040        @.      LSLS     r0,r0,#1
        0x01005e80:    49bf        .I      LDR      r1,[pc,#764] ; [0x1006180] = 0x1008374
        0x01005e82:    5a08        .Z      LDRH     r0,[r1,r0]
        0x01005e84:    21ff        .!      MOVS     r1,#0xff
        0x01005e86:    31e1        .1      ADDS     r1,r1,#0xe1
        0x01005e88:    1a08        ..      SUBS     r0,r1,r0
        0x01005e8a:    49be        .I      LDR      r1,[pc,#760] ; [0x1006184] = 0xf0c00
        0x01005e8c:    60c8        .`      STR      r0,[r1,#0xc]
        0x01005e8e:    2000        .       MOVS     r0,#0
        0x01005e90:    6008        .`      STR      r0,[r1,#0]
        0x01005e92:    20ff        .       MOVS     r0,#0xff
        0x01005e94:    30e1        .0      ADDS     r0,r0,#0xe1
        0x01005e96:    6048        H`      STR      r0,[r1,#4]
        0x01005e98:    2000        .       MOVS     r0,#0
        0x01005e9a:    6188        .a      STR      r0,[r1,#0x18]
        0x01005e9c:    20ff        .       MOVS     r0,#0xff
        0x01005e9e:    30e1        .0      ADDS     r0,r0,#0xe1
        0x01005ea0:    61c8        .a      STR      r0,[r1,#0x1c]
        0x01005ea2:    e05e        ^.      B        0x1005f62 ; middle_print_motor_spwm_handle + 446
        0x01005ea4:    2c36        6,      CMP      r4,#0x36
        0x01005ea6:    dc2e        ..      BGT      0x1005f06 ; middle_print_motor_spwm_handle + 354
        0x01005ea8:    2036        6       MOVS     r0,#0x36
        0x01005eaa:    1b00        ..      SUBS     r0,r0,r4
        0x01005eac:    1c40        @.      ADDS     r0,r0,#1
        0x01005eae:    0040        @.      LSLS     r0,r0,#1
        0x01005eb0:    49b3        .I      LDR      r1,[pc,#716] ; [0x1006180] = 0x1008374
        0x01005eb2:    5a08        .Z      LDRH     r0,[r1,r0]
        0x01005eb4:    49b3        .I      LDR      r1,[pc,#716] ; [0x1006184] = 0xf0c00
        0x01005eb6:    6088        .`      STR      r0,[r1,#8]
        0x01005eb8:    2036        6       MOVS     r0,#0x36
        0x01005eba:    1b00        ..      SUBS     r0,r0,r4
        0x01005ebc:    1c40        @.      ADDS     r0,r0,#1
        0x01005ebe:    0040        @.      LSLS     r0,r0,#1
        0x01005ec0:    49af        .I      LDR      r1,[pc,#700] ; [0x1006180] = 0x1008374
        0x01005ec2:    5a08        .Z      LDRH     r0,[r1,r0]
        0x01005ec4:    21ff        .!      MOVS     r1,#0xff
        0x01005ec6:    31e1        .1      ADDS     r1,r1,#0xe1
        0x01005ec8:    1a08        ..      SUBS     r0,r1,r0
        0x01005eca:    49ae        .I      LDR      r1,[pc,#696] ; [0x1006184] = 0xf0c00
        0x01005ecc:    60c8        .`      STR      r0,[r1,#0xc]
        0x01005ece:    4620         F      MOV      r0,r4
        0x01005ed0:    3824        $8      SUBS     r0,r0,#0x24
        0x01005ed2:    0040        @.      LSLS     r0,r0,#1
        0x01005ed4:    49aa        .I      LDR      r1,[pc,#680] ; [0x1006180] = 0x1008374
        0x01005ed6:    5a08        .Z      LDRH     r0,[r1,r0]
        0x01005ed8:    49aa        .I      LDR      r1,[pc,#680] ; [0x1006184] = 0xf0c00
        0x01005eda:    6188        .a      STR      r0,[r1,#0x18]
        0x01005edc:    4620         F      MOV      r0,r4
        0x01005ede:    3824        $8      SUBS     r0,r0,#0x24
        0x01005ee0:    0040        @.      LSLS     r0,r0,#1
        0x01005ee2:    49a7        .I      LDR      r1,[pc,#668] ; [0x1006180] = 0x1008374
        0x01005ee4:    5a08        .Z      LDRH     r0,[r1,r0]
        0x01005ee6:    21ff        .!      MOVS     r1,#0xff
        0x01005ee8:    31e1        .1      ADDS     r1,r1,#0xe1
        0x01005eea:    1a08        ..      SUBS     r0,r1,r0
        0x01005eec:    49a5        .I      LDR      r1,[pc,#660] ; [0x1006184] = 0xf0c00
        0x01005eee:    61c8        .a      STR      r0,[r1,#0x1c]
        0x01005ef0:    2000        .       MOVS     r0,#0
        0x01005ef2:    6008        .`      STR      r0,[r1,#0]
        0x01005ef4:    20ff        .       MOVS     r0,#0xff
        0x01005ef6:    30e1        .0      ADDS     r0,r0,#0xe1
        0x01005ef8:    6048        H`      STR      r0,[r1,#4]
        0x01005efa:    2000        .       MOVS     r0,#0
        0x01005efc:    6108        .a      STR      r0,[r1,#0x10]
        0x01005efe:    20ff        .       MOVS     r0,#0xff
        0x01005f00:    30e1        .0      ADDS     r0,r0,#0xe1
        0x01005f02:    6148        Ha      STR      r0,[r1,#0x14]
        0x01005f04:    e02d        -.      B        0x1005f62 ; middle_print_motor_spwm_handle + 446
        0x01005f06:    2c48        H,      CMP      r4,#0x48
        0x01005f08:    dc2b        +.      BGT      0x1005f62 ; middle_print_motor_spwm_handle + 446
        0x01005f0a:    2048        H       MOVS     r0,#0x48
        0x01005f0c:    1b00        ..      SUBS     r0,r0,r4
        0x01005f0e:    0040        @.      LSLS     r0,r0,#1
        0x01005f10:    499b        .I      LDR      r1,[pc,#620] ; [0x1006180] = 0x1008374
        0x01005f12:    5a08        .Z      LDRH     r0,[r1,r0]
        0x01005f14:    499b        .I      LDR      r1,[pc,#620] ; [0x1006184] = 0xf0c00
        0x01005f16:    6188        .a      STR      r0,[r1,#0x18]
        0x01005f18:    2048        H       MOVS     r0,#0x48
        0x01005f1a:    1b00        ..      SUBS     r0,r0,r4
        0x01005f1c:    0040        @.      LSLS     r0,r0,#1
        0x01005f1e:    4998        .I      LDR      r1,[pc,#608] ; [0x1006180] = 0x1008374
        0x01005f20:    5a08        .Z      LDRH     r0,[r1,r0]
        0x01005f22:    21ff        .!      MOVS     r1,#0xff
        0x01005f24:    31e1        .1      ADDS     r1,r1,#0xe1
        0x01005f26:    1a08        ..      SUBS     r0,r1,r0
        0x01005f28:    4996        .I      LDR      r1,[pc,#600] ; [0x1006184] = 0xf0c00
        0x01005f2a:    61c8        .a      STR      r0,[r1,#0x1c]
        0x01005f2c:    4620         F      MOV      r0,r4
        0x01005f2e:    3837        78      SUBS     r0,r0,#0x37
        0x01005f30:    0040        @.      LSLS     r0,r0,#1
        0x01005f32:    4993        .I      LDR      r1,[pc,#588] ; [0x1006180] = 0x1008374
        0x01005f34:    5a08        .Z      LDRH     r0,[r1,r0]
        0x01005f36:    4993        .I      LDR      r1,[pc,#588] ; [0x1006184] = 0xf0c00
        0x01005f38:    6008        .`      STR      r0,[r1,#0]
        0x01005f3a:    4620         F      MOV      r0,r4
        0x01005f3c:    3837        78      SUBS     r0,r0,#0x37
        0x01005f3e:    0040        @.      LSLS     r0,r0,#1
        0x01005f40:    498f        .I      LDR      r1,[pc,#572] ; [0x1006180] = 0x1008374
        0x01005f42:    5a08        .Z      LDRH     r0,[r1,r0]
        0x01005f44:    21ff        .!      MOVS     r1,#0xff
        0x01005f46:    31e1        .1      ADDS     r1,r1,#0xe1
        0x01005f48:    1a08        ..      SUBS     r0,r1,r0
        0x01005f4a:    498e        .I      LDR      r1,[pc,#568] ; [0x1006184] = 0xf0c00
        0x01005f4c:    6048        H`      STR      r0,[r1,#4]
        0x01005f4e:    2000        .       MOVS     r0,#0
        0x01005f50:    6088        .`      STR      r0,[r1,#8]
        0x01005f52:    20ff        .       MOVS     r0,#0xff
        0x01005f54:    30e1        .0      ADDS     r0,r0,#0xe1
        0x01005f56:    60c8        .`      STR      r0,[r1,#0xc]
        0x01005f58:    2000        .       MOVS     r0,#0
        0x01005f5a:    6108        .a      STR      r0,[r1,#0x10]
        0x01005f5c:    20ff        .       MOVS     r0,#0xff
        0x01005f5e:    30e1        .0      ADDS     r0,r0,#0xe1
        0x01005f60:    6148        Ha      STR      r0,[r1,#0x14]
        0x01005f62:    4886        .H      LDR      r0,[pc,#536] ; [0x100617c] = 0x21364
        0x01005f64:    6900        .i      LDR      r0,[r0,#0x10]
        0x01005f66:    1c40        @.      ADDS     r0,r0,#1
        0x01005f68:    4984        .I      LDR      r1,[pc,#528] ; [0x100617c] = 0x21364
        0x01005f6a:    6108        .a      STR      r0,[r1,#0x10]
        0x01005f6c:    4608        .F      MOV      r0,r1
        0x01005f6e:    7084        .p      STRB     r4,[r0,#2]
        0x01005f70:    2000        .       MOVS     r0,#0
        0x01005f72:    e721        !.      B        0x1005db8 ; middle_print_motor_spwm_handle + 20
    middle_print_motor_linefeed_completed
        0x01005f74:    4881        .H      LDR      r0,[pc,#516] ; [0x100617c] = 0x21364
        0x01005f76:    6900        .i      LDR      r0,[r0,#0x10]
        0x01005f78:    4980        .I      LDR      r1,[pc,#512] ; [0x100617c] = 0x21364
        0x01005f7a:    68c9        .h      LDR      r1,[r1,#0xc]
        0x01005f7c:    1a40        @.      SUBS     r0,r0,r1
        0x01005f7e:    2824        $(      CMP      r0,#0x24
        0x01005f80:    d305        ..      BCC      0x1005f8e ; middle_print_motor_linefeed_completed + 26
        0x01005f82:    487e        ~H      LDR      r0,[pc,#504] ; [0x100617c] = 0x21364
        0x01005f84:    6900        .i      LDR      r0,[r0,#0x10]
        0x01005f86:    497d        }I      LDR      r1,[pc,#500] ; [0x100617c] = 0x21364
        0x01005f88:    60c8        .`      STR      r0,[r1,#0xc]
        0x01005f8a:    2001        .       MOVS     r0,#1
        0x01005f8c:    4770        pG      BX       lr
        0x01005f8e:    2000        .       MOVS     r0,#0
        0x01005f90:    e7fc        ..      B        0x1005f8c ; middle_print_motor_linefeed_completed + 24
    middle_print_line_data_latch
        0x01005f92:    b510        ..      PUSH     {r4,lr}
        0x01005f94:    4879        yH      LDR      r0,[pc,#484] ; [0x100617c] = 0x21364
        0x01005f96:    8880        ..      LDRH     r0,[r0,#4]
        0x01005f98:    0082        ..      LSLS     r2,r0,#2
        0x01005f9a:    487b        {H      LDR      r0,[pc,#492] ; [0x1006188] = 0x20060
        0x01005f9c:    6800        .h      LDR      r0,[r0,#0]
        0x01005f9e:    1d00        ..      ADDS     r0,r0,#4
        0x01005fa0:    5881        .X      LDR      r1,[r0,r2]
        0x01005fa2:    2248        H"      MOVS     r2,#0x48
        0x01005fa4:    4879        yH      LDR      r0,[pc,#484] ; [0x100618c] = 0x21388
        0x01005fa6:    f000fb33    ..3.    BL       __aeabi_memcpy ; 0x1006610
        0x01005faa:    2148        H!      MOVS     r1,#0x48
        0x01005fac:    4877        wH      LDR      r0,[pc,#476] ; [0x100618c] = 0x21388
        0x01005fae:    f7fefbaf    ....    BL       hal_print_send_data ; 0x1004710
        0x01005fb2:    2000        .       MOVS     r0,#0
        0x01005fb4:    bd10        ..      POP      {r4,pc}
    middle_print_latch_to_heat_handle
        0x01005fb6:    b510        ..      PUSH     {r4,lr}
        0x01005fb8:    2101        .!      MOVS     r1,#1
        0x01005fba:    03c9        ..      LSLS     r1,r1,#15
        0x01005fbc:    2000        .       MOVS     r0,#0
        0x01005fbe:    f7fafe0c    ....    BL       GPIO_ResetBits ; 0x1000bda
        0x01005fc2:    2001        .       MOVS     r0,#1
        0x01005fc4:    496d        mI      LDR      r1,[pc,#436] ; [0x100617c] = 0x21364
        0x01005fc6:    7008        .p      STRB     r0,[r1,#0]
        0x01005fc8:    2005        .       MOVS     r0,#5
        0x01005fca:    f7fefbb6    ....    BL       hal_print_heat_time ; 0x100473a
        0x01005fce:    2000        .       MOVS     r0,#0
        0x01005fd0:    bd10        ..      POP      {r4,pc}
    middle_print_stop
        0x01005fd2:    b510        ..      PUSH     {r4,lr}
        0x01005fd4:    f7fefbc3    ....    BL       hal_print_stop ; 0x100475e
        0x01005fd8:    2108        .!      MOVS     r1,#8
        0x01005fda:    2000        .       MOVS     r0,#0
        0x01005fdc:    f7fafdfd    ....    BL       GPIO_ResetBits ; 0x1000bda
        0x01005fe0:    2000        .       MOVS     r0,#0
        0x01005fe2:    4966        fI      LDR      r1,[pc,#408] ; [0x100617c] = 0x21364
        0x01005fe4:    7008        .p      STRB     r0,[r1,#0]
        0x01005fe6:    7048        Hp      STRB     r0,[r1,#1]
        0x01005fe8:    a269        i.      ADR      r2,{pc}+0x1a8 ; 0x1006190
        0x01005fea:    a16b        k.      ADR      r1,{pc}+0x1ae ; 0x1006198
        0x01005fec:    a06b        k.      ADR      r0,{pc}+0x1b0 ; 0x100619c
        0x01005fee:    f7fefb3f    ..?.    BL       hal_log_printf ; 0x1004670
        0x01005ff2:    2000        .       MOVS     r0,#0
        0x01005ff4:    bd10        ..      POP      {r4,pc}
    middle_print_heat_haddle
        0x01005ff6:    b510        ..      PUSH     {r4,lr}
        0x01005ff8:    4860        `H      LDR      r0,[pc,#384] ; [0x100617c] = 0x21364
        0x01005ffa:    7800        .x      LDRB     r0,[r0,#0]
        0x01005ffc:    2801        .(      CMP      r0,#1
        0x01005ffe:    d10a        ..      BNE      0x1006016 ; middle_print_heat_haddle + 32
        0x01006000:    03c1        ..      LSLS     r1,r0,#15
        0x01006002:    2000        .       MOVS     r0,#0
        0x01006004:    f7fafe5e    ..^.    BL       GPIO_SetBits ; 0x1000cc4
        0x01006008:    2002        .       MOVS     r0,#2
        0x0100600a:    495c        \I      LDR      r1,[pc,#368] ; [0x100617c] = 0x21364
        0x0100600c:    7008        .p      STRB     r0,[r1,#0]
        0x0100600e:    200a        .       MOVS     r0,#0xa
        0x01006010:    f7fefb93    ....    BL       hal_print_heat_time ; 0x100473a
        0x01006014:    e054        T.      B        0x10060c0 ; middle_print_heat_haddle + 202
        0x01006016:    4859        YH      LDR      r0,[pc,#356] ; [0x100617c] = 0x21364
        0x01006018:    7800        .x      LDRB     r0,[r0,#0]
        0x0100601a:    2802        .(      CMP      r0,#2
        0x0100601c:    d106        ..      BNE      0x100602c ; middle_print_heat_haddle + 54
        0x0100601e:    2003        .       MOVS     r0,#3
        0x01006020:    4956        VI      LDR      r1,[pc,#344] ; [0x100617c] = 0x21364
        0x01006022:    7008        .p      STRB     r0,[r1,#0]
        0x01006024:    6988        .i      LDR      r0,[r1,#0x18]
        0x01006026:    f7fefb88    ....    BL       hal_print_heat_time ; 0x100473a
        0x0100602a:    e049        I.      B        0x10060c0 ; middle_print_heat_haddle + 202
        0x0100602c:    4853        SH      LDR      r0,[pc,#332] ; [0x100617c] = 0x21364
        0x0100602e:    7800        .x      LDRB     r0,[r0,#0]
        0x01006030:    2803        .(      CMP      r0,#3
        0x01006032:    d137        7.      BNE      0x10060a4 ; middle_print_heat_haddle + 174
        0x01006034:    2104        .!      MOVS     r1,#4
        0x01006036:    2001        .       MOVS     r0,#1
        0x01006038:    f7fafdcf    ....    BL       GPIO_ResetBits ; 0x1000bda
        0x0100603c:    484f        OH      LDR      r0,[pc,#316] ; [0x100617c] = 0x21364
        0x0100603e:    8880        ..      LDRH     r0,[r0,#4]
        0x01006040:    1c40        @.      ADDS     r0,r0,#1
        0x01006042:    494e        NI      LDR      r1,[pc,#312] ; [0x100617c] = 0x21364
        0x01006044:    8088        ..      STRH     r0,[r1,#4]
        0x01006046:    4608        .F      MOV      r0,r1
        0x01006048:    8880        ..      LDRH     r0,[r0,#4]
        0x0100604a:    88c9        ..      LDRH     r1,[r1,#6]
        0x0100604c:    4288        .B      CMP      r0,r1
        0x0100604e:    da02        ..      BGE      0x1006056 ; middle_print_heat_haddle + 96
        0x01006050:    f7ffff9f    ....    BL       middle_print_line_data_latch ; 0x1005f92
        0x01006054:    e034        4.      B        0x10060c0 ; middle_print_heat_haddle + 202
        0x01006056:    2000        .       MOVS     r0,#0
        0x01006058:    4948        HI      LDR      r1,[pc,#288] ; [0x100617c] = 0x21364
        0x0100605a:    8088        ..      STRH     r0,[r1,#4]
        0x0100605c:    2004        .       MOVS     r0,#4
        0x0100605e:    7008        .p      STRB     r0,[r1,#0]
        0x01006060:    4849        IH      LDR      r0,[pc,#292] ; [0x1006188] = 0x20060
        0x01006062:    6800        .h      LDR      r0,[r0,#0]
        0x01006064:    f7fffe57    ..W.    BL       middle_print_list_destory ; 0x1005d16
        0x01006068:    2000        .       MOVS     r0,#0
        0x0100606a:    4947        GI      LDR      r1,[pc,#284] ; [0x1006188] = 0x20060
        0x0100606c:    6008        .`      STR      r0,[r1,#0]
        0x0100606e:    f7fffe38    ..8.    BL       middle_print_list_get ; 0x1005ce2
        0x01006072:    4945        EI      LDR      r1,[pc,#276] ; [0x1006188] = 0x20060
        0x01006074:    6008        .`      STR      r0,[r1,#0]
        0x01006076:    4608        .F      MOV      r0,r1
        0x01006078:    6800        .h      LDR      r0,[r0,#0]
        0x0100607a:    2800        .(      CMP      r0,#0
        0x0100607c:    d102        ..      BNE      0x1006084 ; middle_print_heat_haddle + 142
        0x0100607e:    f7ffffa8    ....    BL       middle_print_stop ; 0x1005fd2
        0x01006082:    e01d        ..      B        0x10060c0 ; middle_print_heat_haddle + 202
        0x01006084:    4840        @H      LDR      r0,[pc,#256] ; [0x1006188] = 0x20060
        0x01006086:    6800        .h      LDR      r0,[r0,#0]
        0x01006088:    6a80        .j      LDR      r0,[r0,#0x28]
        0x0100608a:    493c        <I      LDR      r1,[pc,#240] ; [0x100617c] = 0x21364
        0x0100608c:    6188        .a      STR      r0,[r1,#0x18]
        0x0100608e:    f7ffff71    ..q.    BL       middle_print_motor_linefeed_completed ; 0x1005f74
        0x01006092:    2800        .(      CMP      r0,#0
        0x01006094:    d002        ..      BEQ      0x100609c ; middle_print_heat_haddle + 166
        0x01006096:    f7ffff7c    ..|.    BL       middle_print_line_data_latch ; 0x1005f92
        0x0100609a:    e011        ..      B        0x10060c0 ; middle_print_heat_haddle + 202
        0x0100609c:    2002        .       MOVS     r0,#2
        0x0100609e:    f7fefb4c    ..L.    BL       hal_print_heat_time ; 0x100473a
        0x010060a2:    e00d        ..      B        0x10060c0 ; middle_print_heat_haddle + 202
        0x010060a4:    4835        5H      LDR      r0,[pc,#212] ; [0x100617c] = 0x21364
        0x010060a6:    7800        .x      LDRB     r0,[r0,#0]
        0x010060a8:    2804        .(      CMP      r0,#4
        0x010060aa:    d109        ..      BNE      0x10060c0 ; middle_print_heat_haddle + 202
        0x010060ac:    f7ffff62    ..b.    BL       middle_print_motor_linefeed_completed ; 0x1005f74
        0x010060b0:    2800        .(      CMP      r0,#0
        0x010060b2:    d002        ..      BEQ      0x10060ba ; middle_print_heat_haddle + 196
        0x010060b4:    f7ffff6d    ..m.    BL       middle_print_line_data_latch ; 0x1005f92
        0x010060b8:    e002        ..      B        0x10060c0 ; middle_print_heat_haddle + 202
        0x010060ba:    2002        .       MOVS     r0,#2
        0x010060bc:    f7fefb3d    ..=.    BL       hal_print_heat_time ; 0x100473a
        0x010060c0:    2000        .       MOVS     r0,#0
        0x010060c2:    bd10        ..      POP      {r4,pc}
    middle_print_motor_linefeed_step
        0x010060c4:    2024        $       MOVS     r0,#0x24
        0x010060c6:    4770        pG      BX       lr
    middle_print_is_busy
        0x010060c8:    482c        ,H      LDR      r0,[pc,#176] ; [0x100617c] = 0x21364
        0x010060ca:    7800        .x      LDRB     r0,[r0,#0]
        0x010060cc:    2800        .(      CMP      r0,#0
        0x010060ce:    d001        ..      BEQ      0x10060d4 ; middle_print_is_busy + 12
        0x010060d0:    2001        .       MOVS     r0,#1
        0x010060d2:    4770        pG      BX       lr
        0x010060d4:    2000        .       MOVS     r0,#0
        0x010060d6:    e7fc        ..      B        0x10060d2 ; middle_print_is_busy + 10
    middle_print_start
        0x010060d8:    b510        ..      PUSH     {r4,lr}
        0x010060da:    2108        .!      MOVS     r1,#8
        0x010060dc:    2000        .       MOVS     r0,#0
        0x010060de:    f7fafdf1    ....    BL       GPIO_SetBits ; 0x1000cc4
        0x010060e2:    2000        .       MOVS     r0,#0
        0x010060e4:    4925        %I      LDR      r1,[pc,#148] ; [0x100617c] = 0x21364
        0x010060e6:    7008        .p      STRB     r0,[r1,#0]
        0x010060e8:    8088        ..      STRH     r0,[r1,#4]
        0x010060ea:    4827        'H      LDR      r0,[pc,#156] ; [0x1006188] = 0x20060
        0x010060ec:    6800        .h      LDR      r0,[r0,#0]
        0x010060ee:    8800        ..      LDRH     r0,[r0,#0]
        0x010060f0:    80c8        ..      STRH     r0,[r1,#6]
        0x010060f2:    4825        %H      LDR      r0,[pc,#148] ; [0x1006188] = 0x20060
        0x010060f4:    6800        .h      LDR      r0,[r0,#0]
        0x010060f6:    6a80        .j      LDR      r0,[r0,#0x28]
        0x010060f8:    6188        .a      STR      r0,[r1,#0x18]
        0x010060fa:    2001        .       MOVS     r0,#1
        0x010060fc:    7048        Hp      STRB     r0,[r1,#1]
        0x010060fe:    2000        .       MOVS     r0,#0
        0x01006100:    7088        .p      STRB     r0,[r1,#2]
        0x01006102:    6108        .a      STR      r0,[r1,#0x10]
        0x01006104:    60c8        .`      STR      r0,[r1,#0xc]
        0x01006106:    4820         H      LDR      r0,[pc,#128] ; [0x1006188] = 0x20060
        0x01006108:    6800        .h      LDR      r0,[r0,#0]
        0x0100610a:    6ac0        .j      LDR      r0,[r0,#0x2c]
        0x0100610c:    61c8        .a      STR      r0,[r1,#0x1c]
        0x0100610e:    481e        .H      LDR      r0,[pc,#120] ; [0x1006188] = 0x20060
        0x01006110:    6800        .h      LDR      r0,[r0,#0]
        0x01006112:    6ac0        .j      LDR      r0,[r0,#0x2c]
        0x01006114:    6208        .b      STR      r0,[r1,#0x20]
        0x01006116:    2000        .       MOVS     r0,#0
        0x01006118:    43c0        .C      MVNS     r0,r0
        0x0100611a:    6148        Ha      STR      r0,[r1,#0x14]
        0x0100611c:    6a08        .j      LDR      r0,[r1,#0x20]
        0x0100611e:    f7fefb29    ..).    BL       hal_print_motor_speed_time ; 0x1004774
        0x01006122:    a21b        ..      ADR      r2,{pc}+0x6e ; 0x1006190
        0x01006124:    a11c        ..      ADR      r1,{pc}+0x74 ; 0x1006198
        0x01006126:    a024        $.      ADR      r0,{pc}+0x92 ; 0x10061b8
        0x01006128:    f7fefaa2    ....    BL       hal_log_printf ; 0x1004670
        0x0100612c:    2000        .       MOVS     r0,#0
        0x0100612e:    bd10        ..      POP      {r4,pc}
    middle_print_progress
        0x01006130:    b510        ..      PUSH     {r4,lr}
        0x01006132:    f7fffd78    ..x.    BL       middle_print_list_is_empty ; 0x1005c26
        0x01006136:    2800        .(      CMP      r0,#0
        0x01006138:    d001        ..      BEQ      0x100613e ; middle_print_progress + 14
        0x0100613a:    2000        .       MOVS     r0,#0
        0x0100613c:    bd10        ..      POP      {r4,pc}
        0x0100613e:    480f        .H      LDR      r0,[pc,#60] ; [0x100617c] = 0x21364
        0x01006140:    7800        .x      LDRB     r0,[r0,#0]
        0x01006142:    2800        .(      CMP      r0,#0
        0x01006144:    d10d        ..      BNE      0x1006162 ; middle_print_progress + 50
        0x01006146:    f7fffdcc    ....    BL       middle_print_list_get ; 0x1005ce2
        0x0100614a:    490f        .I      LDR      r1,[pc,#60] ; [0x1006188] = 0x20060
        0x0100614c:    6008        .`      STR      r0,[r1,#0]
        0x0100614e:    4608        .F      MOV      r0,r1
        0x01006150:    6800        .h      LDR      r0,[r0,#0]
        0x01006152:    2800        .(      CMP      r0,#0
        0x01006154:    d101        ..      BNE      0x100615a ; middle_print_progress + 42
        0x01006156:    1e40        @.      SUBS     r0,r0,#1
        0x01006158:    e7f0        ..      B        0x100613c ; middle_print_progress + 12
        0x0100615a:    f7ffffbd    ....    BL       middle_print_start ; 0x10060d8
        0x0100615e:    f7ffff18    ....    BL       middle_print_line_data_latch ; 0x1005f92
        0x01006162:    2000        .       MOVS     r0,#0
        0x01006164:    e7ea        ..      B        0x100613c ; middle_print_progress + 12
    middle_print_init
        0x01006166:    b510        ..      PUSH     {r4,lr}
        0x01006168:    2124        $!      MOVS     r1,#0x24
        0x0100616a:    4804        .H      LDR      r0,[pc,#16] ; [0x100617c] = 0x21364
        0x0100616c:    f000fa69    ..i.    BL       __aeabi_memclr ; 0x1006642
        0x01006170:    2000        .       MOVS     r0,#0
        0x01006172:    4902        .I      LDR      r1,[pc,#8] ; [0x100617c] = 0x21364
        0x01006174:    7008        .p      STRB     r0,[r1,#0]
        0x01006176:    7048        Hp      STRB     r0,[r1,#1]
        0x01006178:    bd10        ..      POP      {r4,pc}
    $d
        0x0100617a:    0000        ..      DCW    0
        0x0100617c:    00021364    d...    DCD    136036
        0x01006180:    01008374    t...    DCD    16810868
        0x01006184:    000f0c00    ....    DCD    986112
        0x01006188:    00020060    `...    DCD    131168
        0x0100618c:    00021388    ....    DCD    136072
        0x01006190:    2044494d    MID     DCD    541346125
        0x01006194:    004e5250    PRN.    DCD    5132880
        0x01006198:    00002020      ..    DCD    8224
        0x0100619c:    756c255b    [%lu    DCD    1970021723
        0x010061a0:    257c205d    ] |%    DCD    628891741
        0x010061a4:    382e382d    -8.8    DCD    942553133
        0x010061a8:    70207c73    s| p    DCD    1881177203
        0x010061ac:    746e6972    rint    DCD    1953393010
        0x010061b0:    6f747320     sto    DCD    1869902624
        0x010061b4:    000a0d70    p...    DCD    658800
        0x010061b8:    756c255b    [%lu    DCD    1970021723
        0x010061bc:    257c205d    ] |%    DCD    628891741
        0x010061c0:    382e382d    -8.8    DCD    942553133
        0x010061c4:    70207c73    s| p    DCD    1881177203
        0x010061c8:    746e6972    rint    DCD    1953393010
        0x010061cc:    61747320     sta    DCD    1635021600
        0x010061d0:    0a0d7472    rt..    DCD    168653938
        0x010061d4:    00000000    ....    DCD    0
    $t
    .text
    middle_mmu_init
        0x010061d8:    b510        ..      PUSH     {r4,lr}
        0x010061da:    2103        .!      MOVS     r1,#3
        0x010061dc:    02c9        ..      LSLS     r1,r1,#11
        0x010061de:    482c        ,H      LDR      r0,[pc,#176] ; [0x1006290] = 0x213d0
        0x010061e0:    f000fa2f    ../.    BL       __aeabi_memclr ; 0x1006642
        0x010061e4:    21ff        .!      MOVS     r1,#0xff
        0x010061e6:    3181        .1      ADDS     r1,r1,#0x81
        0x010061e8:    482a        *H      LDR      r0,[pc,#168] ; [0x1006294] = 0x22bd0
        0x010061ea:    f000fa2a    ..*.    BL       __aeabi_memclr ; 0x1006642
        0x010061ee:    bd10        ..      POP      {r4,pc}
    middle_mmu_alloc
        0x010061f0:    b570        p.      PUSH     {r4-r6,lr}
        0x010061f2:    4605        .F      MOV      r5,r0
        0x010061f4:    460b        .F      MOV      r3,r1
        0x010061f6:    2100        .!      MOVS     r1,#0
        0x010061f8:    02d8        ..      LSLS     r0,r3,#11
        0x010061fa:    0c04        ..      LSRS     r4,r0,#16
        0x010061fc:    2200        ."      MOVS     r2,#0
        0x010061fe:    2b00        .+      CMP      r3,#0
        0x01006200:    d101        ..      BNE      0x1006206 ; middle_mmu_alloc + 22
        0x01006202:    2000        .       MOVS     r0,#0
        0x01006204:    bd70        p.      POP      {r4-r6,pc}
        0x01006206:    06d8        ..      LSLS     r0,r3,#27
        0x01006208:    0ec0        ..      LSRS     r0,r0,#27
        0x0100620a:    2800        .(      CMP      r0,#0
        0x0100620c:    d001        ..      BEQ      0x1006212 ; middle_mmu_alloc + 34
        0x0100620e:    1c60        `.      ADDS     r0,r4,#1
        0x01006210:    b284        ..      UXTH     r4,r0
        0x01006212:    21bf        .!      MOVS     r1,#0xbf
        0x01006214:    e019        ..      B        0x100624a ; middle_mmu_alloc + 90
        0x01006216:    0048        H.      LSLS     r0,r1,#1
        0x01006218:    4e1e        .N      LDR      r6,[pc,#120] ; [0x1006294] = 0x22bd0
        0x0100621a:    5a30        0Z      LDRH     r0,[r6,r0]
        0x0100621c:    2800        .(      CMP      r0,#0
        0x0100621e:    d102        ..      BNE      0x1006226 ; middle_mmu_alloc + 54
        0x01006220:    1c50        P.      ADDS     r0,r2,#1
        0x01006222:    b282        ..      UXTH     r2,r0
        0x01006224:    e000        ..      B        0x1006228 ; middle_mmu_alloc + 56
        0x01006226:    2200        ."      MOVS     r2,#0
        0x01006228:    42a2        .B      CMP      r2,r4
        0x0100622a:    d10d        ..      BNE      0x1006248 ; middle_mmu_alloc + 88
        0x0100622c:    2200        ."      MOVS     r2,#0
        0x0100622e:    e005        ..      B        0x100623c ; middle_mmu_alloc + 76
        0x01006230:    1888        ..      ADDS     r0,r1,r2
        0x01006232:    0040        @.      LSLS     r0,r0,#1
        0x01006234:    4e17        .N      LDR      r6,[pc,#92] ; [0x1006294] = 0x22bd0
        0x01006236:    5234        4R      STRH     r4,[r6,r0]
        0x01006238:    1c50        P.      ADDS     r0,r2,#1
        0x0100623a:    b282        ..      UXTH     r2,r0
        0x0100623c:    42a2        .B      CMP      r2,r4
        0x0100623e:    dbf7        ..      BLT      0x1006230 ; middle_mmu_alloc + 64
        0x01006240:    0148        H.      LSLS     r0,r1,#5
        0x01006242:    4e13        .N      LDR      r6,[pc,#76] ; [0x1006290] = 0x213d0
        0x01006244:    1980        ..      ADDS     r0,r0,r6
        0x01006246:    e7dd        ..      B        0x1006204 ; middle_mmu_alloc + 20
        0x01006248:    1e49        I.      SUBS     r1,r1,#1
        0x0100624a:    2900        .)      CMP      r1,#0
        0x0100624c:    dae3        ..      BGE      0x1006216 ; middle_mmu_alloc + 38
        0x0100624e:    2000        .       MOVS     r0,#0
        0x01006250:    e7d8        ..      B        0x1006204 ; middle_mmu_alloc + 20
    middle_mmu_free
        0x01006252:    b5f8        ..      PUSH     {r3-r7,lr}
        0x01006254:    4605        .F      MOV      r5,r0
        0x01006256:    480e        .H      LDR      r0,[pc,#56] ; [0x1006290] = 0x213d0
        0x01006258:    1a2e        ..      SUBS     r6,r5,r0
        0x0100625a:    2003        .       MOVS     r0,#3
        0x0100625c:    02c0        ..      LSLS     r0,r0,#11
        0x0100625e:    4286        .B      CMP      r6,r0
        0x01006260:    d305        ..      BCC      0x100626e ; middle_mmu_free + 28
        0x01006262:    a00d        ..      ADR      r0,{pc}+0x36 ; 0x1006298
        0x01006264:    f000fcae    ....    BL       __0printf ; 0x1006bc4
        0x01006268:    2000        .       MOVS     r0,#0
        0x0100626a:    43c0        .C      MVNS     r0,r0
        0x0100626c:    bdf8        ..      POP      {r3-r7,pc}
        0x0100626e:    0974        t.      LSRS     r4,r6,#5
        0x01006270:    0060        `.      LSLS     r0,r4,#1
        0x01006272:    4908        .I      LDR      r1,[pc,#32] ; [0x1006294] = 0x22bd0
        0x01006274:    5a0f        .Z      LDRH     r7,[r1,r0]
        0x01006276:    2000        .       MOVS     r0,#0
        0x01006278:    e005        ..      B        0x1006286 ; middle_mmu_free + 52
        0x0100627a:    2100        .!      MOVS     r1,#0
        0x0100627c:    1822        ".      ADDS     r2,r4,r0
        0x0100627e:    0052        R.      LSLS     r2,r2,#1
        0x01006280:    4b04        .K      LDR      r3,[pc,#16] ; [0x1006294] = 0x22bd0
        0x01006282:    5299        .R      STRH     r1,[r3,r2]
        0x01006284:    1c40        @.      ADDS     r0,r0,#1
        0x01006286:    42b8        .B      CMP      r0,r7
        0x01006288:    dbf7        ..      BLT      0x100627a ; middle_mmu_free + 40
        0x0100628a:    2000        .       MOVS     r0,#0
        0x0100628c:    e7ee        ..      B        0x100626c ; middle_mmu_free + 26
    $d
        0x0100628e:    0000        ..      DCW    0
        0x01006290:    000213d0    ....    DCD    136144
        0x01006294:    00022bd0    .+..    DCD    142288
        0x01006298:    20756d6d    mmu     DCD    544566637
        0x0100629c:    65657266    free    DCD    1701147238
        0x010062a0:    72726520     err    DCD    1920099616
        0x010062a4:    0000726f    or..    DCD    29295
    $t
    .text
    middle_protocol_buff_freesize
        0x010062a8:    2000        .       MOVS     r0,#0
        0x010062aa:    4959        YI      LDR      r1,[pc,#356] ; [0x1006410] = 0x23550
        0x010062ac:    8849        I.      LDRH     r1,[r1,#2]
        0x010062ae:    4a58        XJ      LDR      r2,[pc,#352] ; [0x1006410] = 0x23550
        0x010062b0:    8892        ..      LDRH     r2,[r2,#4]
        0x010062b2:    4291        .B      CMP      r1,r2
        0x010062b4:    dd08        ..      BLE      0x10062c8 ; middle_protocol_buff_freesize + 32
        0x010062b6:    4956        VI      LDR      r1,[pc,#344] ; [0x1006410] = 0x23550
        0x010062b8:    8849        I.      LDRH     r1,[r1,#2]
        0x010062ba:    4a55        UJ      LDR      r2,[pc,#340] ; [0x1006410] = 0x23550
        0x010062bc:    8892        ..      LDRH     r2,[r2,#4]
        0x010062be:    1a88        ..      SUBS     r0,r1,r2
        0x010062c0:    2101        .!      MOVS     r1,#1
        0x010062c2:    02c9        ..      LSLS     r1,r1,#11
        0x010062c4:    1a08        ..      SUBS     r0,r1,r0
        0x010062c6:    e004        ..      B        0x10062d2 ; middle_protocol_buff_freesize + 42
        0x010062c8:    4951        QI      LDR      r1,[pc,#324] ; [0x1006410] = 0x23550
        0x010062ca:    8889        ..      LDRH     r1,[r1,#4]
        0x010062cc:    4a50        PJ      LDR      r2,[pc,#320] ; [0x1006410] = 0x23550
        0x010062ce:    8852        R.      LDRH     r2,[r2,#2]
        0x010062d0:    1a88        ..      SUBS     r0,r1,r2
        0x010062d2:    4770        pG      BX       lr
    middle_protocol_buff_empty
        0x010062d4:    484e        NH      LDR      r0,[pc,#312] ; [0x1006410] = 0x23550
        0x010062d6:    8880        ..      LDRH     r0,[r0,#4]
        0x010062d8:    494d        MI      LDR      r1,[pc,#308] ; [0x1006410] = 0x23550
        0x010062da:    8849        I.      LDRH     r1,[r1,#2]
        0x010062dc:    4288        .B      CMP      r0,r1
        0x010062de:    d101        ..      BNE      0x10062e4 ; middle_protocol_buff_empty + 16
        0x010062e0:    2001        .       MOVS     r0,#1
        0x010062e2:    4770        pG      BX       lr
        0x010062e4:    2000        .       MOVS     r0,#0
        0x010062e6:    e7fc        ..      B        0x10062e2 ; middle_protocol_buff_empty + 14
    middle_protocol_buff_putch
        0x010062e8:    b500        ..      PUSH     {lr}
        0x010062ea:    4603        .F      MOV      r3,r0
        0x010062ec:    4848        HH      LDR      r0,[pc,#288] ; [0x1006410] = 0x23550
        0x010062ee:    7840        @x      LDRB     r0,[r0,#1]
        0x010062f0:    2800        .(      CMP      r0,#0
        0x010062f2:    d108        ..      BNE      0x1006306 ; middle_protocol_buff_putch + 30
        0x010062f4:    f7ffffd8    ....    BL       middle_protocol_buff_freesize ; 0x10062a8
        0x010062f8:    21ff        .!      MOVS     r1,#0xff
        0x010062fa:    3101        .1      ADDS     r1,#1
        0x010062fc:    4288        .B      CMP      r0,r1
        0x010062fe:    dc02        ..      BGT      0x1006306 ; middle_protocol_buff_putch + 30
        0x01006300:    2001        .       MOVS     r0,#1
        0x01006302:    4943        CI      LDR      r1,[pc,#268] ; [0x1006410] = 0x23550
        0x01006304:    7048        Hp      STRB     r0,[r1,#1]
        0x01006306:    4842        BH      LDR      r0,[pc,#264] ; [0x1006410] = 0x23550
        0x01006308:    6880        .h      LDR      r0,[r0,#8]
        0x0100630a:    4941        AI      LDR      r1,[pc,#260] ; [0x1006410] = 0x23550
        0x0100630c:    8849        I.      LDRH     r1,[r1,#2]
        0x0100630e:    5443        CT      STRB     r3,[r0,r1]
        0x01006310:    483f        ?H      LDR      r0,[pc,#252] ; [0x1006410] = 0x23550
        0x01006312:    8840        @.      LDRH     r0,[r0,#2]
        0x01006314:    1c40        @.      ADDS     r0,r0,#1
        0x01006316:    493e        >I      LDR      r1,[pc,#248] ; [0x1006410] = 0x23550
        0x01006318:    8048        H.      STRH     r0,[r1,#2]
        0x0100631a:    4608        .F      MOV      r0,r1
        0x0100631c:    8840        @.      LDRH     r0,[r0,#2]
        0x0100631e:    2101        .!      MOVS     r1,#1
        0x01006320:    02c9        ..      LSLS     r1,r1,#11
        0x01006322:    4288        .B      CMP      r0,r1
        0x01006324:    db02        ..      BLT      0x100632c ; middle_protocol_buff_putch + 68
        0x01006326:    2000        .       MOVS     r0,#0
        0x01006328:    4939        9I      LDR      r1,[pc,#228] ; [0x1006410] = 0x23550
        0x0100632a:    8048        H.      STRH     r0,[r1,#2]
        0x0100632c:    2000        .       MOVS     r0,#0
        0x0100632e:    bd00        ..      POP      {pc}
    middle_protocol_buff_getch
        0x01006330:    b500        ..      PUSH     {lr}
        0x01006332:    4837        7H      LDR      r0,[pc,#220] ; [0x1006410] = 0x23550
        0x01006334:    7840        @x      LDRB     r0,[r0,#1]
        0x01006336:    2800        .(      CMP      r0,#0
        0x01006338:    d008        ..      BEQ      0x100634c ; middle_protocol_buff_getch + 28
        0x0100633a:    f7ffffb5    ....    BL       middle_protocol_buff_freesize ; 0x10062a8
        0x0100633e:    21ff        .!      MOVS     r1,#0xff
        0x01006340:    3101        .1      ADDS     r1,#1
        0x01006342:    4288        .B      CMP      r0,r1
        0x01006344:    dd02        ..      BLE      0x100634c ; middle_protocol_buff_getch + 28
        0x01006346:    2000        .       MOVS     r0,#0
        0x01006348:    4931        1I      LDR      r1,[pc,#196] ; [0x1006410] = 0x23550
        0x0100634a:    7048        Hp      STRB     r0,[r1,#1]
        0x0100634c:    4830        0H      LDR      r0,[pc,#192] ; [0x1006410] = 0x23550
        0x0100634e:    8880        ..      LDRH     r0,[r0,#4]
        0x01006350:    492f        /I      LDR      r1,[pc,#188] ; [0x1006410] = 0x23550
        0x01006352:    8849        I.      LDRH     r1,[r1,#2]
        0x01006354:    4288        .B      CMP      r0,r1
        0x01006356:    d102        ..      BNE      0x100635e ; middle_protocol_buff_getch + 46
        0x01006358:    2000        .       MOVS     r0,#0
        0x0100635a:    43c0        .C      MVNS     r0,r0
        0x0100635c:    bd00        ..      POP      {pc}
        0x0100635e:    482c        ,H      LDR      r0,[pc,#176] ; [0x1006410] = 0x23550
        0x01006360:    6880        .h      LDR      r0,[r0,#8]
        0x01006362:    492b        +I      LDR      r1,[pc,#172] ; [0x1006410] = 0x23550
        0x01006364:    8889        ..      LDRH     r1,[r1,#4]
        0x01006366:    5c43        C\      LDRB     r3,[r0,r1]
        0x01006368:    4829        )H      LDR      r0,[pc,#164] ; [0x1006410] = 0x23550
        0x0100636a:    8880        ..      LDRH     r0,[r0,#4]
        0x0100636c:    1c40        @.      ADDS     r0,r0,#1
        0x0100636e:    4928        (I      LDR      r1,[pc,#160] ; [0x1006410] = 0x23550
        0x01006370:    8088        ..      STRH     r0,[r1,#4]
        0x01006372:    4608        .F      MOV      r0,r1
        0x01006374:    8880        ..      LDRH     r0,[r0,#4]
        0x01006376:    2101        .!      MOVS     r1,#1
        0x01006378:    02c9        ..      LSLS     r1,r1,#11
        0x0100637a:    4288        .B      CMP      r0,r1
        0x0100637c:    db02        ..      BLT      0x1006384 ; middle_protocol_buff_getch + 84
        0x0100637e:    2000        .       MOVS     r0,#0
        0x01006380:    4923        #I      LDR      r1,[pc,#140] ; [0x1006410] = 0x23550
        0x01006382:    8088        ..      STRH     r0,[r1,#4]
        0x01006384:    4618        .F      MOV      r0,r3
        0x01006386:    e7e9        ..      B        0x100635c ; middle_protocol_buff_getch + 44
    middle_protocol_progress
        0x01006388:    b510        ..      PUSH     {r4,lr}
        0x0100638a:    4821        !H      LDR      r0,[pc,#132] ; [0x1006410] = 0x23550
        0x0100638c:    7840        @x      LDRB     r0,[r0,#1]
        0x0100638e:    2800        .(      CMP      r0,#0
        0x01006390:    d008        ..      BEQ      0x10063a4 ; middle_protocol_progress + 28
        0x01006392:    f7ffff89    ....    BL       middle_protocol_buff_freesize ; 0x10062a8
        0x01006396:    21ff        .!      MOVS     r1,#0xff
        0x01006398:    3101        .1      ADDS     r1,#1
        0x0100639a:    4288        .B      CMP      r0,r1
        0x0100639c:    dd02        ..      BLE      0x10063a4 ; middle_protocol_progress + 28
        0x0100639e:    2000        .       MOVS     r0,#0
        0x010063a0:    491b        .I      LDR      r1,[pc,#108] ; [0x1006410] = 0x23550
        0x010063a2:    7048        Hp      STRB     r0,[r1,#1]
        0x010063a4:    481a        .H      LDR      r0,[pc,#104] ; [0x1006410] = 0x23550
        0x010063a6:    8880        ..      LDRH     r0,[r0,#4]
        0x010063a8:    4919        .I      LDR      r1,[pc,#100] ; [0x1006410] = 0x23550
        0x010063aa:    8849        I.      LDRH     r1,[r1,#2]
        0x010063ac:    4288        .B      CMP      r0,r1
        0x010063ae:    d108        ..      BNE      0x10063c2 ; middle_protocol_progress + 58
        0x010063b0:    2000        .       MOVS     r0,#0
        0x010063b2:    4917        .I      LDR      r1,[pc,#92] ; [0x1006410] = 0x23550
        0x010063b4:    7008        .p      STRB     r0,[r1,#0]
        0x010063b6:    f7fefaf3    ....    BL       hal_systick_time ; 0x10049a0
        0x010063ba:    4915        .I      LDR      r1,[pc,#84] ; [0x1006410] = 0x23550
        0x010063bc:    60c8        .`      STR      r0,[r1,#0xc]
        0x010063be:    2000        .       MOVS     r0,#0
        0x010063c0:    bd10        ..      POP      {r4,pc}
        0x010063c2:    4813        .H      LDR      r0,[pc,#76] ; [0x1006410] = 0x23550
        0x010063c4:    7800        .x      LDRB     r0,[r0,#0]
        0x010063c6:    2800        .(      CMP      r0,#0
        0x010063c8:    d10b        ..      BNE      0x10063e2 ; middle_protocol_progress + 90
        0x010063ca:    f7fefae9    ....    BL       hal_systick_time ; 0x10049a0
        0x010063ce:    4910        .I      LDR      r1,[pc,#64] ; [0x1006410] = 0x23550
        0x010063d0:    68c9        .h      LDR      r1,[r1,#0xc]
        0x010063d2:    1a40        @.      SUBS     r0,r0,r1
        0x010063d4:    490f        .I      LDR      r1,[pc,#60] ; [0x1006414] = 0x1388
        0x010063d6:    4288        .B      CMP      r0,r1
        0x010063d8:    d30d        ..      BCC      0x10063f6 ; middle_protocol_progress + 110
        0x010063da:    2001        .       MOVS     r0,#1
        0x010063dc:    490c        .I      LDR      r1,[pc,#48] ; [0x1006410] = 0x23550
        0x010063de:    7008        .p      STRB     r0,[r1,#0]
        0x010063e0:    e009        ..      B        0x10063f6 ; middle_protocol_progress + 110
        0x010063e2:    f7ffffa5    ....    BL       middle_protocol_buff_getch ; 0x1006330
        0x010063e6:    4604        .F      MOV      r4,r0
        0x010063e8:    1c60        `.      ADDS     r0,r4,#1
        0x010063ea:    2800        .(      CMP      r0,#0
        0x010063ec:    d002        ..      BEQ      0x10063f4 ; middle_protocol_progress + 108
        0x010063ee:    b2e0        ..      UXTB     r0,r4
        0x010063f0:    f000f888    ....    BL       app_esc_cmd_parse ; 0x1006504
        0x010063f4:    bf00        ..      NOP      
        0x010063f6:    2000        .       MOVS     r0,#0
        0x010063f8:    e7e2        ..      B        0x10063c0 ; middle_protocol_progress + 56
    middle_protocol_init
        0x010063fa:    4805        .H      LDR      r0,[pc,#20] ; [0x1006410] = 0x23550
        0x010063fc:    2100        .!      MOVS     r1,#0
        0x010063fe:    6001        .`      STR      r1,[r0,#0]
        0x01006400:    6041        A`      STR      r1,[r0,#4]
        0x01006402:    6081        .`      STR      r1,[r0,#8]
        0x01006404:    60c1        .`      STR      r1,[r0,#0xc]
        0x01006406:    4804        .H      LDR      r0,[pc,#16] ; [0x1006418] = 0x22d50
        0x01006408:    4901        .I      LDR      r1,[pc,#4] ; [0x1006410] = 0x23550
        0x0100640a:    6088        .`      STR      r0,[r1,#8]
        0x0100640c:    2000        .       MOVS     r0,#0
        0x0100640e:    4770        pG      BX       lr
    $d
        0x01006410:    00023550    P5..    DCD    144720
        0x01006414:    00001388    ....    DCD    5000
        0x01006418:    00022d50    P-..    DCD    142672
    $t
    .text
    period_execute
        0x0100641c:    b510        ..      PUSH     {r4,lr}
        0x0100641e:    f7fefb2b    ..+.    BL       hal_button_progress ; 0x1004a78
        0x01006422:    2000        .       MOVS     r0,#0
        0x01006424:    bd10        ..      POP      {r4,pc}
    main
        0x01006426:    f7fefb65    ..e.    BL       hal_init ; 0x1004af4
        0x0100642a:    4820         H      LDR      r0,[pc,#128] ; [0x10064ac] = 0x100641d
        0x0100642c:    f7fefaf8    ....    BL       hal_time_period_execute_register ; 0x1004a20
        0x01006430:    f7fffed2    ....    BL       middle_mmu_init ; 0x10061d8
        0x01006434:    f7fffe97    ....    BL       middle_print_init ; 0x1006166
        0x01006438:    f7ffffdf    ....    BL       middle_protocol_init ; 0x10063fa
        0x0100643c:    a21c        ..      ADR      r2,{pc}+0x74 ; 0x10064b0
        0x0100643e:    a11e        ..      ADR      r1,{pc}+0x7a ; 0x10064b8
        0x01006440:    a01e        ..      ADR      r0,{pc}+0x7c ; 0x10064bc
        0x01006442:    f7fef915    ....    BL       hal_log_printf ; 0x1004670
        0x01006446:    e030        0.      B        0x10064aa ; main + 132
        0x01006448:    f7fefb37    ..7.    BL       hal_button_value ; 0x1004aba
        0x0100644c:    2800        .(      CMP      r0,#0
        0x0100644e:    d007        ..      BEQ      0x1006460 ; main + 58
        0x01006450:    a217        ..      ADR      r2,{pc}+0x60 ; 0x10064b0
        0x01006452:    a119        ..      ADR      r1,{pc}+0x66 ; 0x10064b8
        0x01006454:    a021        !.      ADR      r0,{pc}+0x88 ; 0x10064dc
        0x01006456:    f7fef90b    ....    BL       hal_log_printf ; 0x1004670
        0x0100645a:    2001        .       MOVS     r0,#1
        0x0100645c:    4927        'I      LDR      r1,[pc,#156] ; [0x10064fc] = 0x20064
        0x0100645e:    8008        ..      STRH     r0,[r1,#0]
        0x01006460:    4826        &H      LDR      r0,[pc,#152] ; [0x10064fc] = 0x20064
        0x01006462:    8800        ..      LDRH     r0,[r0,#0]
        0x01006464:    2800        .(      CMP      r0,#0
        0x01006466:    d017        ..      BEQ      0x1006498 ; main + 114
        0x01006468:    4824        $H      LDR      r0,[pc,#144] ; [0x10064fc] = 0x20064
        0x0100646a:    8800        ..      LDRH     r0,[r0,#0]
        0x0100646c:    280a        .(      CMP      r0,#0xa
        0x0100646e:    da13        ..      BGE      0x1006498 ; main + 114
        0x01006470:    2000        .       MOVS     r0,#0
        0x01006472:    e003        ..      B        0x100647c ; main + 86
        0x01006474:    21ff        .!      MOVS     r1,#0xff
        0x01006476:    4a22        "J      LDR      r2,[pc,#136] ; [0x1006500] = 0x23560
        0x01006478:    5411        .T      STRB     r1,[r2,r0]
        0x0100647a:    1c40        @.      ADDS     r0,r0,#1
        0x0100647c:    2848        H(      CMP      r0,#0x48
        0x0100647e:    dbf9        ..      BLT      0x1006474 ; main + 78
        0x01006480:    2148        H!      MOVS     r1,#0x48
        0x01006482:    481f        .H      LDR      r0,[pc,#124] ; [0x1006500] = 0x23560
        0x01006484:    f7fffbd9    ....    BL       middle_print_list_put ; 0x1005c3a
        0x01006488:    2800        .(      CMP      r0,#0
        0x0100648a:    d108        ..      BNE      0x100649e ; main + 120
        0x0100648c:    481b        .H      LDR      r0,[pc,#108] ; [0x10064fc] = 0x20064
        0x0100648e:    8800        ..      LDRH     r0,[r0,#0]
        0x01006490:    1c40        @.      ADDS     r0,r0,#1
        0x01006492:    491a        .I      LDR      r1,[pc,#104] ; [0x10064fc] = 0x20064
        0x01006494:    8008        ..      STRH     r0,[r1,#0]
        0x01006496:    e002        ..      B        0x100649e ; main + 120
        0x01006498:    2000        .       MOVS     r0,#0
        0x0100649a:    4918        .I      LDR      r1,[pc,#96] ; [0x10064fc] = 0x20064
        0x0100649c:    8008        ..      STRH     r0,[r1,#0]
        0x0100649e:    f7fefe66    ..f.    BL       hal_bt_progress ; 0x100516e
        0x010064a2:    f7fffe45    ..E.    BL       middle_print_progress ; 0x1006130
        0x010064a6:    f7ffff6f    ..o.    BL       middle_protocol_progress ; 0x1006388
        0x010064aa:    e7cd        ..      B        0x1006448 ; main + 34
    $d
        0x010064ac:    0100641d    .d..    DCD    16802845
        0x010064b0:    4e41494d    MIAN    DCD    1312901453
        0x010064b4:    00000000    ....    DCD    0
        0x010064b8:    00002020      ..    DCD    8224
        0x010064bc:    756c255b    [%lu    DCD    1970021723
        0x010064c0:    257c205d    ] |%    DCD    628891741
        0x010064c4:    382e382d    -8.8    DCD    942553133
        0x010064c8:    6d207c73    s| m    DCD    1830845555
        0x010064cc:    206e6961    ain     DCD    544106849
        0x010064d0:    6c696877    whil    DCD    1818847351
        0x010064d4:    2e2e2065    e ..    DCD    774774885
        0x010064d8:    000a0d2e    ....    DCD    658734
        0x010064dc:    756c255b    [%lu    DCD    1970021723
        0x010064e0:    257c205d    ] |%    DCD    628891741
        0x010064e4:    382e382d    -8.8    DCD    942553133
        0x010064e8:    6b207c73    s| k    DCD    1797291123
        0x010064ec:    72707965    eypr    DCD    1919973733
        0x010064f0:    20737365    ess     DCD    544437093
        0x010064f4:    0d2e2e2e    ....    DCD    221130286
        0x010064f8:    0000000a    ....    DCD    10
        0x010064fc:    00020064    d...    DCD    131172
        0x01006500:    00023560    `5..    DCD    144736
    $t
    .text
    app_esc_cmd_parse
        0x01006504:    b570        p.      PUSH     {r4-r6,lr}
        0x01006506:    4604        .F      MOV      r4,r0
        0x01006508:    2c1b        .,      CMP      r4,#0x1b
        0x0100650a:    d12b        +.      BNE      0x1006564 ; app_esc_cmd_parse + 96
        0x0100650c:    2c1d        .,      CMP      r4,#0x1d
        0x0100650e:    d026        &.      BEQ      0x100655e ; app_esc_cmd_parse + 90
        0x01006510:    2c2a        *,      CMP      r4,#0x2a
        0x01006512:    d004        ..      BEQ      0x100651e ; app_esc_cmd_parse + 26
        0x01006514:    2c40        @,      CMP      r4,#0x40
        0x01006516:    d003        ..      BEQ      0x1006520 ; app_esc_cmd_parse + 28
        0x01006518:    2c64        d,      CMP      r4,#0x64
        0x0100651a:    d121        !.      BNE      0x1006560 ; app_esc_cmd_parse + 92
        0x0100651c:    e015        ..      B        0x100654a ; app_esc_cmd_parse + 70
        0x0100651e:    e020         .      B        0x1006562 ; app_esc_cmd_parse + 94
        0x01006520:    f7ffff06    ....    BL       middle_protocol_buff_getch ; 0x1006330
        0x01006524:    2812        .(      CMP      r0,#0x12
        0x01006526:    d103        ..      BNE      0x1006530 ; app_esc_cmd_parse + 44
        0x01006528:    f7ffff02    ....    BL       middle_protocol_buff_getch ; 0x1006330
        0x0100652c:    2823        #(      CMP      r0,#0x23
        0x0100652e:    d002        ..      BEQ      0x1006536 ; app_esc_cmd_parse + 50
        0x01006530:    2000        .       MOVS     r0,#0
        0x01006532:    43c0        .C      MVNS     r0,r0
        0x01006534:    bd70        p.      POP      {r4-r6,pc}
        0x01006536:    f7fffefb    ....    BL       middle_protocol_buff_getch ; 0x1006330
        0x0100653a:    b2c5        ..      UXTB     r5,r0
        0x0100653c:    462b        +F      MOV      r3,r5
        0x0100653e:    a20b        ..      ADR      r2,{pc}+0x2e ; 0x100656c
        0x01006540:    a10c        ..      ADR      r1,{pc}+0x34 ; 0x1006574
        0x01006542:    a00d        ..      ADR      r0,{pc}+0x36 ; 0x1006578
        0x01006544:    f7fef894    ....    BL       hal_log_printf ; 0x1004670
        0x01006548:    e00b        ..      B        0x1006562 ; app_esc_cmd_parse + 94
        0x0100654a:    f7fffef1    ....    BL       middle_protocol_buff_getch ; 0x1006330
        0x0100654e:    b2c5        ..      UXTB     r5,r0
        0x01006550:    462b        +F      MOV      r3,r5
        0x01006552:    a206        ..      ADR      r2,{pc}+0x1a ; 0x100656c
        0x01006554:    a107        ..      ADR      r1,{pc}+0x20 ; 0x1006574
        0x01006556:    a010        ..      ADR      r0,{pc}+0x42 ; 0x1006598
        0x01006558:    f7fef88a    ....    BL       hal_log_printf ; 0x1004670
        0x0100655c:    e001        ..      B        0x1006562 ; app_esc_cmd_parse + 94
        0x0100655e:    e000        ..      B        0x1006562 ; app_esc_cmd_parse + 94
        0x01006560:    bf00        ..      NOP      
        0x01006562:    e000        ..      B        0x1006566 ; app_esc_cmd_parse + 98
        0x01006564:    bf00        ..      NOP      
        0x01006566:    2000        .       MOVS     r0,#0
        0x01006568:    e7e4        ..      B        0x1006534 ; app_esc_cmd_parse + 48
    $d
        0x0100656a:    0000        ..      DCW    0
        0x0100656c:    20505041    APP     DCD    542134337
        0x01006570:    00435345    ESC.    DCD    4412229
        0x01006574:    00002020      ..    DCD    8224
        0x01006578:    756c255b    [%lu    DCD    1970021723
        0x0100657c:    257c205d    ] |%    DCD    628891741
        0x01006580:    382e382d    -8.8    DCD    942553133
        0x01006584:    73207c73    s| s    DCD    1931508851
        0x01006588:    64207465    et d    DCD    1679848549
        0x0100658c:    69736e65    ensi    DCD    1769172581
        0x01006590:    25207974    ty %    DCD    622885236
        0x01006594:    000a0d64    d...    DCD    658788
        0x01006598:    756c255b    [%lu    DCD    1970021723
        0x0100659c:    257c205d    ] |%    DCD    628891741
        0x010065a0:    382e382d    -8.8    DCD    942553133
        0x010065a4:    73207c73    s| s    DCD    1931508851
        0x010065a8:    66207465    et f    DCD    1713402981
        0x010065ac:    6c646565    eedl    DCD    1818518885
        0x010065b0:    20656e69    ine     DCD    543518313
        0x010065b4:    0a0d6425    %d..    DCD    168649765
        0x010065b8:    00000000    ....    DCD    0
    $t
    .text
    __aeabi_uidiv
    __aeabi_uidivmod
        0x010065bc:    b530        0.      PUSH     {r4,r5,lr}
        0x010065be:    460b        .F      MOV      r3,r1
        0x010065c0:    4601        .F      MOV      r1,r0
        0x010065c2:    2000        .       MOVS     r0,#0
        0x010065c4:    2220         "      MOVS     r2,#0x20
        0x010065c6:    2401        .$      MOVS     r4,#1
        0x010065c8:    e009        ..      B        0x10065de ; __aeabi_uidiv + 34
        0x010065ca:    460d        .F      MOV      r5,r1
        0x010065cc:    40d5        .@      LSRS     r5,r5,r2
        0x010065ce:    429d        .B      CMP      r5,r3
        0x010065d0:    d305        ..      BCC      0x10065de ; __aeabi_uidiv + 34
        0x010065d2:    461d        .F      MOV      r5,r3
        0x010065d4:    4095        .@      LSLS     r5,r5,r2
        0x010065d6:    1b49        I.      SUBS     r1,r1,r5
        0x010065d8:    4625        %F      MOV      r5,r4
        0x010065da:    4095        .@      LSLS     r5,r5,r2
        0x010065dc:    1940        @.      ADDS     r0,r0,r5
        0x010065de:    4615        .F      MOV      r5,r2
        0x010065e0:    1e52        R.      SUBS     r2,r2,#1
        0x010065e2:    2d00        .-      CMP      r5,#0
        0x010065e4:    dcf1        ..      BGT      0x10065ca ; __aeabi_uidiv + 14
        0x010065e6:    bd30        0.      POP      {r4,r5,pc}
    .text
    __aeabi_idiv
    __aeabi_idivmod
        0x010065e8:    b570        p.      PUSH     {r4-r6,lr}
        0x010065ea:    2400        .$      MOVS     r4,#0
        0x010065ec:    4625        %F      MOV      r5,r4
        0x010065ee:    2800        .(      CMP      r0,#0
        0x010065f0:    da01        ..      BGE      0x10065f6 ; __aeabi_idiv + 14
        0x010065f2:    2401        .$      MOVS     r4,#1
        0x010065f4:    4240        @B      RSBS     r0,r0,#0
        0x010065f6:    2900        .)      CMP      r1,#0
        0x010065f8:    da01        ..      BGE      0x10065fe ; __aeabi_idiv + 22
        0x010065fa:    2501        .%      MOVS     r5,#1
        0x010065fc:    4249        IB      RSBS     r1,r1,#0
        0x010065fe:    f7ffffdd    ....    BL       __aeabi_uidiv ; 0x10065bc
        0x01006602:    42ac        .B      CMP      r4,r5
        0x01006604:    d000        ..      BEQ      0x1006608 ; __aeabi_idiv + 32
        0x01006606:    4240        @B      RSBS     r0,r0,#0
        0x01006608:    2c00        .,      CMP      r4,#0
        0x0100660a:    d000        ..      BEQ      0x100660e ; __aeabi_idiv + 38
        0x0100660c:    4249        IB      RSBS     r1,r1,#0
        0x0100660e:    bd70        p.      POP      {r4-r6,pc}
    .text
    __aeabi_memcpy
    __aeabi_memcpy4
    __aeabi_memcpy8
        0x01006610:    4603        .F      MOV      r3,r0
        0x01006612:    430b        .C      ORRS     r3,r3,r1
        0x01006614:    079b        ..      LSLS     r3,r3,#30
        0x01006616:    d003        ..      BEQ      0x1006620 ; __aeabi_memcpy + 16
        0x01006618:    e009        ..      B        0x100662e ; __aeabi_memcpy + 30
        0x0100661a:    c908        ..      LDM      r1!,{r3}
        0x0100661c:    1f12        ..      SUBS     r2,r2,#4
        0x0100661e:    c008        ..      STM      r0!,{r3}
        0x01006620:    2a04        .*      CMP      r2,#4
        0x01006622:    d2fa        ..      BCS      0x100661a ; __aeabi_memcpy + 10
        0x01006624:    e003        ..      B        0x100662e ; __aeabi_memcpy + 30
        0x01006626:    780b        .x      LDRB     r3,[r1,#0]
        0x01006628:    7003        .p      STRB     r3,[r0,#0]
        0x0100662a:    1c40        @.      ADDS     r0,r0,#1
        0x0100662c:    1c49        I.      ADDS     r1,r1,#1
        0x0100662e:    1e52        R.      SUBS     r2,r2,#1
        0x01006630:    d2f9        ..      BCS      0x1006626 ; __aeabi_memcpy + 22
        0x01006632:    4770        pG      BX       lr
    .text
    __aeabi_memset
    __aeabi_memset4
    __aeabi_memset8
        0x01006634:    b2d2        ..      UXTB     r2,r2
        0x01006636:    e001        ..      B        0x100663c ; __aeabi_memset + 8
        0x01006638:    7002        .p      STRB     r2,[r0,#0]
        0x0100663a:    1c40        @.      ADDS     r0,r0,#1
        0x0100663c:    1e49        I.      SUBS     r1,r1,#1
        0x0100663e:    d2fb        ..      BCS      0x1006638 ; __aeabi_memset + 4
        0x01006640:    4770        pG      BX       lr
    __aeabi_memclr
    __aeabi_memclr4
    __aeabi_memclr8
        0x01006642:    2200        ."      MOVS     r2,#0
        0x01006644:    e7f6        ..      B        __aeabi_memset ; 0x1006634
    _memset$wrapper
        0x01006646:    b510        ..      PUSH     {r4,lr}
        0x01006648:    4613        .F      MOV      r3,r2
        0x0100664a:    460a        .F      MOV      r2,r1
        0x0100664c:    4604        .F      MOV      r4,r0
        0x0100664e:    4619        .F      MOV      r1,r3
        0x01006650:    f7fffff0    ....    BL       __aeabi_memset ; 0x1006634
        0x01006654:    4620         F      MOV      r0,r4
        0x01006656:    bd10        ..      POP      {r4,pc}
    .text
    __aeabi_uread4
    __rt_uread4
    _uread4
        0x01006658:    2103        .!      MOVS     r1,#3
        0x0100665a:    1d00        ..      ADDS     r0,r0,#4
        0x0100665c:    1e40        @.      SUBS     r0,r0,#1
        0x0100665e:    7803        .x      LDRB     r3,[r0,#0]
        0x01006660:    0212        ..      LSLS     r2,r2,#8
        0x01006662:    431a        .C      ORRS     r2,r2,r3
        0x01006664:    1e49        I.      SUBS     r1,r1,#1
        0x01006666:    d5f9        ..      BPL      0x100665c ; __aeabi_uread4 + 4
        0x01006668:    4610        .F      MOV      r0,r2
        0x0100666a:    4770        pG      BX       lr
    .text
    __aeabi_uwrite4
    __rt_uwrite4
    _uwrite4
        0x0100666c:    4603        .F      MOV      r3,r0
        0x0100666e:    2203        ."      MOVS     r2,#3
        0x01006670:    7008        .p      STRB     r0,[r1,#0]
        0x01006672:    0a00        ..      LSRS     r0,r0,#8
        0x01006674:    1c49        I.      ADDS     r1,r1,#1
        0x01006676:    1e52        R.      SUBS     r2,r2,#1
        0x01006678:    d5fa        ..      BPL      0x1006670 ; __aeabi_uwrite4 + 4
        0x0100667a:    4618        .F      MOV      r0,r3
        0x0100667c:    4770        pG      BX       lr
    .text
    __aeabi_uldivmod
        0x0100667e:    b5f0        ..      PUSH     {r4-r7,lr}
        0x01006680:    b41f        ..      PUSH     {r0-r4}
        0x01006682:    4606        .F      MOV      r6,r0
        0x01006684:    2000        .       MOVS     r0,#0
        0x01006686:    b082        ..      SUB      sp,sp,#8
        0x01006688:    4605        .F      MOV      r5,r0
        0x0100668a:    2440        @$      MOVS     r4,#0x40
        0x0100668c:    9101        ..      STR      r1,[sp,#4]
        0x0100668e:    9000        ..      STR      r0,[sp,#0]
        0x01006690:    e01b        ..      B        0x10066ca ; __aeabi_uldivmod + 76
        0x01006692:    9901        ..      LDR      r1,[sp,#4]
        0x01006694:    4622        "F      MOV      r2,r4
        0x01006696:    460f        .F      MOV      r7,r1
        0x01006698:    4630        0F      MOV      r0,r6
        0x0100669a:    f000fa09    ....    BL       __aeabi_llsr ; 0x1006ab0
        0x0100669e:    9a04        ..      LDR      r2,[sp,#0x10]
        0x010066a0:    9b05        ..      LDR      r3,[sp,#0x14]
        0x010066a2:    1a80        ..      SUBS     r0,r0,r2
        0x010066a4:    4199        .A      SBCS     r1,r1,r3
        0x010066a6:    d310        ..      BCC      0x10066ca ; __aeabi_uldivmod + 76
        0x010066a8:    4610        .F      MOV      r0,r2
        0x010066aa:    4619        .F      MOV      r1,r3
        0x010066ac:    4622        "F      MOV      r2,r4
        0x010066ae:    f000f9ef    ....    BL       __aeabi_llsl ; 0x1006a90
        0x010066b2:    1a36        6.      SUBS     r6,r6,r0
        0x010066b4:    418f        .A      SBCS     r7,r7,r1
        0x010066b6:    9701        ..      STR      r7,[sp,#4]
        0x010066b8:    4622        "F      MOV      r2,r4
        0x010066ba:    2001        .       MOVS     r0,#1
        0x010066bc:    2100        .!      MOVS     r1,#0
        0x010066be:    9f00        ..      LDR      r7,[sp,#0]
        0x010066c0:    f000f9e6    ....    BL       __aeabi_llsl ; 0x1006a90
        0x010066c4:    1838        8.      ADDS     r0,r7,r0
        0x010066c6:    414d        MA      ADCS     r5,r5,r1
        0x010066c8:    9000        ..      STR      r0,[sp,#0]
        0x010066ca:    4620         F      MOV      r0,r4
        0x010066cc:    1e64        d.      SUBS     r4,r4,#1
        0x010066ce:    2800        .(      CMP      r0,#0
        0x010066d0:    dcdf        ..      BGT      0x1006692 ; __aeabi_uldivmod + 20
        0x010066d2:    9b01        ..      LDR      r3,[sp,#4]
        0x010066d4:    9800        ..      LDR      r0,[sp,#0]
        0x010066d6:    4629        )F      MOV      r1,r5
        0x010066d8:    4632        2F      MOV      r2,r6
        0x010066da:    b007        ..      ADD      sp,sp,#0x1c
        0x010066dc:    bdf0        ..      POP      {r4-r7,pc}
    .text
    __I$use$fp
        0x010066de:    0000        ..      MOVS     r0,r0
    .text
    __aeabi_dadd
        0x010066e0:    b5f0        ..      PUSH     {r4-r7,lr}
        0x010066e2:    4607        .F      MOV      r7,r0
        0x010066e4:    4608        .F      MOV      r0,r1
        0x010066e6:    4058        X@      EORS     r0,r0,r3
        0x010066e8:    b087        ..      SUB      sp,sp,#0x1c
        0x010066ea:    0fc0        ..      LSRS     r0,r0,#31
        0x010066ec:    9004        ..      STR      r0,[sp,#0x10]
        0x010066ee:    0048        H.      LSLS     r0,r1,#1
        0x010066f0:    460e        .F      MOV      r6,r1
        0x010066f2:    0059        Y.      LSLS     r1,r3,#1
        0x010066f4:    0840        @.      LSRS     r0,r0,#1
        0x010066f6:    0849        I.      LSRS     r1,r1,#1
        0x010066f8:    1abc        ..      SUBS     r4,r7,r2
        0x010066fa:    4188        .A      SBCS     r0,r0,r1
        0x010066fc:    d205        ..      BCS      0x100670a ; __aeabi_dadd + 42
        0x010066fe:    4638        8F      MOV      r0,r7
        0x01006700:    4631        1F      MOV      r1,r6
        0x01006702:    461e        .F      MOV      r6,r3
        0x01006704:    4617        .F      MOV      r7,r2
        0x01006706:    460b        .F      MOV      r3,r1
        0x01006708:    4602        .F      MOV      r2,r0
        0x0100670a:    0058        X.      LSLS     r0,r3,#1
        0x0100670c:    0840        @.      LSRS     r0,r0,#1
        0x0100670e:    4310        .C      ORRS     r0,r0,r2
        0x01006710:    d04c        L.      BEQ      0x10067ac ; __aeabi_dadd + 204
        0x01006712:    0d30        0.      LSRS     r0,r6,#20
        0x01006714:    9003        ..      STR      r0,[sp,#0xc]
        0x01006716:    0540        @.      LSLS     r0,r0,#21
        0x01006718:    0059        Y.      LSLS     r1,r3,#1
        0x0100671a:    0d40        @.      LSRS     r0,r0,#21
        0x0100671c:    0d49        I.      LSRS     r1,r1,#21
        0x0100671e:    9005        ..      STR      r0,[sp,#0x14]
        0x01006720:    1a40        @.      SUBS     r0,r0,r1
        0x01006722:    9002        ..      STR      r0,[sp,#8]
        0x01006724:    2840        @(      CMP      r0,#0x40
        0x01006726:    da72        r.      BGE      0x100680e ; __aeabi_dadd + 302
        0x01006728:    0318        ..      LSLS     r0,r3,#12
        0x0100672a:    2101        .!      MOVS     r1,#1
        0x0100672c:    0b00        ..      LSRS     r0,r0,#12
        0x0100672e:    0509        ..      LSLS     r1,r1,#20
        0x01006730:    4308        .C      ORRS     r0,r0,r1
        0x01006732:    9001        ..      STR      r0,[sp,#4]
        0x01006734:    9804        ..      LDR      r0,[sp,#0x10]
        0x01006736:    9200        ..      STR      r2,[sp,#0]
        0x01006738:    2800        .(      CMP      r0,#0
        0x0100673a:    d005        ..      BEQ      0x1006748 ; __aeabi_dadd + 104
        0x0100673c:    9901        ..      LDR      r1,[sp,#4]
        0x0100673e:    4252        RB      RSBS     r2,r2,#0
        0x01006740:    2000        .       MOVS     r0,#0
        0x01006742:    4188        .A      SBCS     r0,r0,r1
        0x01006744:    9200        ..      STR      r2,[sp,#0]
        0x01006746:    9001        ..      STR      r0,[sp,#4]
        0x01006748:    9802        ..      LDR      r0,[sp,#8]
        0x0100674a:    2140        @!      MOVS     r1,#0x40
        0x0100674c:    1a0a        ..      SUBS     r2,r1,r0
        0x0100674e:    9901        ..      LDR      r1,[sp,#4]
        0x01006750:    9800        ..      LDR      r0,[sp,#0]
        0x01006752:    f000f99d    ....    BL       __aeabi_llsl ; 0x1006a90
        0x01006756:    4605        .F      MOV      r5,r0
        0x01006758:    460c        .F      MOV      r4,r1
        0x0100675a:    466b        kF      MOV      r3,sp
        0x0100675c:    cb07        ..      LDM      r3!,{r0-r2}
        0x0100675e:    f000f9b8    ....    BL       __aeabi_lasr ; 0x1006ad2
        0x01006762:    19c0        ..      ADDS     r0,r0,r7
        0x01006764:    4171        qA      ADCS     r1,r1,r6
        0x01006766:    9a03        ..      LDR      r2,[sp,#0xc]
        0x01006768:    0d0e        ..      LSRS     r6,r1,#20
        0x0100676a:    2300        .#      MOVS     r3,#0
        0x0100676c:    17d7        ..      ASRS     r7,r2,#31
        0x0100676e:    4056        V@      EORS     r6,r6,r2
        0x01006770:    461a        .F      MOV      r2,r3
        0x01006772:    407a        z@      EORS     r2,r2,r7
        0x01006774:    4316        .C      ORRS     r6,r6,r2
        0x01006776:    d044        D.      BEQ      0x1006802 ; __aeabi_dadd + 290
        0x01006778:    9a04        ..      LDR      r2,[sp,#0x10]
        0x0100677a:    2a00        .*      CMP      r2,#0
        0x0100677c:    d02d        -.      BEQ      0x10067da ; __aeabi_dadd + 250
        0x0100677e:    9a02        ..      LDR      r2,[sp,#8]
        0x01006780:    2a01        .*      CMP      r2,#1
        0x01006782:    9a03        ..      LDR      r2,[sp,#0xc]
        0x01006784:    dc15        ..      BGT      0x10067b2 ; __aeabi_dadd + 210
        0x01006786:    0512        ..      LSLS     r2,r2,#20
        0x01006788:    1ac0        ..      SUBS     r0,r0,r3
        0x0100678a:    4191        .A      SBCS     r1,r1,r2
        0x0100678c:    2601        .&      MOVS     r6,#1
        0x0100678e:    0536        6.      LSLS     r6,r6,#20
        0x01006790:    1c00        ..      ADDS     r0,r0,#0
        0x01006792:    4171        qA      ADCS     r1,r1,r6
        0x01006794:    0fd2        ..      LSRS     r2,r2,#31
        0x01006796:    9e05        ..      LDR      r6,[sp,#0x14]
        0x01006798:    07d2        ..      LSLS     r2,r2,#31
        0x0100679a:    9300        ..      STR      r3,[sp,#0]
        0x0100679c:    9201        ..      STR      r2,[sp,#4]
        0x0100679e:    9602        ..      STR      r6,[sp,#8]
        0x010067a0:    462a        *F      MOV      r2,r5
        0x010067a2:    4623        #F      MOV      r3,r4
        0x010067a4:    f000f9b5    ....    BL       _double_epilogue ; 0x1006b12
        0x010067a8:    b007        ..      ADD      sp,sp,#0x1c
        0x010067aa:    bdf0        ..      POP      {r4-r7,pc}
        0x010067ac:    4638        8F      MOV      r0,r7
        0x010067ae:    4631        1F      MOV      r1,r6
        0x010067b0:    e7fa        ..      B        0x10067a8 ; __aeabi_dadd + 200
        0x010067b2:    0516        ..      LSLS     r6,r2,#20
        0x010067b4:    4a22        "J      LDR      r2,[pc,#136] ; [0x1006840] = 0xffe00000
        0x010067b6:    460f        .F      MOV      r7,r1
        0x010067b8:    18b2        ..      ADDS     r2,r6,r2
        0x010067ba:    1ac0        ..      SUBS     r0,r0,r3
        0x010067bc:    41b7        .A      SBCS     r7,r7,r6
        0x010067be:    2101        .!      MOVS     r1,#1
        0x010067c0:    0509        ..      LSLS     r1,r1,#20
        0x010067c2:    1c00        ..      ADDS     r0,r0,#0
        0x010067c4:    414f        OA      ADCS     r7,r7,r1
        0x010067c6:    1800        ..      ADDS     r0,r0,r0
        0x010067c8:    417f        .A      ADCS     r7,r7,r7
        0x010067ca:    4611        .F      MOV      r1,r2
        0x010067cc:    1818        ..      ADDS     r0,r3,r0
        0x010067ce:    4179        yA      ADCS     r1,r1,r7
        0x010067d0:    0fe2        ..      LSRS     r2,r4,#31
        0x010067d2:    4310        .C      ORRS     r0,r0,r2
        0x010067d4:    196d        m.      ADDS     r5,r5,r5
        0x010067d6:    4164        dA      ADCS     r4,r4,r4
        0x010067d8:    e013        ..      B        0x1006802 ; __aeabi_dadd + 290
        0x010067da:    07e2        ..      LSLS     r2,r4,#31
        0x010067dc:    086d        m.      LSRS     r5,r5,#1
        0x010067de:    4315        .C      ORRS     r5,r5,r2
        0x010067e0:    0864        d.      LSRS     r4,r4,#1
        0x010067e2:    07c2        ..      LSLS     r2,r0,#31
        0x010067e4:    4314        .C      ORRS     r4,r4,r2
        0x010067e6:    9a03        ..      LDR      r2,[sp,#0xc]
        0x010067e8:    2601        .&      MOVS     r6,#1
        0x010067ea:    0512        ..      LSLS     r2,r2,#20
        0x010067ec:    1ac0        ..      SUBS     r0,r0,r3
        0x010067ee:    4191        .A      SBCS     r1,r1,r2
        0x010067f0:    0536        6.      LSLS     r6,r6,#20
        0x010067f2:    1c00        ..      ADDS     r0,r0,#0
        0x010067f4:    4171        qA      ADCS     r1,r1,r6
        0x010067f6:    07ce        ..      LSLS     r6,r1,#31
        0x010067f8:    0840        @.      LSRS     r0,r0,#1
        0x010067fa:    4330        0C      ORRS     r0,r0,r6
        0x010067fc:    0849        I.      LSRS     r1,r1,#1
        0x010067fe:    18c0        ..      ADDS     r0,r0,r3
        0x01006800:    4151        QA      ADCS     r1,r1,r2
        0x01006802:    462a        *F      MOV      r2,r5
        0x01006804:    4623        #F      MOV      r3,r4
        0x01006806:    f000f977    ..w.    BL       _double_round ; 0x1006af8
        0x0100680a:    e7cd        ..      B        0x10067a8 ; __aeabi_dadd + 200
        0x0100680c:    e7ff        ..      B        0x100680e ; __aeabi_dadd + 302
        0x0100680e:    9804        ..      LDR      r0,[sp,#0x10]
        0x01006810:    2201        ."      MOVS     r2,#1
        0x01006812:    0040        @.      LSLS     r0,r0,#1
        0x01006814:    17c1        ..      ASRS     r1,r0,#31
        0x01006816:    1a12        ..      SUBS     r2,r2,r0
        0x01006818:    2300        .#      MOVS     r3,#0
        0x0100681a:    418b        .A      SBCS     r3,r3,r1
        0x0100681c:    9804        ..      LDR      r0,[sp,#0x10]
        0x0100681e:    4631        1F      MOV      r1,r6
        0x01006820:    17c4        ..      ASRS     r4,r0,#31
        0x01006822:    1a38        8.      SUBS     r0,r7,r0
        0x01006824:    41a1        .A      SBCS     r1,r1,r4
        0x01006826:    e7ee        ..      B        0x1006806 ; __aeabi_dadd + 294
    __aeabi_dsub
        0x01006828:    b430        0.      PUSH     {r4,r5}
        0x0100682a:    2401        .$      MOVS     r4,#1
        0x0100682c:    07e4        ..      LSLS     r4,r4,#31
        0x0100682e:    4063        c@      EORS     r3,r3,r4
        0x01006830:    bc30        0.      POP      {r4,r5}
        0x01006832:    e755        U.      B        __aeabi_dadd ; 0x10066e0
    __aeabi_drsub
        0x01006834:    b430        0.      PUSH     {r4,r5}
        0x01006836:    2401        .$      MOVS     r4,#1
        0x01006838:    07e4        ..      LSLS     r4,r4,#31
        0x0100683a:    4061        a@      EORS     r1,r1,r4
        0x0100683c:    bc30        0.      POP      {r4,r5}
        0x0100683e:    e74f        O.      B        __aeabi_dadd ; 0x10066e0
    $d
        0x01006840:    ffe00000    ....    DCD    4292870144
    $t
    .text
    __aeabi_dmul
        0x01006844:    b5f0        ..      PUSH     {r4-r7,lr}
        0x01006846:    b41f        ..      PUSH     {r0-r4}
        0x01006848:    b088        ..      SUB      sp,sp,#0x20
        0x0100684a:    990b        ..      LDR      r1,[sp,#0x2c]
        0x0100684c:    9809        ..      LDR      r0,[sp,#0x24]
        0x0100684e:    2400        .$      MOVS     r4,#0
        0x01006850:    4048        H@      EORS     r0,r0,r1
        0x01006852:    9909        ..      LDR      r1,[sp,#0x24]
        0x01006854:    0fc0        ..      LSRS     r0,r0,#31
        0x01006856:    0049        I.      LSLS     r1,r1,#1
        0x01006858:    0849        I.      LSRS     r1,r1,#1
        0x0100685a:    9109        ..      STR      r1,[sp,#0x24]
        0x0100685c:    07c0        ..      LSLS     r0,r0,#31
        0x0100685e:    990b        ..      LDR      r1,[sp,#0x2c]
        0x01006860:    9000        ..      STR      r0,[sp,#0]
        0x01006862:    0049        I.      LSLS     r1,r1,#1
        0x01006864:    0849        I.      LSRS     r1,r1,#1
        0x01006866:    910b        ..      STR      r1,[sp,#0x2c]
        0x01006868:    9909        ..      LDR      r1,[sp,#0x24]
        0x0100686a:    9808        ..      LDR      r0,[sp,#0x20]
        0x0100686c:    46a6        .F      MOV      lr,r4
        0x0100686e:    4308        .C      ORRS     r0,r0,r1
        0x01006870:    d01c        ..      BEQ      0x10068ac ; __aeabi_dmul + 104
        0x01006872:    990b        ..      LDR      r1,[sp,#0x2c]
        0x01006874:    980a        ..      LDR      r0,[sp,#0x28]
        0x01006876:    4308        .C      ORRS     r0,r0,r1
        0x01006878:    d018        ..      BEQ      0x10068ac ; __aeabi_dmul + 104
        0x0100687a:    9809        ..      LDR      r0,[sp,#0x24]
        0x0100687c:    2401        .$      MOVS     r4,#1
        0x0100687e:    0040        @.      LSLS     r0,r0,#1
        0x01006880:    0d42        B.      LSRS     r2,r0,#21
        0x01006882:    0048        H.      LSLS     r0,r1,#1
        0x01006884:    0d41        A.      LSRS     r1,r0,#21
        0x01006886:    9809        ..      LDR      r0,[sp,#0x24]
        0x01006888:    0524        $.      LSLS     r4,r4,#20
        0x0100688a:    0300        ..      LSLS     r0,r0,#12
        0x0100688c:    0b00        ..      LSRS     r0,r0,#12
        0x0100688e:    4320         C      ORRS     r0,r0,r4
        0x01006890:    9009        ..      STR      r0,[sp,#0x24]
        0x01006892:    980b        ..      LDR      r0,[sp,#0x2c]
        0x01006894:    0300        ..      LSLS     r0,r0,#12
        0x01006896:    0b00        ..      LSRS     r0,r0,#12
        0x01006898:    4320         C      ORRS     r0,r0,r4
        0x0100689a:    900b        ..      STR      r0,[sp,#0x2c]
        0x0100689c:    1850        P.      ADDS     r0,r2,r1
        0x0100689e:    491c        .I      LDR      r1,[pc,#112] ; [0x1006910] = 0xfffffc0d
        0x010068a0:    1840        @.      ADDS     r0,r0,r1
        0x010068a2:    2200        ."      MOVS     r2,#0
        0x010068a4:    9001        ..      STR      r0,[sp,#4]
        0x010068a6:    4614        .F      MOV      r4,r2
        0x010068a8:    4610        .F      MOV      r0,r2
        0x010068aa:    e005        ..      B        0x10068b8 ; __aeabi_dmul + 116
        0x010068ac:    2000        .       MOVS     r0,#0
        0x010068ae:    4601        .F      MOV      r1,r0
        0x010068b0:    b00d        ..      ADD      sp,sp,#0x34
        0x010068b2:    bdf0        ..      POP      {r4-r7,pc}
        0x010068b4:    2803        .(      CMP      r0,#3
        0x010068b6:    da01        ..      BGE      0x10068bc ; __aeabi_dmul + 120
        0x010068b8:    4603        .F      MOV      r3,r0
        0x010068ba:    e000        ..      B        0x10068be ; __aeabi_dmul + 122
        0x010068bc:    2303        .#      MOVS     r3,#3
        0x010068be:    469c        .F      MOV      r12,r3
        0x010068c0:    1ac1        ..      SUBS     r1,r0,r3
        0x010068c2:    ae0a        ..      ADD      r6,sp,#0x28
        0x010068c4:    e00a        ..      B        0x10068dc ; __aeabi_dmul + 152
        0x010068c6:    005f        _.      LSLS     r7,r3,#1
        0x010068c8:    ad08        ..      ADD      r5,sp,#0x20
        0x010068ca:    5bed        .[      LDRH     r5,[r5,r7]
        0x010068cc:    004f        O.      LSLS     r7,r1,#1
        0x010068ce:    5bf7        .[      LDRH     r7,[r6,r7]
        0x010068d0:    437d        }C      MULS     r5,r7,r5
        0x010068d2:    2700        .'      MOVS     r7,#0
        0x010068d4:    18aa        ..      ADDS     r2,r5,r2
        0x010068d6:    417c        |A      ADCS     r4,r4,r7
        0x010068d8:    1c49        I.      ADDS     r1,r1,#1
        0x010068da:    1e5b        [.      SUBS     r3,r3,#1
        0x010068dc:    4561        aE      CMP      r1,r12
        0x010068de:    ddf2        ..      BLE      0x10068c6 ; __aeabi_dmul + 130
        0x010068e0:    0041        A.      LSLS     r1,r0,#1
        0x010068e2:    ab04        ..      ADD      r3,sp,#0x10
        0x010068e4:    525a        ZR      STRH     r2,[r3,r1]
        0x010068e6:    0421        !.      LSLS     r1,r4,#16
        0x010068e8:    0c12        ..      LSRS     r2,r2,#16
        0x010068ea:    430a        .C      ORRS     r2,r2,r1
        0x010068ec:    0c24        $.      LSRS     r4,r4,#16
        0x010068ee:    1c40        @.      ADDS     r0,r0,#1
        0x010068f0:    2808        .(      CMP      r0,#8
        0x010068f2:    dbdf        ..      BLT      0x10068b4 ; __aeabi_dmul + 112
        0x010068f4:    9801        ..      LDR      r0,[sp,#4]
        0x010068f6:    9002        ..      STR      r0,[sp,#8]
        0x010068f8:    9900        ..      LDR      r1,[sp,#0]
        0x010068fa:    4670        pF      MOV      r0,lr
        0x010068fc:    9101        ..      STR      r1,[sp,#4]
        0x010068fe:    9000        ..      STR      r0,[sp,#0]
        0x01006900:    9b05        ..      LDR      r3,[sp,#0x14]
        0x01006902:    9a04        ..      LDR      r2,[sp,#0x10]
        0x01006904:    9907        ..      LDR      r1,[sp,#0x1c]
        0x01006906:    9806        ..      LDR      r0,[sp,#0x18]
        0x01006908:    f000f903    ....    BL       _double_epilogue ; 0x1006b12
        0x0100690c:    e7d0        ..      B        0x10068b0 ; __aeabi_dmul + 108
    $d
        0x0100690e:    0000        ..      DCW    0
        0x01006910:    fffffc0d    ....    DCD    4294966285
    $t
    .text
    __aeabi_ddiv
        0x01006914:    b5f0        ..      PUSH     {r4-r7,lr}
        0x01006916:    460c        .F      MOV      r4,r1
        0x01006918:    405c        \@      EORS     r4,r4,r3
        0x0100691a:    b085        ..      SUB      sp,sp,#0x14
        0x0100691c:    0fe4        ..      LSRS     r4,r4,#31
        0x0100691e:    07e4        ..      LSLS     r4,r4,#31
        0x01006920:    9403        ..      STR      r4,[sp,#0xc]
        0x01006922:    004c        L.      LSLS     r4,r1,#1
        0x01006924:    2600        .&      MOVS     r6,#0
        0x01006926:    0864        d.      LSRS     r4,r4,#1
        0x01006928:    0059        Y.      LSLS     r1,r3,#1
        0x0100692a:    4694        .F      MOV      r12,r2
        0x0100692c:    0849        I.      LSRS     r1,r1,#1
        0x0100692e:    4602        .F      MOV      r2,r0
        0x01006930:    9602        ..      STR      r6,[sp,#8]
        0x01006932:    4322        "C      ORRS     r2,r2,r4
        0x01006934:    d021        !.      BEQ      0x100697a ; __aeabi_ddiv + 102
        0x01006936:    4662        bF      MOV      r2,r12
        0x01006938:    430a        .C      ORRS     r2,r2,r1
        0x0100693a:    d01e        ..      BEQ      0x100697a ; __aeabi_ddiv + 102
        0x0100693c:    0062        b.      LSLS     r2,r4,#1
        0x0100693e:    0d57        W.      LSRS     r7,r2,#21
        0x01006940:    004a        J.      LSLS     r2,r1,#1
        0x01006942:    030e        ..      LSLS     r6,r1,#12
        0x01006944:    0323        #.      LSLS     r3,r4,#12
        0x01006946:    0d55        U.      LSRS     r5,r2,#21
        0x01006948:    2401        .$      MOVS     r4,#1
        0x0100694a:    4602        .F      MOV      r2,r0
        0x0100694c:    492c        ,I      LDR      r1,[pc,#176] ; [0x1006a00] = 0x3fd
        0x0100694e:    0524        $.      LSLS     r4,r4,#20
        0x01006950:    1b78        x.      SUBS     r0,r7,r5
        0x01006952:    0b1b        ..      LSRS     r3,r3,#12
        0x01006954:    0b36        6.      LSRS     r6,r6,#12
        0x01006956:    1840        @.      ADDS     r0,r0,r1
        0x01006958:    4323        #C      ORRS     r3,r3,r4
        0x0100695a:    4326        &C      ORRS     r6,r6,r4
        0x0100695c:    4661        aF      MOV      r1,r12
        0x0100695e:    9000        ..      STR      r0,[sp,#0]
        0x01006960:    461c        .F      MOV      r4,r3
        0x01006962:    1a50        P.      SUBS     r0,r2,r1
        0x01006964:    41b4        .A      SBCS     r4,r4,r6
        0x01006966:    d303        ..      BCC      0x1006970 ; __aeabi_ddiv + 92
        0x01006968:    9800        ..      LDR      r0,[sp,#0]
        0x0100696a:    1c40        @.      ADDS     r0,r0,#1
        0x0100696c:    9000        ..      STR      r0,[sp,#0]
        0x0100696e:    e002        ..      B        0x1006976 ; __aeabi_ddiv + 98
        0x01006970:    1892        ..      ADDS     r2,r2,r2
        0x01006972:    9800        ..      LDR      r0,[sp,#0]
        0x01006974:    415b        [A      ADCS     r3,r3,r3
        0x01006976:    2800        .(      CMP      r0,#0
        0x01006978:    da03        ..      BGE      0x1006982 ; __aeabi_ddiv + 110
        0x0100697a:    2000        .       MOVS     r0,#0
        0x0100697c:    4601        .F      MOV      r1,r0
        0x0100697e:    b005        ..      ADD      sp,sp,#0x14
        0x01006980:    bdf0        ..      POP      {r4-r7,pc}
        0x01006982:    2000        .       MOVS     r0,#0
        0x01006984:    2101        .!      MOVS     r1,#1
        0x01006986:    0509        ..      LSLS     r1,r1,#20
        0x01006988:    4607        .F      MOV      r7,r0
        0x0100698a:    4686        .F      MOV      lr,r0
        0x0100698c:    e011        ..      B        0x10069b2 ; __aeabi_ddiv + 158
        0x0100698e:    4664        dF      MOV      r4,r12
        0x01006990:    461d        .F      MOV      r5,r3
        0x01006992:    1b14        ..      SUBS     r4,r2,r4
        0x01006994:    41b5        .A      SBCS     r5,r5,r6
        0x01006996:    d306        ..      BCC      0x10069a6 ; __aeabi_ddiv + 146
        0x01006998:    4665        eF      MOV      r5,r12
        0x0100699a:    1b52        R.      SUBS     r2,r2,r5
        0x0100699c:    41b3        .A      SBCS     r3,r3,r6
        0x0100699e:    4674        tF      MOV      r4,lr
        0x010069a0:    4307        .C      ORRS     r7,r7,r0
        0x010069a2:    430c        .C      ORRS     r4,r4,r1
        0x010069a4:    46a6        .F      MOV      lr,r4
        0x010069a6:    07cd        ..      LSLS     r5,r1,#31
        0x010069a8:    0840        @.      LSRS     r0,r0,#1
        0x010069aa:    0849        I.      LSRS     r1,r1,#1
        0x010069ac:    4328        (C      ORRS     r0,r0,r5
        0x010069ae:    1892        ..      ADDS     r2,r2,r2
        0x010069b0:    415b        [A      ADCS     r3,r3,r3
        0x010069b2:    4605        .F      MOV      r5,r0
        0x010069b4:    430d        .C      ORRS     r5,r5,r1
        0x010069b6:    d1ea        ..      BNE      0x100698e ; __aeabi_ddiv + 122
        0x010069b8:    4610        .F      MOV      r0,r2
        0x010069ba:    4318        .C      ORRS     r0,r0,r3
        0x010069bc:    d013        ..      BEQ      0x10069e6 ; __aeabi_ddiv + 210
        0x010069be:    4660        `F      MOV      r0,r12
        0x010069c0:    4619        .F      MOV      r1,r3
        0x010069c2:    4050        P@      EORS     r0,r0,r2
        0x010069c4:    4071        q@      EORS     r1,r1,r6
        0x010069c6:    4308        .C      ORRS     r0,r0,r1
        0x010069c8:    d006        ..      BEQ      0x10069d8 ; __aeabi_ddiv + 196
        0x010069ca:    4660        `F      MOV      r0,r12
        0x010069cc:    1a10        ..      SUBS     r0,r2,r0
        0x010069ce:    41b3        .A      SBCS     r3,r3,r6
        0x010069d0:    d206        ..      BCS      0x10069e0 ; __aeabi_ddiv + 204
        0x010069d2:    2201        ."      MOVS     r2,#1
        0x010069d4:    2300        .#      MOVS     r3,#0
        0x010069d6:    e006        ..      B        0x10069e6 ; __aeabi_ddiv + 210
        0x010069d8:    2200        ."      MOVS     r2,#0
        0x010069da:    2301        .#      MOVS     r3,#1
        0x010069dc:    07db        ..      LSLS     r3,r3,#31
        0x010069de:    e002        ..      B        0x10069e6 ; __aeabi_ddiv + 210
        0x010069e0:    2201        ."      MOVS     r2,#1
        0x010069e2:    43d2        .C      MVNS     r2,r2
        0x010069e4:    1053        S.      ASRS     r3,r2,#1
        0x010069e6:    9800        ..      LDR      r0,[sp,#0]
        0x010069e8:    4674        tF      MOV      r4,lr
        0x010069ea:    0501        ..      LSLS     r1,r0,#20
        0x010069ec:    1c38        8.      ADDS     r0,r7,#0
        0x010069ee:    4161        aA      ADCS     r1,r1,r4
        0x010069f0:    9c02        ..      LDR      r4,[sp,#8]
        0x010069f2:    9d03        ..      LDR      r5,[sp,#0xc]
        0x010069f4:    1900        ..      ADDS     r0,r0,r4
        0x010069f6:    4169        iA      ADCS     r1,r1,r5
        0x010069f8:    f000f87e    ..~.    BL       _double_round ; 0x1006af8
        0x010069fc:    e7bf        ..      B        0x100697e ; __aeabi_ddiv + 106
    $d
        0x010069fe:    0000        ..      DCW    0
        0x01006a00:    000003fd    ....    DCD    1021
    $t
    .text
    __aeabi_d2ulz
        0x01006a04:    004a        J.      LSLS     r2,r1,#1
        0x01006a06:    0309        ..      LSLS     r1,r1,#12
        0x01006a08:    2301        .#      MOVS     r3,#1
        0x01006a0a:    0b09        ..      LSRS     r1,r1,#12
        0x01006a0c:    051b        ..      LSLS     r3,r3,#20
        0x01006a0e:    4319        .C      ORRS     r1,r1,r3
        0x01006a10:    4b0a        .K      LDR      r3,[pc,#40] ; [0x1006a3c] = 0x3ff
        0x01006a12:    b510        ..      PUSH     {r4,lr}
        0x01006a14:    0d52        R.      LSRS     r2,r2,#21
        0x01006a16:    429a        .B      CMP      r2,r3
        0x01006a18:    da02        ..      BGE      0x1006a20 ; __aeabi_d2ulz + 28
        0x01006a1a:    2000        .       MOVS     r0,#0
        0x01006a1c:    4601        .F      MOV      r1,r0
        0x01006a1e:    bd10        ..      POP      {r4,pc}
        0x01006a20:    4b06        .K      LDR      r3,[pc,#24] ; [0x1006a3c] = 0x3ff
        0x01006a22:    3334        43      ADDS     r3,r3,#0x34
        0x01006a24:    429a        .B      CMP      r2,r3
        0x01006a26:    dc03        ..      BGT      0x1006a30 ; __aeabi_d2ulz + 44
        0x01006a28:    1a9a        ..      SUBS     r2,r3,r2
        0x01006a2a:    f000f841    ..A.    BL       __aeabi_llsr ; 0x1006ab0
        0x01006a2e:    bd10        ..      POP      {r4,pc}
        0x01006a30:    4b03        .K      LDR      r3,[pc,#12] ; [0x1006a40] = 0xfffffbcd
        0x01006a32:    18d2        ..      ADDS     r2,r2,r3
        0x01006a34:    f000f82c    ..,.    BL       __aeabi_llsl ; 0x1006a90
        0x01006a38:    bd10        ..      POP      {r4,pc}
    $d
        0x01006a3a:    0000        ..      DCW    0
        0x01006a3c:    000003ff    ....    DCD    1023
        0x01006a40:    fffffbcd    ....    DCD    4294966221
    $t
    .text
    __aeabi_cdrcmple
        0x01006a44:    b510        ..      PUSH     {r4,lr}
        0x01006a46:    2900        .)      CMP      r1,#0
        0x01006a48:    db04        ..      BLT      0x1006a54 ; __aeabi_cdrcmple + 16
        0x01006a4a:    2401        .$      MOVS     r4,#1
        0x01006a4c:    07e4        ..      LSLS     r4,r4,#31
        0x01006a4e:    4240        @B      RSBS     r0,r0,#0
        0x01006a50:    418c        .A      SBCS     r4,r4,r1
        0x01006a52:    4621        !F      MOV      r1,r4
        0x01006a54:    2b00        .+      CMP      r3,#0
        0x01006a56:    db04        ..      BLT      0x1006a62 ; __aeabi_cdrcmple + 30
        0x01006a58:    461c        .F      MOV      r4,r3
        0x01006a5a:    2301        .#      MOVS     r3,#1
        0x01006a5c:    07db        ..      LSLS     r3,r3,#31
        0x01006a5e:    4252        RB      RSBS     r2,r2,#0
        0x01006a60:    41a3        .A      SBCS     r3,r3,r4
        0x01006a62:    4299        .B      CMP      r1,r3
        0x01006a64:    d100        ..      BNE      0x1006a68 ; __aeabi_cdrcmple + 36
        0x01006a66:    4290        .B      CMP      r0,r2
        0x01006a68:    bd10        ..      POP      {r4,pc}
    $d
        0x01006a6a:    0000        ..      DCW    0
    $t
    .text
    __scatterload
    __scatterload_rt2
        0x01006a6c:    4c06        .L      LDR      r4,[pc,#24] ; [0x1006a88] = 0x10083c4
        0x01006a6e:    2501        .%      MOVS     r5,#1
        0x01006a70:    4e06        .N      LDR      r6,[pc,#24] ; [0x1006a8c] = 0x10083e4
        0x01006a72:    e005        ..      B        0x1006a80 ; __scatterload + 20
        0x01006a74:    68e3        .h      LDR      r3,[r4,#0xc]
        0x01006a76:    cc07        ..      LDM      r4!,{r0-r2}
        0x01006a78:    432b        +C      ORRS     r3,r3,r5
        0x01006a7a:    3c0c        .<      SUBS     r4,r4,#0xc
        0x01006a7c:    4798        .G      BLX      r3
        0x01006a7e:    3410        .4      ADDS     r4,r4,#0x10
        0x01006a80:    42b4        .B      CMP      r4,r6
        0x01006a82:    d3f7        ..      BCC      0x1006a74 ; __scatterload + 8
        0x01006a84:    f7f9fcc0    ....    BL       __main_after_scatterload ; 0x1000408
    $d
        0x01006a88:    010083c4    ....    DCD    16810948
        0x01006a8c:    010083e4    ....    DCD    16810980
    $t
    .text
    __aeabi_llsl
    _ll_shift_l
        0x01006a90:    b510        ..      PUSH     {r4,lr}
        0x01006a92:    2a20         *      CMP      r2,#0x20
        0x01006a94:    db04        ..      BLT      0x1006aa0 ; __aeabi_llsl + 16
        0x01006a96:    4601        .F      MOV      r1,r0
        0x01006a98:    3a20         :      SUBS     r2,r2,#0x20
        0x01006a9a:    4091        .@      LSLS     r1,r1,r2
        0x01006a9c:    2000        .       MOVS     r0,#0
        0x01006a9e:    bd10        ..      POP      {r4,pc}
        0x01006aa0:    4091        .@      LSLS     r1,r1,r2
        0x01006aa2:    2320         #      MOVS     r3,#0x20
        0x01006aa4:    1a9c        ..      SUBS     r4,r3,r2
        0x01006aa6:    4603        .F      MOV      r3,r0
        0x01006aa8:    40e3        .@      LSRS     r3,r3,r4
        0x01006aaa:    4319        .C      ORRS     r1,r1,r3
        0x01006aac:    4090        .@      LSLS     r0,r0,r2
        0x01006aae:    bd10        ..      POP      {r4,pc}
    .text
    __aeabi_llsr
    _ll_ushift_r
        0x01006ab0:    b510        ..      PUSH     {r4,lr}
        0x01006ab2:    2a20         *      CMP      r2,#0x20
        0x01006ab4:    db04        ..      BLT      0x1006ac0 ; __aeabi_llsr + 16
        0x01006ab6:    4608        .F      MOV      r0,r1
        0x01006ab8:    3a20         :      SUBS     r2,r2,#0x20
        0x01006aba:    40d0        .@      LSRS     r0,r0,r2
        0x01006abc:    2100        .!      MOVS     r1,#0
        0x01006abe:    bd10        ..      POP      {r4,pc}
        0x01006ac0:    460b        .F      MOV      r3,r1
        0x01006ac2:    40d3        .@      LSRS     r3,r3,r2
        0x01006ac4:    40d0        .@      LSRS     r0,r0,r2
        0x01006ac6:    2420         $      MOVS     r4,#0x20
        0x01006ac8:    1aa2        ..      SUBS     r2,r4,r2
        0x01006aca:    4091        .@      LSLS     r1,r1,r2
        0x01006acc:    4308        .C      ORRS     r0,r0,r1
        0x01006ace:    4619        .F      MOV      r1,r3
        0x01006ad0:    bd10        ..      POP      {r4,pc}
    .text
    __aeabi_lasr
    _ll_sshift_r
        0x01006ad2:    b510        ..      PUSH     {r4,lr}
        0x01006ad4:    2a20         *      CMP      r2,#0x20
        0x01006ad6:    db06        ..      BLT      0x1006ae6 ; __aeabi_lasr + 20
        0x01006ad8:    17cb        ..      ASRS     r3,r1,#31
        0x01006ada:    4608        .F      MOV      r0,r1
        0x01006adc:    3a20         :      SUBS     r2,r2,#0x20
        0x01006ade:    4110        .A      ASRS     r0,r0,r2
        0x01006ae0:    17c1        ..      ASRS     r1,r0,#31
        0x01006ae2:    430b        .C      ORRS     r3,r3,r1
        0x01006ae4:    e006        ..      B        0x1006af4 ; __aeabi_lasr + 34
        0x01006ae6:    460b        .F      MOV      r3,r1
        0x01006ae8:    4113        .A      ASRS     r3,r3,r2
        0x01006aea:    40d0        .@      LSRS     r0,r0,r2
        0x01006aec:    2420         $      MOVS     r4,#0x20
        0x01006aee:    1aa2        ..      SUBS     r2,r4,r2
        0x01006af0:    4091        .@      LSLS     r1,r1,r2
        0x01006af2:    4308        .C      ORRS     r0,r0,r1
        0x01006af4:    4619        .F      MOV      r1,r3
        0x01006af6:    bd10        ..      POP      {r4,pc}
    .text
    _double_round
        0x01006af8:    b510        ..      PUSH     {r4,lr}
        0x01006afa:    2b00        .+      CMP      r3,#0
        0x01006afc:    da08        ..      BGE      0x1006b10 ; _double_round + 24
        0x01006afe:    2400        .$      MOVS     r4,#0
        0x01006b00:    1c40        @.      ADDS     r0,r0,#1
        0x01006b02:    4161        aA      ADCS     r1,r1,r4
        0x01006b04:    1892        ..      ADDS     r2,r2,r2
        0x01006b06:    415b        [A      ADCS     r3,r3,r3
        0x01006b08:    431a        .C      ORRS     r2,r2,r3
        0x01006b0a:    d101        ..      BNE      0x1006b10 ; _double_round + 24
        0x01006b0c:    0840        @.      LSRS     r0,r0,#1
        0x01006b0e:    0040        @.      LSLS     r0,r0,#1
        0x01006b10:    bd10        ..      POP      {r4,pc}
    _double_epilogue
        0x01006b12:    b5f0        ..      PUSH     {r4-r7,lr}
        0x01006b14:    b41f        ..      PUSH     {r0-r4}
        0x01006b16:    b082        ..      SUB      sp,sp,#8
        0x01006b18:    4605        .F      MOV      r5,r0
        0x01006b1a:    000c        ..      MOVS     r4,r1
        0x01006b1c:    d003        ..      BEQ      0x1006b26 ; _double_epilogue + 20
        0x01006b1e:    4608        .F      MOV      r0,r1
        0x01006b20:    f000f876    ..v.    BL       __ARM_clz ; 0x1006c10
        0x01006b24:    e002        ..      B        0x1006b2c ; _double_epilogue + 26
        0x01006b26:    f000f873    ..s.    BL       __ARM_clz ; 0x1006c10
        0x01006b2a:    3020         0      ADDS     r0,r0,#0x20
        0x01006b2c:    4602        .F      MOV      r2,r0
        0x01006b2e:    9000        ..      STR      r0,[sp,#0]
        0x01006b30:    4621        !F      MOV      r1,r4
        0x01006b32:    4628        (F      MOV      r0,r5
        0x01006b34:    f7ffffac    ....    BL       __aeabi_llsl ; 0x1006a90
        0x01006b38:    9b04        ..      LDR      r3,[sp,#0x10]
        0x01006b3a:    9a05        ..      LDR      r2,[sp,#0x14]
        0x01006b3c:    4604        .F      MOV      r4,r0
        0x01006b3e:    460f        .F      MOV      r7,r1
        0x01006b40:    4318        .C      ORRS     r0,r0,r3
        0x01006b42:    4311        .C      ORRS     r1,r1,r2
        0x01006b44:    4308        .C      ORRS     r0,r0,r1
        0x01006b46:    d014        ..      BEQ      0x1006b72 ; _double_epilogue + 96
        0x01006b48:    4618        .F      MOV      r0,r3
        0x01006b4a:    4310        .C      ORRS     r0,r0,r2
        0x01006b4c:    d01b        ..      BEQ      0x1006b86 ; _double_epilogue + 116
        0x01006b4e:    9800        ..      LDR      r0,[sp,#0]
        0x01006b50:    2140        @!      MOVS     r1,#0x40
        0x01006b52:    1a0a        ..      SUBS     r2,r1,r0
        0x01006b54:    4618        .F      MOV      r0,r3
        0x01006b56:    9905        ..      LDR      r1,[sp,#0x14]
        0x01006b58:    f7ffffaa    ....    BL       __aeabi_llsr ; 0x1006ab0
        0x01006b5c:    4605        .F      MOV      r5,r0
        0x01006b5e:    460e        .F      MOV      r6,r1
        0x01006b60:    9a00        ..      LDR      r2,[sp,#0]
        0x01006b62:    9905        ..      LDR      r1,[sp,#0x14]
        0x01006b64:    9804        ..      LDR      r0,[sp,#0x10]
        0x01006b66:    f7ffff93    ....    BL       __aeabi_llsl ; 0x1006a90
        0x01006b6a:    4308        .C      ORRS     r0,r0,r1
        0x01006b6c:    d005        ..      BEQ      0x1006b7a ; _double_epilogue + 104
        0x01006b6e:    2001        .       MOVS     r0,#1
        0x01006b70:    e004        ..      B        0x1006b7c ; _double_epilogue + 106
        0x01006b72:    4620         F      MOV      r0,r4
        0x01006b74:    4639        9F      MOV      r1,r7
        0x01006b76:    b007        ..      ADD      sp,sp,#0x1c
        0x01006b78:    bdf0        ..      POP      {r4-r7,pc}
        0x01006b7a:    2000        .       MOVS     r0,#0
        0x01006b7c:    17c1        ..      ASRS     r1,r0,#31
        0x01006b7e:    4305        .C      ORRS     r5,r5,r0
        0x01006b80:    430e        .C      ORRS     r6,r6,r1
        0x01006b82:    432c        ,C      ORRS     r4,r4,r5
        0x01006b84:    4337        7C      ORRS     r7,r7,r6
        0x01006b86:    9900        ..      LDR      r1,[sp,#0]
        0x01006b88:    980e        ..      LDR      r0,[sp,#0x38]
        0x01006b8a:    0563        c.      LSLS     r3,r4,#21
        0x01006b8c:    1a40        @.      SUBS     r0,r0,r1
        0x01006b8e:    0579        y.      LSLS     r1,r7,#21
        0x01006b90:    0ae4        ..      LSRS     r4,r4,#11
        0x01006b92:    2200        ."      MOVS     r2,#0
        0x01006b94:    430c        .C      ORRS     r4,r4,r1
        0x01006b96:    0afd        ..      LSRS     r5,r7,#11
        0x01006b98:    300a        .0      ADDS     r0,r0,#0xa
        0x01006b9a:    d502        ..      BPL      0x1006ba2 ; _double_epilogue + 144
        0x01006b9c:    2000        .       MOVS     r0,#0
        0x01006b9e:    4601        .F      MOV      r1,r0
        0x01006ba0:    e7e9        ..      B        0x1006b76 ; _double_epilogue + 100
        0x01006ba2:    0501        ..      LSLS     r1,r0,#20
        0x01006ba4:    1910        ..      ADDS     r0,r2,r4
        0x01006ba6:    4169        iA      ADCS     r1,r1,r5
        0x01006ba8:    9c0c        ..      LDR      r4,[sp,#0x30]
        0x01006baa:    9d0d        ..      LDR      r5,[sp,#0x34]
        0x01006bac:    1900        ..      ADDS     r0,r0,r4
        0x01006bae:    4169        iA      ADCS     r1,r1,r5
        0x01006bb0:    f7ffffa2    ....    BL       _double_round ; 0x1006af8
        0x01006bb4:    e7df        ..      B        0x1006b76 ; _double_epilogue + 100
        0x01006bb6:    0000        ..      MOVS     r0,r0
    $Ven$TT$L$$delay
        0x01006bb8:    b403        ..      PUSH     {r0,r1}
        0x01006bba:    4801        .H      LDR      r0,[pc,#4] ; [0x1006bc0] = 0xc7
        0x01006bbc:    9001        ..      STR      r0,[sp,#4]
        0x01006bbe:    bd01        ..      POP      {r0,pc}
    $d
        0x01006bc0:    000000c7    ....    DCD    199
    $t
    i.__0printf
    __0printf
    __1printf
    __2printf
    __c89printf
    printf
        0x01006bc4:    b40f        ..      PUSH     {r0-r3}
        0x01006bc6:    b510        ..      PUSH     {r4,lr}
        0x01006bc8:    a903        ..      ADD      r1,sp,#0xc
        0x01006bca:    4b04        .K      LDR      r3,[pc,#16] ; [0x1006bdc] = 0x10046ad
        0x01006bcc:    4a04        .J      LDR      r2,[pc,#16] ; [0x1006be0] = 0x20068
        0x01006bce:    9802        ..      LDR      r0,[sp,#8]
        0x01006bd0:    f000f90c    ....    BL       _printf_core ; 0x1006dec
        0x01006bd4:    bc10        ..      POP      {r4}
        0x01006bd6:    bc08        ..      POP      {r3}
        0x01006bd8:    b004        ..      ADD      sp,sp,#0x10
        0x01006bda:    4718        .G      BX       r3
    $d
        0x01006bdc:    010046ad    .F..    DCD    16795309
        0x01006be0:    00020068    h...    DCD    131176
    $t
    i.__0vsnprintf
    __0vsnprintf
    __1vsnprintf
    __2vsnprintf
    __c89vsnprintf
    vsnprintf
        0x01006be4:    b57c        |.      PUSH     {r2-r6,lr}
        0x01006be6:    4615        .F      MOV      r5,r2
        0x01006be8:    4602        .F      MOV      r2,r0
        0x01006bea:    2000        .       MOVS     r0,#0
        0x01006bec:    461c        .F      MOV      r4,r3
        0x01006bee:    2900        .)      CMP      r1,#0
        0x01006bf0:    d00b        ..      BEQ      0x1006c0a ; __0vsnprintf + 38
        0x01006bf2:    1e49        I.      SUBS     r1,r1,#1
        0x01006bf4:    9200        ..      STR      r2,[sp,#0]
        0x01006bf6:    9101        ..      STR      r1,[sp,#4]
        0x01006bf8:    4b04        .K      LDR      r3,[pc,#16] ; [0x1006c0c] = 0x1007525
        0x01006bfa:    466a        jF      MOV      r2,sp
        0x01006bfc:    4621        !F      MOV      r1,r4
        0x01006bfe:    4628        (F      MOV      r0,r5
        0x01006c00:    f000f8f4    ....    BL       _printf_core ; 0x1006dec
        0x01006c04:    9a00        ..      LDR      r2,[sp,#0]
        0x01006c06:    2100        .!      MOVS     r1,#0
        0x01006c08:    7011        .p      STRB     r1,[r2,#0]
        0x01006c0a:    bd7c        |.      POP      {r2-r6,pc}
    $d
        0x01006c0c:    01007525    %u..    DCD    16807205
    $t
    i.__ARM_clz
    __ARM_clz
        0x01006c10:    2120         !      MOVS     r1,#0x20
        0x01006c12:    0c02        ..      LSRS     r2,r0,#16
        0x01006c14:    d001        ..      BEQ      0x1006c1a ; __ARM_clz + 10
        0x01006c16:    2110        .!      MOVS     r1,#0x10
        0x01006c18:    4610        .F      MOV      r0,r2
        0x01006c1a:    0a02        ..      LSRS     r2,r0,#8
        0x01006c1c:    d001        ..      BEQ      0x1006c22 ; __ARM_clz + 18
        0x01006c1e:    4610        .F      MOV      r0,r2
        0x01006c20:    3908        .9      SUBS     r1,r1,#8
        0x01006c22:    0902        ..      LSRS     r2,r0,#4
        0x01006c24:    d001        ..      BEQ      0x1006c2a ; __ARM_clz + 26
        0x01006c26:    4610        .F      MOV      r0,r2
        0x01006c28:    1f09        ..      SUBS     r1,r1,#4
        0x01006c2a:    0882        ..      LSRS     r2,r0,#2
        0x01006c2c:    d001        ..      BEQ      0x1006c32 ; __ARM_clz + 34
        0x01006c2e:    4610        .F      MOV      r0,r2
        0x01006c30:    1e89        ..      SUBS     r1,r1,#2
        0x01006c32:    0842        B.      LSRS     r2,r0,#1
        0x01006c34:    d001        ..      BEQ      0x1006c3a ; __ARM_clz + 42
        0x01006c36:    1e88        ..      SUBS     r0,r1,#2
        0x01006c38:    4770        pG      BX       lr
        0x01006c3a:    1a08        ..      SUBS     r0,r1,r0
        0x01006c3c:    4770        pG      BX       lr
    i.__ARM_common_switch8
    __ARM_common_switch8
        0x01006c3e:    b430        0.      PUSH     {r4,r5}
        0x01006c40:    4674        tF      MOV      r4,lr
        0x01006c42:    1e64        d.      SUBS     r4,r4,#1
        0x01006c44:    7825        %x      LDRB     r5,[r4,#0]
        0x01006c46:    1c64        d.      ADDS     r4,r4,#1
        0x01006c48:    42ab        .B      CMP      r3,r5
        0x01006c4a:    d304        ..      BCC      0x1006c56 ; __ARM_common_switch8 + 24
        0x01006c4c:    5d63        c]      LDRB     r3,[r4,r5]
        0x01006c4e:    005b        [.      LSLS     r3,r3,#1
        0x01006c50:    18e3        ..      ADDS     r3,r4,r3
        0x01006c52:    bc30        0.      POP      {r4,r5}
        0x01006c54:    4718        .G      BX       r3
        0x01006c56:    461d        .F      MOV      r5,r3
        0x01006c58:    e7f8        ..      B        0x1006c4c ; __ARM_common_switch8 + 14
    i.__scatterload_copy
    __scatterload_copy
        0x01006c5a:    e002        ..      B        0x1006c62 ; __scatterload_copy + 8
        0x01006c5c:    c808        ..      LDM      r0!,{r3}
        0x01006c5e:    1f12        ..      SUBS     r2,r2,#4
        0x01006c60:    c108        ..      STM      r1!,{r3}
        0x01006c62:    2a00        .*      CMP      r2,#0
        0x01006c64:    d1fa        ..      BNE      0x1006c5c ; __scatterload_copy + 2
        0x01006c66:    4770        pG      BX       lr
    i.__scatterload_null
    __scatterload_null
        0x01006c68:    4770        pG      BX       lr
    i.__scatterload_zeroinit
    __scatterload_zeroinit
        0x01006c6a:    2000        .       MOVS     r0,#0
        0x01006c6c:    e001        ..      B        0x1006c72 ; __scatterload_zeroinit + 8
        0x01006c6e:    c101        ..      STM      r1!,{r0}
        0x01006c70:    1f12        ..      SUBS     r2,r2,#4
        0x01006c72:    2a00        .*      CMP      r2,#0
        0x01006c74:    d1fb        ..      BNE      0x1006c6e ; __scatterload_zeroinit + 4
        0x01006c76:    4770        pG      BX       lr
    i._fp_digits
    _fp_digits
        0x01006c78:    b5f0        ..      PUSH     {r4-r7,lr}
        0x01006c7a:    b41f        ..      PUSH     {r0-r4}
        0x01006c7c:    b086        ..      SUB      sp,sp,#0x18
        0x01006c7e:    9809        ..      LDR      r0,[sp,#0x24]
        0x01006c80:    9a08        ..      LDR      r2,[sp,#0x20]
        0x01006c82:    0d03        ..      LSRS     r3,r0,#20
        0x01006c84:    2100        .!      MOVS     r1,#0
        0x01006c86:    4302        .C      ORRS     r2,r2,r0
        0x01006c88:    d014        ..      BEQ      0x1006cb4 ; _fp_digits + 60
        0x01006c8a:    4851        QH      LDR      r0,[pc,#324] ; [0x1006dd0] = 0xfffffc01
        0x01006c8c:    4a51        QJ      LDR      r2,[pc,#324] ; [0x1006dd4] = 0x4d10
        0x01006c8e:    1818        ..      ADDS     r0,r3,r0
        0x01006c90:    4350        PC      MULS     r0,r2,r0
        0x01006c92:    1405        ..      ASRS     r5,r0,#16
        0x01006c94:    9811        ..      LDR      r0,[sp,#0x44]
        0x01006c96:    2801        .(      CMP      r0,#1
        0x01006c98:    9810        ..      LDR      r0,[sp,#0x40]
        0x01006c9a:    d01a        ..      BEQ      0x1006cd2 ; _fp_digits + 90
        0x01006c9c:    1a28        (.      SUBS     r0,r5,r0
        0x01006c9e:    1c40        @.      ADDS     r0,r0,#1
        0x01006ca0:    2600        .&      MOVS     r6,#0
        0x01006ca2:    4f4d        MO      LDR      r7,[pc,#308] ; [0x1006dd8] = 0x40140000
        0x01006ca4:    494d        MI      LDR      r1,[pc,#308] ; [0x1006ddc] = 0x3ff00000
        0x01006ca6:    9600        ..      STR      r6,[sp,#0]
        0x01006ca8:    9101        ..      STR      r1,[sp,#4]
        0x01006caa:    9004        ..      STR      r0,[sp,#0x10]
        0x01006cac:    2800        .(      CMP      r0,#0
        0x01006cae:    da12        ..      BGE      0x1006cd6 ; _fp_digits + 94
        0x01006cb0:    4244        DB      RSBS     r4,r0,#0
        0x01006cb2:    e011        ..      B        0x1006cd8 ; _fp_digits + 96
        0x01006cb4:    9811        ..      LDR      r0,[sp,#0x44]
        0x01006cb6:    2401        .$      MOVS     r4,#1
        0x01006cb8:    a349        I.      ADR      r3,{pc}+0x128 ; 0x1006de0
        0x01006cba:    2801        .(      CMP      r0,#1
        0x01006cbc:    d101        ..      BNE      0x1006cc2 ; _fp_digits + 74
        0x01006cbe:    9810        ..      LDR      r0,[sp,#0x40]
        0x01006cc0:    43c1        .C      MVNS     r1,r0
        0x01006cc2:    9806        ..      LDR      r0,[sp,#0x18]
        0x01006cc4:    9a11        ..      LDR      r2,[sp,#0x44]
        0x01006cc6:    6084        .`      STR      r4,[r0,#8]
        0x01006cc8:    6003        .`      STR      r3,[r0,#0]
        0x01006cca:    60c2        .`      STR      r2,[r0,#0xc]
        0x01006ccc:    6041        A`      STR      r1,[r0,#4]
        0x01006cce:    b00b        ..      ADD      sp,sp,#0x2c
        0x01006cd0:    bdf0        ..      POP      {r4-r7,pc}
        0x01006cd2:    4240        @B      RSBS     r0,r0,#0
        0x01006cd4:    e7e4        ..      B        0x1006ca0 ; _fp_digits + 40
        0x01006cd6:    4604        .F      MOV      r4,r0
        0x01006cd8:    0521        !.      LSLS     r1,r4,#20
        0x01006cda:    2000        .       MOVS     r0,#0
        0x01006cdc:    4a3f        ?J      LDR      r2,[pc,#252] ; [0x1006ddc] = 0x3ff00000
        0x01006cde:    1c00        ..      ADDS     r0,r0,#0
        0x01006ce0:    4151        QA      ADCS     r1,r1,r2
        0x01006ce2:    9103        ..      STR      r1,[sp,#0xc]
        0x01006ce4:    9002        ..      STR      r0,[sp,#8]
        0x01006ce6:    e012        ..      B        0x1006d0e ; _fp_digits + 150
        0x01006ce8:    07e0        ..      LSLS     r0,r4,#31
        0x01006cea:    d007        ..      BEQ      0x1006cfc ; _fp_digits + 132
        0x01006cec:    4632        2F      MOV      r2,r6
        0x01006cee:    463b        ;F      MOV      r3,r7
        0x01006cf0:    9901        ..      LDR      r1,[sp,#4]
        0x01006cf2:    9800        ..      LDR      r0,[sp,#0]
        0x01006cf4:    f7fffda6    ....    BL       __aeabi_dmul ; 0x1006844
        0x01006cf8:    9101        ..      STR      r1,[sp,#4]
        0x01006cfa:    9000        ..      STR      r0,[sp,#0]
        0x01006cfc:    4632        2F      MOV      r2,r6
        0x01006cfe:    463b        ;F      MOV      r3,r7
        0x01006d00:    4610        .F      MOV      r0,r2
        0x01006d02:    4619        .F      MOV      r1,r3
        0x01006d04:    f7fffd9e    ....    BL       __aeabi_dmul ; 0x1006844
        0x01006d08:    4606        .F      MOV      r6,r0
        0x01006d0a:    460f        .F      MOV      r7,r1
        0x01006d0c:    1064        d.      ASRS     r4,r4,#1
        0x01006d0e:    2c00        .,      CMP      r4,#0
        0x01006d10:    d1ea        ..      BNE      0x1006ce8 ; _fp_digits + 112
        0x01006d12:    9804        ..      LDR      r0,[sp,#0x10]
        0x01006d14:    9b03        ..      LDR      r3,[sp,#0xc]
        0x01006d16:    2800        .(      CMP      r0,#0
        0x01006d18:    9a02        ..      LDR      r2,[sp,#8]
        0x01006d1a:    9909        ..      LDR      r1,[sp,#0x24]
        0x01006d1c:    9808        ..      LDR      r0,[sp,#0x20]
        0x01006d1e:    da06        ..      BGE      0x1006d2e ; _fp_digits + 182
        0x01006d20:    f7fffd90    ....    BL       __aeabi_dmul ; 0x1006844
        0x01006d24:    9b01        ..      LDR      r3,[sp,#4]
        0x01006d26:    9a00        ..      LDR      r2,[sp,#0]
        0x01006d28:    f7fffd8c    ....    BL       __aeabi_dmul ; 0x1006844
        0x01006d2c:    e005        ..      B        0x1006d3a ; _fp_digits + 194
        0x01006d2e:    f7fffdf1    ....    BL       __aeabi_ddiv ; 0x1006914
        0x01006d32:    9b01        ..      LDR      r3,[sp,#4]
        0x01006d34:    9a00        ..      LDR      r2,[sp,#0]
        0x01006d36:    f7fffded    ....    BL       __aeabi_ddiv ; 0x1006914
        0x01006d3a:    4604        .F      MOV      r4,r0
        0x01006d3c:    460e        .F      MOV      r6,r1
        0x01006d3e:    2200        ."      MOVS     r2,#0
        0x01006d40:    4b28        (K      LDR      r3,[pc,#160] ; [0x1006de4] = 0x43f00000
        0x01006d42:    f7fffe7f    ....    BL       __aeabi_cdrcmple ; 0x1006a44
        0x01006d46:    d803        ..      BHI      0x1006d50 ; _fp_digits + 216
        0x01006d48:    2000        .       MOVS     r0,#0
        0x01006d4a:    43c0        .C      MVNS     r0,r0
        0x01006d4c:    4601        .F      MOV      r1,r0
        0x01006d4e:    e007        ..      B        0x1006d60 ; _fp_digits + 232
        0x01006d50:    2200        ."      MOVS     r2,#0
        0x01006d52:    4b25        %K      LDR      r3,[pc,#148] ; [0x1006de8] = 0x3fe00000
        0x01006d54:    4620         F      MOV      r0,r4
        0x01006d56:    4631        1F      MOV      r1,r6
        0x01006d58:    f7fffcc2    ....    BL       __aeabi_dadd ; 0x10066e0
        0x01006d5c:    f7fffe52    ..R.    BL       __aeabi_d2ulz ; 0x1006a04
        0x01006d60:    2410        .$      MOVS     r4,#0x10
        0x01006d62:    e009        ..      B        0x1006d78 ; _fp_digits + 256
        0x01006d64:    2c00        .,      CMP      r4,#0
        0x01006d66:    db0a        ..      BLT      0x1006d7e ; _fp_digits + 262
        0x01006d68:    220a        ."      MOVS     r2,#0xa
        0x01006d6a:    2300        .#      MOVS     r3,#0
        0x01006d6c:    f7fffc87    ....    BL       __aeabi_uldivmod ; 0x100667e
        0x01006d70:    9b07        ..      LDR      r3,[sp,#0x1c]
        0x01006d72:    3230        02      ADDS     r2,r2,#0x30
        0x01006d74:    551a        .U      STRB     r2,[r3,r4]
        0x01006d76:    1e64        d.      SUBS     r4,r4,#1
        0x01006d78:    4602        .F      MOV      r2,r0
        0x01006d7a:    430a        .C      ORRS     r2,r2,r1
        0x01006d7c:    d1f2        ..      BNE      0x1006d64 ; _fp_digits + 236
        0x01006d7e:    2211        ."      MOVS     r2,#0x11
        0x01006d80:    1c64        d.      ADDS     r4,r4,#1
        0x01006d82:    9b07        ..      LDR      r3,[sp,#0x1c]
        0x01006d84:    1b12        ..      SUBS     r2,r2,r4
        0x01006d86:    191c        ..      ADDS     r4,r3,r4
        0x01006d88:    9b11        ..      LDR      r3,[sp,#0x44]
        0x01006d8a:    2b01        .+      CMP      r3,#1
        0x01006d8c:    d003        ..      BEQ      0x1006d96 ; _fp_digits + 286
        0x01006d8e:    2301        .#      MOVS     r3,#1
        0x01006d90:    4308        .C      ORRS     r0,r0,r1
        0x01006d92:    d10e        ..      BNE      0x1006db2 ; _fp_digits + 314
        0x01006d94:    e00a        ..      B        0x1006dac ; _fp_digits + 308
        0x01006d96:    4308        .C      ORRS     r0,r0,r1
        0x01006d98:    d004        ..      BEQ      0x1006da4 ; _fp_digits + 300
        0x01006d9a:    2011        .       MOVS     r0,#0x11
        0x01006d9c:    9010        ..      STR      r0,[sp,#0x40]
        0x01006d9e:    2000        .       MOVS     r0,#0
        0x01006da0:    9011        ..      STR      r0,[sp,#0x44]
        0x01006da2:    e777        w.      B        0x1006c94 ; _fp_digits + 28
        0x01006da4:    9810        ..      LDR      r0,[sp,#0x40]
        0x01006da6:    1a15        ..      SUBS     r5,r2,r0
        0x01006da8:    1e6d        m.      SUBS     r5,r5,#1
        0x01006daa:    e00b        ..      B        0x1006dc4 ; _fp_digits + 332
        0x01006dac:    9810        ..      LDR      r0,[sp,#0x40]
        0x01006dae:    4282        .B      CMP      r2,r0
        0x01006db0:    dd02        ..      BLE      0x1006db8 ; _fp_digits + 320
        0x01006db2:    2300        .#      MOVS     r3,#0
        0x01006db4:    1c6d        m.      ADDS     r5,r5,#1
        0x01006db6:    e003        ..      B        0x1006dc0 ; _fp_digits + 328
        0x01006db8:    4282        .B      CMP      r2,r0
        0x01006dba:    da01        ..      BGE      0x1006dc0 ; _fp_digits + 328
        0x01006dbc:    2300        .#      MOVS     r3,#0
        0x01006dbe:    1e6d        m.      SUBS     r5,r5,#1
        0x01006dc0:    2b00        .+      CMP      r3,#0
        0x01006dc2:    d0ee        ..      BEQ      0x1006da2 ; _fp_digits + 298
        0x01006dc4:    9806        ..      LDR      r0,[sp,#0x18]
        0x01006dc6:    9911        ..      LDR      r1,[sp,#0x44]
        0x01006dc8:    6082        .`      STR      r2,[r0,#8]
        0x01006dca:    60c1        .`      STR      r1,[r0,#0xc]
        0x01006dcc:    c030        0.      STM      r0!,{r4,r5}
        0x01006dce:    e77e        ~.      B        0x1006cce ; _fp_digits + 86
    $d
        0x01006dd0:    fffffc01    ....    DCD    4294966273
        0x01006dd4:    00004d10    .M..    DCD    19728
        0x01006dd8:    40140000    ...@    DCD    1075052544
        0x01006ddc:    3ff00000    ...?    DCD    1072693248
        0x01006de0:    00000030    0...    DCD    48
        0x01006de4:    43f00000    ...C    DCD    1139802112
        0x01006de8:    3fe00000    ...?    DCD    1071644672
    $t
    i._printf_core
    _printf_core
        0x01006dec:    b5ff        ..      PUSH     {r0-r7,lr}
        0x01006dee:    b097        ..      SUB      sp,sp,#0x5c
        0x01006df0:    4606        .F      MOV      r6,r0
        0x01006df2:    2500        .%      MOVS     r5,#0
        0x01006df4:    e218        ..      B        0x1007228 ; _printf_core + 1084
        0x01006df6:    2825        %(      CMP      r0,#0x25
        0x01006df8:    d177        w.      BNE      0x1006eea ; _printf_core + 254
        0x01006dfa:    2400        .$      MOVS     r4,#0
        0x01006dfc:    4627        'F      MOV      r7,r4
        0x01006dfe:    49fd        .I      LDR      r1,[pc,#1012] ; [0x10071f4] = 0x12809
        0x01006e00:    9404        ..      STR      r4,[sp,#0x10]
        0x01006e02:    e000        ..      B        0x1006e06 ; _printf_core + 26
        0x01006e04:    4304        .C      ORRS     r4,r4,r0
        0x01006e06:    1c76        v.      ADDS     r6,r6,#1
        0x01006e08:    7832        2x      LDRB     r2,[r6,#0]
        0x01006e0a:    2001        .       MOVS     r0,#1
        0x01006e0c:    3a20         :      SUBS     r2,r2,#0x20
        0x01006e0e:    4090        .@      LSLS     r0,r0,r2
        0x01006e10:    4208        .B      TST      r0,r1
        0x01006e12:    d1f7        ..      BNE      0x1006e04 ; _printf_core + 24
        0x01006e14:    7830        0x      LDRB     r0,[r6,#0]
        0x01006e16:    282a        *(      CMP      r0,#0x2a
        0x01006e18:    d00e        ..      BEQ      0x1006e38 ; _printf_core + 76
        0x01006e1a:    2202        ."      MOVS     r2,#2
        0x01006e1c:    7830        0x      LDRB     r0,[r6,#0]
        0x01006e1e:    4601        .F      MOV      r1,r0
        0x01006e20:    3930        09      SUBS     r1,r1,#0x30
        0x01006e22:    2909        .)      CMP      r1,#9
        0x01006e24:    d816        ..      BHI      0x1006e54 ; _printf_core + 104
        0x01006e26:    9904        ..      LDR      r1,[sp,#0x10]
        0x01006e28:    230a        .#      MOVS     r3,#0xa
        0x01006e2a:    4359        YC      MULS     r1,r3,r1
        0x01006e2c:    3930        09      SUBS     r1,r1,#0x30
        0x01006e2e:    1840        @.      ADDS     r0,r0,r1
        0x01006e30:    4314        .C      ORRS     r4,r4,r2
        0x01006e32:    1c76        v.      ADDS     r6,r6,#1
        0x01006e34:    9004        ..      STR      r0,[sp,#0x10]
        0x01006e36:    e7f1        ..      B        0x1006e1c ; _printf_core + 48
        0x01006e38:    9818        ..      LDR      r0,[sp,#0x60]
        0x01006e3a:    c802        ..      LDM      r0!,{r1}
        0x01006e3c:    9104        ..      STR      r1,[sp,#0x10]
        0x01006e3e:    9018        ..      STR      r0,[sp,#0x60]
        0x01006e40:    2900        .)      CMP      r1,#0
        0x01006e42:    da04        ..      BGE      0x1006e4e ; _printf_core + 98
        0x01006e44:    2001        .       MOVS     r0,#1
        0x01006e46:    0340        @.      LSLS     r0,r0,#13
        0x01006e48:    4304        .C      ORRS     r4,r4,r0
        0x01006e4a:    4248        HB      RSBS     r0,r1,#0
        0x01006e4c:    9004        ..      STR      r0,[sp,#0x10]
        0x01006e4e:    2002        .       MOVS     r0,#2
        0x01006e50:    4304        .C      ORRS     r4,r4,r0
        0x01006e52:    1c76        v.      ADDS     r6,r6,#1
        0x01006e54:    7830        0x      LDRB     r0,[r6,#0]
        0x01006e56:    282e        .(      CMP      r0,#0x2e
        0x01006e58:    d114        ..      BNE      0x1006e84 ; _printf_core + 152
        0x01006e5a:    2004        .       MOVS     r0,#4
        0x01006e5c:    4304        .C      ORRS     r4,r4,r0
        0x01006e5e:    7870        px      LDRB     r0,[r6,#1]
        0x01006e60:    1c76        v.      ADDS     r6,r6,#1
        0x01006e62:    282a        *(      CMP      r0,#0x2a
        0x01006e64:    d109        ..      BNE      0x1006e7a ; _printf_core + 142
        0x01006e66:    9818        ..      LDR      r0,[sp,#0x60]
        0x01006e68:    1c76        v.      ADDS     r6,r6,#1
        0x01006e6a:    c880        ..      LDM      r0!,{r7}
        0x01006e6c:    9018        ..      STR      r0,[sp,#0x60]
        0x01006e6e:    e009        ..      B        0x1006e84 ; _printf_core + 152
        0x01006e70:    210a        .!      MOVS     r1,#0xa
        0x01006e72:    434f        OC      MULS     r7,r1,r7
        0x01006e74:    3f30        0?      SUBS     r7,r7,#0x30
        0x01006e76:    19c7        ..      ADDS     r7,r0,r7
        0x01006e78:    1c76        v.      ADDS     r6,r6,#1
        0x01006e7a:    7830        0x      LDRB     r0,[r6,#0]
        0x01006e7c:    4601        .F      MOV      r1,r0
        0x01006e7e:    3930        09      SUBS     r1,r1,#0x30
        0x01006e80:    2909        .)      CMP      r1,#9
        0x01006e82:    d9f5        ..      BLS      0x1006e70 ; _printf_core + 132
        0x01006e84:    7830        0x      LDRB     r0,[r6,#0]
        0x01006e86:    286c        l(      CMP      r0,#0x6c
        0x01006e88:    d010        ..      BEQ      0x1006eac ; _printf_core + 192
        0x01006e8a:    dc06        ..      BGT      0x1006e9a ; _printf_core + 174
        0x01006e8c:    284c        L(      CMP      r0,#0x4c
        0x01006e8e:    d01a        ..      BEQ      0x1006ec6 ; _printf_core + 218
        0x01006e90:    2868        h(      CMP      r0,#0x68
        0x01006e92:    d00e        ..      BEQ      0x1006eb2 ; _printf_core + 198
        0x01006e94:    286a        j(      CMP      r0,#0x6a
        0x01006e96:    d117        ..      BNE      0x1006ec8 ; _printf_core + 220
        0x01006e98:    e004        ..      B        0x1006ea4 ; _printf_core + 184
        0x01006e9a:    2874        t(      CMP      r0,#0x74
        0x01006e9c:    d013        ..      BEQ      0x1006ec6 ; _printf_core + 218
        0x01006e9e:    287a        z(      CMP      r0,#0x7a
        0x01006ea0:    d112        ..      BNE      0x1006ec8 ; _printf_core + 220
        0x01006ea2:    e010        ..      B        0x1006ec6 ; _printf_core + 218
        0x01006ea4:    2001        .       MOVS     r0,#1
        0x01006ea6:    0540        @.      LSLS     r0,r0,#21
        0x01006ea8:    4304        .C      ORRS     r4,r4,r0
        0x01006eaa:    e00c        ..      B        0x1006ec6 ; _printf_core + 218
        0x01006eac:    2101        .!      MOVS     r1,#1
        0x01006eae:    0509        ..      LSLS     r1,r1,#20
        0x01006eb0:    e001        ..      B        0x1006eb6 ; _printf_core + 202
        0x01006eb2:    2103        .!      MOVS     r1,#3
        0x01006eb4:    0509        ..      LSLS     r1,r1,#20
        0x01006eb6:    430c        .C      ORRS     r4,r4,r1
        0x01006eb8:    7871        qx      LDRB     r1,[r6,#1]
        0x01006eba:    4281        .B      CMP      r1,r0
        0x01006ebc:    d103        ..      BNE      0x1006ec6 ; _printf_core + 218
        0x01006ebe:    2001        .       MOVS     r0,#1
        0x01006ec0:    0500        ..      LSLS     r0,r0,#20
        0x01006ec2:    1824        $.      ADDS     r4,r4,r0
        0x01006ec4:    1c76        v.      ADDS     r6,r6,#1
        0x01006ec6:    1c76        v.      ADDS     r6,r6,#1
        0x01006ec8:    7830        0x      LDRB     r0,[r6,#0]
        0x01006eca:    9011        ..      STR      r0,[sp,#0x44]
        0x01006ecc:    2866        f(      CMP      r0,#0x66
        0x01006ece:    d00b        ..      BEQ      0x1006ee8 ; _printf_core + 252
        0x01006ed0:    dc13        ..      BGT      0x1006efa ; _printf_core + 270
        0x01006ed2:    2858        X(      CMP      r0,#0x58
        0x01006ed4:    d07d        }.      BEQ      0x1006fd2 ; _printf_core + 486
        0x01006ed6:    dc09        ..      BGT      0x1006eec ; _printf_core + 256
        0x01006ed8:    2800        .(      CMP      r0,#0
        0x01006eda:    d07b        {.      BEQ      0x1006fd4 ; _printf_core + 488
        0x01006edc:    2845        E(      CMP      r0,#0x45
        0x01006ede:    d0f6        ..      BEQ      0x1006ece ; _printf_core + 226
        0x01006ee0:    2846        F(      CMP      r0,#0x46
        0x01006ee2:    d0f4        ..      BEQ      0x1006ece ; _printf_core + 226
        0x01006ee4:    2847        G(      CMP      r0,#0x47
        0x01006ee6:    d11a        ..      BNE      0x1006f1e ; _printf_core + 306
        0x01006ee8:    e1a5        ..      B        0x1007236 ; _printf_core + 1098
        0x01006eea:    e018        ..      B        0x1006f1e ; _printf_core + 306
        0x01006eec:    2863        c(      CMP      r0,#0x63
        0x01006eee:    d035        5.      BEQ      0x1006f5c ; _printf_core + 368
        0x01006ef0:    2864        d(      CMP      r0,#0x64
        0x01006ef2:    d070        p.      BEQ      0x1006fd6 ; _printf_core + 490
        0x01006ef4:    2865        e(      CMP      r0,#0x65
        0x01006ef6:    d112        ..      BNE      0x1006f1e ; _printf_core + 306
        0x01006ef8:    e19d        ..      B        0x1007236 ; _printf_core + 1098
        0x01006efa:    2870        p(      CMP      r0,#0x70
        0x01006efc:    d06c        l.      BEQ      0x1006fd8 ; _printf_core + 492
        0x01006efe:    dc08        ..      BGT      0x1006f12 ; _printf_core + 294
        0x01006f00:    2867        g(      CMP      r0,#0x67
        0x01006f02:    d0f1        ..      BEQ      0x1006ee8 ; _printf_core + 252
        0x01006f04:    2869        i(      CMP      r0,#0x69
        0x01006f06:    d07b        {.      BEQ      0x1007000 ; _printf_core + 532
        0x01006f08:    286e        n(      CMP      r0,#0x6e
        0x01006f0a:    d00d        ..      BEQ      0x1006f28 ; _printf_core + 316
        0x01006f0c:    286f        o(      CMP      r0,#0x6f
        0x01006f0e:    d106        ..      BNE      0x1006f1e ; _printf_core + 306
        0x01006f10:    e0ba        ..      B        0x1007088 ; _printf_core + 668
        0x01006f12:    2873        s(      CMP      r0,#0x73
        0x01006f14:    d02e        ..      BEQ      0x1006f74 ; _printf_core + 392
        0x01006f16:    2875        u(      CMP      r0,#0x75
        0x01006f18:    d071        q.      BEQ      0x1006ffe ; _printf_core + 530
        0x01006f1a:    2878        x(      CMP      r0,#0x78
        0x01006f1c:    d059        Y.      BEQ      0x1006fd2 ; _printf_core + 486
        0x01006f1e:    9a1a        ..      LDR      r2,[sp,#0x68]
        0x01006f20:    9919        ..      LDR      r1,[sp,#0x64]
        0x01006f22:    4790        .G      BLX      r2
        0x01006f24:    1c6d        m.      ADDS     r5,r5,#1
        0x01006f26:    e17e        ~.      B        0x1007226 ; _printf_core + 1082
        0x01006f28:    0260        `.      LSLS     r0,r4,#9
        0x01006f2a:    0f40        @.      LSRS     r0,r0,#29
        0x01006f2c:    2802        .(      CMP      r0,#2
        0x01006f2e:    d009        ..      BEQ      0x1006f44 ; _printf_core + 344
        0x01006f30:    2803        .(      CMP      r0,#3
        0x01006f32:    d00d        ..      BEQ      0x1006f50 ; _printf_core + 356
        0x01006f34:    2804        .(      CMP      r0,#4
        0x01006f36:    9818        ..      LDR      r0,[sp,#0x60]
        0x01006f38:    6801        .h      LDR      r1,[r0,#0]
        0x01006f3a:    d00d        ..      BEQ      0x1006f58 ; _printf_core + 364
        0x01006f3c:    600d        .`      STR      r5,[r1,#0]
        0x01006f3e:    1d00        ..      ADDS     r0,r0,#4
        0x01006f40:    9018        ..      STR      r0,[sp,#0x60]
        0x01006f42:    e170        p.      B        0x1007226 ; _printf_core + 1082
        0x01006f44:    9818        ..      LDR      r0,[sp,#0x60]
        0x01006f46:    17ea        ..      ASRS     r2,r5,#31
        0x01006f48:    6801        .h      LDR      r1,[r0,#0]
        0x01006f4a:    600d        .`      STR      r5,[r1,#0]
        0x01006f4c:    604a        J`      STR      r2,[r1,#4]
        0x01006f4e:    e7f6        ..      B        0x1006f3e ; _printf_core + 338
        0x01006f50:    9818        ..      LDR      r0,[sp,#0x60]
        0x01006f52:    6801        .h      LDR      r1,[r0,#0]
        0x01006f54:    800d        ..      STRH     r5,[r1,#0]
        0x01006f56:    e7f2        ..      B        0x1006f3e ; _printf_core + 338
        0x01006f58:    700d        .p      STRB     r5,[r1,#0]
        0x01006f5a:    e7f0        ..      B        0x1006f3e ; _printf_core + 338
        0x01006f5c:    9818        ..      LDR      r0,[sp,#0x60]
        0x01006f5e:    466a        jF      MOV      r2,sp
        0x01006f60:    7801        .x      LDRB     r1,[r0,#0]
        0x01006f62:    7211        .r      STRB     r1,[r2,#8]
        0x01006f64:    1d00        ..      ADDS     r0,r0,#4
        0x01006f66:    9018        ..      STR      r0,[sp,#0x60]
        0x01006f68:    2000        .       MOVS     r0,#0
        0x01006f6a:    7250        Pr      STRB     r0,[r2,#9]
        0x01006f6c:    a802        ..      ADD      r0,sp,#8
        0x01006f6e:    9000        ..      STR      r0,[sp,#0]
        0x01006f70:    2001        .       MOVS     r0,#1
        0x01006f72:    e005        ..      B        0x1006f80 ; _printf_core + 404
        0x01006f74:    9818        ..      LDR      r0,[sp,#0x60]
        0x01006f76:    c802        ..      LDM      r0!,{r1}
        0x01006f78:    9018        ..      STR      r0,[sp,#0x60]
        0x01006f7a:    2000        .       MOVS     r0,#0
        0x01006f7c:    9100        ..      STR      r1,[sp,#0]
        0x01006f7e:    43c0        .C      MVNS     r0,r0
        0x01006f80:    0761        a.      LSLS     r1,r4,#29
        0x01006f82:    d50d        ..      BPL      0x1006fa0 ; _printf_core + 436
        0x01006f84:    2100        .!      MOVS     r1,#0
        0x01006f86:    e001        ..      B        0x1006f8c ; _printf_core + 416
        0x01006f88:    9901        ..      LDR      r1,[sp,#4]
        0x01006f8a:    1c49        I.      ADDS     r1,r1,#1
        0x01006f8c:    9101        ..      STR      r1,[sp,#4]
        0x01006f8e:    42b9        .B      CMP      r1,r7
        0x01006f90:    da12        ..      BGE      0x1006fb8 ; _printf_core + 460
        0x01006f92:    4281        .B      CMP      r1,r0
        0x01006f94:    dbf8        ..      BLT      0x1006f88 ; _printf_core + 412
        0x01006f96:    9a00        ..      LDR      r2,[sp,#0]
        0x01006f98:    5c51        Q\      LDRB     r1,[r2,r1]
        0x01006f9a:    2900        .)      CMP      r1,#0
        0x01006f9c:    d1f4        ..      BNE      0x1006f88 ; _printf_core + 412
        0x01006f9e:    e00b        ..      B        0x1006fb8 ; _printf_core + 460
        0x01006fa0:    2100        .!      MOVS     r1,#0
        0x01006fa2:    e001        ..      B        0x1006fa8 ; _printf_core + 444
        0x01006fa4:    9901        ..      LDR      r1,[sp,#4]
        0x01006fa6:    1c49        I.      ADDS     r1,r1,#1
        0x01006fa8:    9101        ..      STR      r1,[sp,#4]
        0x01006faa:    4281        .B      CMP      r1,r0
        0x01006fac:    dbfa        ..      BLT      0x1006fa4 ; _printf_core + 440
        0x01006fae:    9a01        ..      LDR      r2,[sp,#4]
        0x01006fb0:    9900        ..      LDR      r1,[sp,#0]
        0x01006fb2:    5c89        .\      LDRB     r1,[r1,r2]
        0x01006fb4:    2900        .)      CMP      r1,#0
        0x01006fb6:    d1f5        ..      BNE      0x1006fa4 ; _printf_core + 440
        0x01006fb8:    9901        ..      LDR      r1,[sp,#4]
        0x01006fba:    9804        ..      LDR      r0,[sp,#0x10]
        0x01006fbc:    9b1a        ..      LDR      r3,[sp,#0x68]
        0x01006fbe:    1a47        G.      SUBS     r7,r0,r1
        0x01006fc0:    4621        !F      MOV      r1,r4
        0x01006fc2:    4638        8F      MOV      r0,r7
        0x01006fc4:    9a19        ..      LDR      r2,[sp,#0x64]
        0x01006fc6:    f000fa97    ....    BL       _printf_pre_padding ; 0x10074f8
        0x01006fca:    9901        ..      LDR      r1,[sp,#4]
        0x01006fcc:    1940        @.      ADDS     r0,r0,r5
        0x01006fce:    1845        E.      ADDS     r5,r0,r1
        0x01006fd0:    e00b        ..      B        0x1006fea ; _printf_core + 510
        0x01006fd2:    e04f        O.      B        0x1007074 ; _printf_core + 648
        0x01006fd4:    e12c        ,.      B        0x1007230 ; _printf_core + 1092
        0x01006fd6:    e013        ..      B        0x1007000 ; _printf_core + 532
        0x01006fd8:    e04e        N.      B        0x1007078 ; _printf_core + 652
        0x01006fda:    9800        ..      LDR      r0,[sp,#0]
        0x01006fdc:    9900        ..      LDR      r1,[sp,#0]
        0x01006fde:    7800        .x      LDRB     r0,[r0,#0]
        0x01006fe0:    1c49        I.      ADDS     r1,r1,#1
        0x01006fe2:    9100        ..      STR      r1,[sp,#0]
        0x01006fe4:    9a1a        ..      LDR      r2,[sp,#0x68]
        0x01006fe6:    9919        ..      LDR      r1,[sp,#0x64]
        0x01006fe8:    4790        .G      BLX      r2
        0x01006fea:    9801        ..      LDR      r0,[sp,#4]
        0x01006fec:    1e40        @.      SUBS     r0,r0,#1
        0x01006fee:    9001        ..      STR      r0,[sp,#4]
        0x01006ff0:    1c40        @.      ADDS     r0,r0,#1
        0x01006ff2:    d1f2        ..      BNE      0x1006fda ; _printf_core + 494
        0x01006ff4:    4621        !F      MOV      r1,r4
        0x01006ff6:    4638        8F      MOV      r0,r7
        0x01006ff8:    9b1a        ..      LDR      r3,[sp,#0x68]
        0x01006ffa:    9a19        ..      LDR      r2,[sp,#0x64]
        0x01006ffc:    e110        ..      B        0x1007220 ; _printf_core + 1076
        0x01006ffe:    e037        7.      B        0x1007070 ; _printf_core + 644
        0x01007000:    200a        .       MOVS     r0,#0xa
        0x01007002:    2100        .!      MOVS     r1,#0
        0x01007004:    9000        ..      STR      r0,[sp,#0]
        0x01007006:    9101        ..      STR      r1,[sp,#4]
        0x01007008:    0260        `.      LSLS     r0,r4,#9
        0x0100700a:    0f41        A.      LSRS     r1,r0,#29
        0x0100700c:    2902        .)      CMP      r1,#2
        0x0100700e:    d007        ..      BEQ      0x1007020 ; _printf_core + 564
        0x01007010:    9a18        ..      LDR      r2,[sp,#0x60]
        0x01007012:    ca01        ..      LDM      r2!,{r0}
        0x01007014:    9218        ..      STR      r2,[sp,#0x60]
        0x01007016:    17c2        ..      ASRS     r2,r0,#31
        0x01007018:    4694        .F      MOV      r12,r2
        0x0100701a:    2903        .)      CMP      r1,#3
        0x0100701c:    d008        ..      BEQ      0x1007030 ; _printf_core + 580
        0x0100701e:    e00a        ..      B        0x1007036 ; _printf_core + 586
        0x01007020:    9818        ..      LDR      r0,[sp,#0x60]
        0x01007022:    1dc0        ..      ADDS     r0,r0,#7
        0x01007024:    08c1        ..      LSRS     r1,r0,#3
        0x01007026:    00c9        ..      LSLS     r1,r1,#3
        0x01007028:    c905        ..      LDM      r1!,{r0,r2}
        0x0100702a:    9118        ..      STR      r1,[sp,#0x60]
        0x0100702c:    4694        .F      MOV      r12,r2
        0x0100702e:    e007        ..      B        0x1007040 ; _printf_core + 596
        0x01007030:    b200        ..      SXTH     r0,r0
        0x01007032:    17c2        ..      ASRS     r2,r0,#31
        0x01007034:    4694        .F      MOV      r12,r2
        0x01007036:    2904        .)      CMP      r1,#4
        0x01007038:    d102        ..      BNE      0x1007040 ; _printf_core + 596
        0x0100703a:    b240        @.      SXTB     r0,r0
        0x0100703c:    17c1        ..      ASRS     r1,r0,#31
        0x0100703e:    468c        .F      MOV      r12,r1
        0x01007040:    2200        ."      MOVS     r2,#0
        0x01007042:    4661        aF      MOV      r1,r12
        0x01007044:    4594        .E      CMP      r12,r2
        0x01007046:    da06        ..      BGE      0x1007056 ; _printf_core + 618
        0x01007048:    460a        .F      MOV      r2,r1
        0x0100704a:    2100        .!      MOVS     r1,#0
        0x0100704c:    4240        @B      RSBS     r0,r0,#0
        0x0100704e:    4191        .A      SBCS     r1,r1,r2
        0x01007050:    468c        .F      MOV      r12,r1
        0x01007052:    212d        -!      MOVS     r1,#0x2d
        0x01007054:    e002        ..      B        0x100705c ; _printf_core + 624
        0x01007056:    0521        !.      LSLS     r1,r4,#20
        0x01007058:    d504        ..      BPL      0x1007064 ; _printf_core + 632
        0x0100705a:    212b        +!      MOVS     r1,#0x2b
        0x0100705c:    466a        jF      MOV      r2,sp
        0x0100705e:    7311        .s      STRB     r1,[r2,#0xc]
        0x01007060:    2101        .!      MOVS     r1,#1
        0x01007062:    e003        ..      B        0x100706c ; _printf_core + 640
        0x01007064:    07e1        ..      LSLS     r1,r4,#31
        0x01007066:    d001        ..      BEQ      0x100706c ; _printf_core + 640
        0x01007068:    2120         !      MOVS     r1,#0x20
        0x0100706a:    e7f7        ..      B        0x100705c ; _printf_core + 624
        0x0100706c:    9102        ..      STR      r1,[sp,#8]
        0x0100706e:    e055        U.      B        0x100711c ; _printf_core + 816
        0x01007070:    200a        .       MOVS     r0,#0xa
        0x01007072:    e00a        ..      B        0x100708a ; _printf_core + 670
        0x01007074:    2010        .       MOVS     r0,#0x10
        0x01007076:    e008        ..      B        0x100708a ; _printf_core + 670
        0x01007078:    2010        .       MOVS     r0,#0x10
        0x0100707a:    9000        ..      STR      r0,[sp,#0]
        0x0100707c:    2100        .!      MOVS     r1,#0
        0x0100707e:    2004        .       MOVS     r0,#4
        0x01007080:    4304        .C      ORRS     r4,r4,r0
        0x01007082:    9101        ..      STR      r1,[sp,#4]
        0x01007084:    2708        .'      MOVS     r7,#8
        0x01007086:    e003        ..      B        0x1007090 ; _printf_core + 676
        0x01007088:    2008        .       MOVS     r0,#8
        0x0100708a:    2100        .!      MOVS     r1,#0
        0x0100708c:    9101        ..      STR      r1,[sp,#4]
        0x0100708e:    9000        ..      STR      r0,[sp,#0]
        0x01007090:    0260        `.      LSLS     r0,r4,#9
        0x01007092:    0f41        A.      LSRS     r1,r0,#29
        0x01007094:    2902        .)      CMP      r1,#2
        0x01007096:    d007        ..      BEQ      0x10070a8 ; _printf_core + 700
        0x01007098:    9a18        ..      LDR      r2,[sp,#0x60]
        0x0100709a:    ca01        ..      LDM      r2!,{r0}
        0x0100709c:    9218        ..      STR      r2,[sp,#0x60]
        0x0100709e:    2200        ."      MOVS     r2,#0
        0x010070a0:    4694        .F      MOV      r12,r2
        0x010070a2:    2903        .)      CMP      r1,#3
        0x010070a4:    d008        ..      BEQ      0x10070b8 ; _printf_core + 716
        0x010070a6:    e008        ..      B        0x10070ba ; _printf_core + 718
        0x010070a8:    9818        ..      LDR      r0,[sp,#0x60]
        0x010070aa:    1dc0        ..      ADDS     r0,r0,#7
        0x010070ac:    08c1        ..      LSRS     r1,r0,#3
        0x010070ae:    00c9        ..      LSLS     r1,r1,#3
        0x010070b0:    c905        ..      LDM      r1!,{r0,r2}
        0x010070b2:    9118        ..      STR      r1,[sp,#0x60]
        0x010070b4:    4694        .F      MOV      r12,r2
        0x010070b6:    e003        ..      B        0x10070c0 ; _printf_core + 724
        0x010070b8:    b280        ..      UXTH     r0,r0
        0x010070ba:    2904        .)      CMP      r1,#4
        0x010070bc:    d100        ..      BNE      0x10070c0 ; _printf_core + 724
        0x010070be:    b2c0        ..      UXTB     r0,r0
        0x010070c0:    2100        .!      MOVS     r1,#0
        0x010070c2:    9102        ..      STR      r1,[sp,#8]
        0x010070c4:    0721        !.      LSLS     r1,r4,#28
        0x010070c6:    d529        ).      BPL      0x100711c ; _printf_core + 816
        0x010070c8:    9911        ..      LDR      r1,[sp,#0x44]
        0x010070ca:    2970        p)      CMP      r1,#0x70
        0x010070cc:    d006        ..      BEQ      0x10070dc ; _printf_core + 752
        0x010070ce:    9a00        ..      LDR      r2,[sp,#0]
        0x010070d0:    2110        .!      MOVS     r1,#0x10
        0x010070d2:    9b01        ..      LDR      r3,[sp,#4]
        0x010070d4:    404a        J@      EORS     r2,r2,r1
        0x010070d6:    431a        .C      ORRS     r2,r2,r3
        0x010070d8:    d005        ..      BEQ      0x10070e6 ; _printf_core + 762
        0x010070da:    e00e        ..      B        0x10070fa ; _printf_core + 782
        0x010070dc:    2140        @!      MOVS     r1,#0x40
        0x010070de:    466a        jF      MOV      r2,sp
        0x010070e0:    7311        .s      STRB     r1,[r2,#0xc]
        0x010070e2:    2101        .!      MOVS     r1,#1
        0x010070e4:    e008        ..      B        0x10070f8 ; _printf_core + 780
        0x010070e6:    4661        aF      MOV      r1,r12
        0x010070e8:    4301        .C      ORRS     r1,r1,r0
        0x010070ea:    d006        ..      BEQ      0x10070fa ; _printf_core + 782
        0x010070ec:    2130        0!      MOVS     r1,#0x30
        0x010070ee:    466a        jF      MOV      r2,sp
        0x010070f0:    7311        .s      STRB     r1,[r2,#0xc]
        0x010070f2:    9911        ..      LDR      r1,[sp,#0x44]
        0x010070f4:    7351        Qs      STRB     r1,[r2,#0xd]
        0x010070f6:    2102        .!      MOVS     r1,#2
        0x010070f8:    9102        ..      STR      r1,[sp,#8]
        0x010070fa:    9a00        ..      LDR      r2,[sp,#0]
        0x010070fc:    2108        .!      MOVS     r1,#8
        0x010070fe:    9b01        ..      LDR      r3,[sp,#4]
        0x01007100:    404a        J@      EORS     r2,r2,r1
        0x01007102:    431a        .C      ORRS     r2,r2,r3
        0x01007104:    d10a        ..      BNE      0x100711c ; _printf_core + 816
        0x01007106:    4661        aF      MOV      r1,r12
        0x01007108:    4301        .C      ORRS     r1,r1,r0
        0x0100710a:    d101        ..      BNE      0x1007110 ; _printf_core + 804
        0x0100710c:    0761        a.      LSLS     r1,r4,#29
        0x0100710e:    d505        ..      BPL      0x100711c ; _printf_core + 816
        0x01007110:    2130        0!      MOVS     r1,#0x30
        0x01007112:    466a        jF      MOV      r2,sp
        0x01007114:    7311        .s      STRB     r1,[r2,#0xc]
        0x01007116:    2101        .!      MOVS     r1,#1
        0x01007118:    1e7f        ..      SUBS     r7,r7,#1
        0x0100711a:    9102        ..      STR      r1,[sp,#8]
        0x0100711c:    9911        ..      LDR      r1,[sp,#0x44]
        0x0100711e:    2958        X)      CMP      r1,#0x58
        0x01007120:    d004        ..      BEQ      0x100712c ; _printf_core + 832
        0x01007122:    a135        5.      ADR      r1,{pc}+0xd6 ; 0x10071f8
        0x01007124:    910e        ..      STR      r1,[sp,#0x38]
        0x01007126:    a90d        ..      ADD      r1,sp,#0x34
        0x01007128:    910d        ..      STR      r1,[sp,#0x34]
        0x0100712a:    e00d        ..      B        0x1007148 ; _printf_core + 860
        0x0100712c:    a137        7.      ADR      r1,{pc}+0xe0 ; 0x100720c
        0x0100712e:    e7f9        ..      B        0x1007124 ; _printf_core + 824
        0x01007130:    4661        aF      MOV      r1,r12
        0x01007132:    9b01        ..      LDR      r3,[sp,#4]
        0x01007134:    9a00        ..      LDR      r2,[sp,#0]
        0x01007136:    f7fffaa2    ....    BL       __aeabi_uldivmod ; 0x100667e
        0x0100713a:    9b0e        ..      LDR      r3,[sp,#0x38]
        0x0100713c:    468c        .F      MOV      r12,r1
        0x0100713e:    5c9b        .\      LDRB     r3,[r3,r2]
        0x01007140:    9a0d        ..      LDR      r2,[sp,#0x34]
        0x01007142:    1e52        R.      SUBS     r2,r2,#1
        0x01007144:    920d        ..      STR      r2,[sp,#0x34]
        0x01007146:    7013        .p      STRB     r3,[r2,#0]
        0x01007148:    4661        aF      MOV      r1,r12
        0x0100714a:    4301        .C      ORRS     r1,r1,r0
        0x0100714c:    d1f0        ..      BNE      0x1007130 ; _printf_core + 836
        0x0100714e:    980d        ..      LDR      r0,[sp,#0x34]
        0x01007150:    a905        ..      ADD      r1,sp,#0x14
        0x01007152:    1a08        ..      SUBS     r0,r1,r0
        0x01007154:    3020         0      ADDS     r0,r0,#0x20
        0x01007156:    9001        ..      STR      r0,[sp,#4]
        0x01007158:    0760        `.      LSLS     r0,r4,#29
        0x0100715a:    d503        ..      BPL      0x1007164 ; _printf_core + 888
        0x0100715c:    2001        .       MOVS     r0,#1
        0x0100715e:    0400        ..      LSLS     r0,r0,#16
        0x01007160:    4384        .C      BICS     r4,r4,r0
        0x01007162:    e000        ..      B        0x1007166 ; _printf_core + 890
        0x01007164:    2701        .'      MOVS     r7,#1
        0x01007166:    9801        ..      LDR      r0,[sp,#4]
        0x01007168:    4287        .B      CMP      r7,r0
        0x0100716a:    dd01        ..      BLE      0x1007170 ; _printf_core + 900
        0x0100716c:    1a38        8.      SUBS     r0,r7,r0
        0x0100716e:    e000        ..      B        0x1007172 ; _printf_core + 902
        0x01007170:    2000        .       MOVS     r0,#0
        0x01007172:    9901        ..      LDR      r1,[sp,#4]
        0x01007174:    9000        ..      STR      r0,[sp,#0]
        0x01007176:    1841        A.      ADDS     r1,r0,r1
        0x01007178:    9802        ..      LDR      r0,[sp,#8]
        0x0100717a:    1809        ..      ADDS     r1,r1,r0
        0x0100717c:    9804        ..      LDR      r0,[sp,#0x10]
        0x0100717e:    1a40        @.      SUBS     r0,r0,r1
        0x01007180:    9004        ..      STR      r0,[sp,#0x10]
        0x01007182:    03e0        ..      LSLS     r0,r4,#15
        0x01007184:    d406        ..      BMI      0x1007194 ; _printf_core + 936
        0x01007186:    4621        !F      MOV      r1,r4
        0x01007188:    9b1a        ..      LDR      r3,[sp,#0x68]
        0x0100718a:    9a19        ..      LDR      r2,[sp,#0x64]
        0x0100718c:    9804        ..      LDR      r0,[sp,#0x10]
        0x0100718e:    f000f9b3    ....    BL       _printf_pre_padding ; 0x10074f8
        0x01007192:    1945        E.      ADDS     r5,r0,r5
        0x01007194:    2700        .'      MOVS     r7,#0
        0x01007196:    e006        ..      B        0x10071a6 ; _printf_core + 954
        0x01007198:    a803        ..      ADD      r0,sp,#0xc
        0x0100719a:    9a1a        ..      LDR      r2,[sp,#0x68]
        0x0100719c:    5dc0        .]      LDRB     r0,[r0,r7]
        0x0100719e:    9919        ..      LDR      r1,[sp,#0x64]
        0x010071a0:    4790        .G      BLX      r2
        0x010071a2:    1c6d        m.      ADDS     r5,r5,#1
        0x010071a4:    1c7f        ..      ADDS     r7,r7,#1
        0x010071a6:    9802        ..      LDR      r0,[sp,#8]
        0x010071a8:    4287        .B      CMP      r7,r0
        0x010071aa:    dbf5        ..      BLT      0x1007198 ; _printf_core + 940
        0x010071ac:    03e0        ..      LSLS     r0,r4,#15
        0x010071ae:    d50c        ..      BPL      0x10071ca ; _printf_core + 990
        0x010071b0:    4621        !F      MOV      r1,r4
        0x010071b2:    9b1a        ..      LDR      r3,[sp,#0x68]
        0x010071b4:    9a19        ..      LDR      r2,[sp,#0x64]
        0x010071b6:    9804        ..      LDR      r0,[sp,#0x10]
        0x010071b8:    f000f99e    ....    BL       _printf_pre_padding ; 0x10074f8
        0x010071bc:    1945        E.      ADDS     r5,r0,r5
        0x010071be:    e004        ..      B        0x10071ca ; _printf_core + 990
        0x010071c0:    9a1a        ..      LDR      r2,[sp,#0x68]
        0x010071c2:    2030        0       MOVS     r0,#0x30
        0x010071c4:    9919        ..      LDR      r1,[sp,#0x64]
        0x010071c6:    4790        .G      BLX      r2
        0x010071c8:    1c6d        m.      ADDS     r5,r5,#1
        0x010071ca:    9900        ..      LDR      r1,[sp,#0]
        0x010071cc:    1e48        H.      SUBS     r0,r1,#1
        0x010071ce:    9000        ..      STR      r0,[sp,#0]
        0x010071d0:    2900        .)      CMP      r1,#0
        0x010071d2:    dcf5        ..      BGT      0x10071c0 ; _printf_core + 980
        0x010071d4:    e008        ..      B        0x10071e8 ; _printf_core + 1020
        0x010071d6:    980d        ..      LDR      r0,[sp,#0x34]
        0x010071d8:    990d        ..      LDR      r1,[sp,#0x34]
        0x010071da:    7800        .x      LDRB     r0,[r0,#0]
        0x010071dc:    1c49        I.      ADDS     r1,r1,#1
        0x010071de:    910d        ..      STR      r1,[sp,#0x34]
        0x010071e0:    9a1a        ..      LDR      r2,[sp,#0x68]
        0x010071e2:    9919        ..      LDR      r1,[sp,#0x64]
        0x010071e4:    4790        .G      BLX      r2
        0x010071e6:    1c6d        m.      ADDS     r5,r5,#1
        0x010071e8:    9901        ..      LDR      r1,[sp,#4]
        0x010071ea:    1e48        H.      SUBS     r0,r1,#1
        0x010071ec:    9001        ..      STR      r0,[sp,#4]
        0x010071ee:    2900        .)      CMP      r1,#0
        0x010071f0:    dcf1        ..      BGT      0x10071d6 ; _printf_core + 1002
        0x010071f2:    e163        c.      B        0x10074bc ; _printf_core + 1744
    $d
        0x010071f4:    00012809    .(..    DCD    75785
        0x010071f8:    33323130    0123    DCD    858927408
        0x010071fc:    37363534    4567    DCD    926299444
        0x01007200:    62613938    89ab    DCD    1650538808
        0x01007204:    66656463    cdef    DCD    1717920867
        0x01007208:    00000000    ....    DCD    0
        0x0100720c:    33323130    0123    DCD    858927408
        0x01007210:    37363534    4567    DCD    926299444
        0x01007214:    42413938    89AB    DCD    1111570744
        0x01007218:    46454443    CDEF    DCD    1178944579
        0x0100721c:    00000000    ....    DCD    0
    $t
        0x01007220:    f000f95a    ..Z.    BL       _printf_post_padding ; 0x10074d8
        0x01007224:    1945        E.      ADDS     r5,r0,r5
        0x01007226:    1c76        v.      ADDS     r6,r6,#1
        0x01007228:    7830        0x      LDRB     r0,[r6,#0]
        0x0100722a:    2800        .(      CMP      r0,#0
        0x0100722c:    d000        ..      BEQ      0x1007230 ; _printf_core + 1092
        0x0100722e:    e5e2        ..      B        0x1006df6 ; _printf_core + 10
        0x01007230:    4628        (F      MOV      r0,r5
        0x01007232:    b01b        ..      ADD      sp,sp,#0x6c
        0x01007234:    bdf0        ..      POP      {r4-r7,pc}
        0x01007236:    0760        `.      LSLS     r0,r4,#29
        0x01007238:    d400        ..      BMI      0x100723c ; _printf_core + 1104
        0x0100723a:    2706        .'      MOVS     r7,#6
        0x0100723c:    9818        ..      LDR      r0,[sp,#0x60]
        0x0100723e:    1dc0        ..      ADDS     r0,r0,#7
        0x01007240:    08c1        ..      LSRS     r1,r0,#3
        0x01007242:    00c9        ..      LSLS     r1,r1,#3
        0x01007244:    6848        Hh      LDR      r0,[r1,#4]
        0x01007246:    680a        .h      LDR      r2,[r1,#0]
        0x01007248:    3108        .1      ADDS     r1,r1,#8
        0x0100724a:    0fc3        ..      LSRS     r3,r0,#31
        0x0100724c:    07db        ..      LSLS     r3,r3,#31
        0x0100724e:    9118        ..      STR      r1,[sp,#0x60]
        0x01007250:    0019        ..      MOVS     r1,r3
        0x01007252:    d001        ..      BEQ      0x1007258 ; _printf_core + 1132
        0x01007254:    a19c        ..      ADR      r1,{pc}+0x274 ; 0x10074c8
        0x01007256:    e008        ..      B        0x100726a ; _printf_core + 1150
        0x01007258:    0521        !.      LSLS     r1,r4,#20
        0x0100725a:    d501        ..      BPL      0x1007260 ; _printf_core + 1140
        0x0100725c:    a19b        ..      ADR      r1,{pc}+0x270 ; 0x10074cc
        0x0100725e:    e004        ..      B        0x100726a ; _printf_core + 1150
        0x01007260:    07e1        ..      LSLS     r1,r4,#31
        0x01007262:    d001        ..      BEQ      0x1007268 ; _printf_core + 1148
        0x01007264:    a19a        ..      ADR      r1,{pc}+0x26c ; 0x10074d0
        0x01007266:    e000        ..      B        0x100726a ; _printf_core + 1150
        0x01007268:    a19a        ..      ADR      r1,{pc}+0x26c ; 0x10074d4
        0x0100726a:    0043        C.      LSLS     r3,r0,#1
        0x0100726c:    9811        ..      LDR      r0,[sp,#0x44]
        0x0100726e:    085b        [.      LSRS     r3,r3,#1
        0x01007270:    9110        ..      STR      r1,[sp,#0x40]
        0x01007272:    2865        e(      CMP      r0,#0x65
        0x01007274:    d00c        ..      BEQ      0x1007290 ; _printf_core + 1188
        0x01007276:    dc06        ..      BGT      0x1007286 ; _printf_core + 1178
        0x01007278:    2845        E(      CMP      r0,#0x45
        0x0100727a:    d009        ..      BEQ      0x1007290 ; _printf_core + 1188
        0x0100727c:    2846        F(      CMP      r0,#0x46
        0x0100727e:    d01d        ..      BEQ      0x10072bc ; _printf_core + 1232
        0x01007280:    2847        G(      CMP      r0,#0x47
        0x01007282:    d141        A.      BNE      0x1007308 ; _printf_core + 1308
        0x01007284:    e041        A.      B        0x100730a ; _printf_core + 1310
        0x01007286:    2866        f(      CMP      r0,#0x66
        0x01007288:    d018        ..      BEQ      0x10072bc ; _printf_core + 1232
        0x0100728a:    2867        g(      CMP      r0,#0x67
        0x0100728c:    d13c        <.      BNE      0x1007308 ; _printf_core + 1308
        0x0100728e:    e03c        <.      B        0x100730a ; _printf_core + 1310
        0x01007290:    2100        .!      MOVS     r1,#0
        0x01007292:    2f11        ./      CMP      r7,#0x11
        0x01007294:    db01        ..      BLT      0x100729a ; _printf_core + 1198
        0x01007296:    2011        .       MOVS     r0,#0x11
        0x01007298:    e000        ..      B        0x100729c ; _printf_core + 1200
        0x0100729a:    1c78        x.      ADDS     r0,r7,#1
        0x0100729c:    9101        ..      STR      r1,[sp,#4]
        0x0100729e:    9000        ..      STR      r0,[sp,#0]
        0x010072a0:    a908        ..      ADD      r1,sp,#0x20
        0x010072a2:    a811        ..      ADD      r0,sp,#0x44
        0x010072a4:    f7fffce8    ....    BL       _fp_digits ; 0x1006c78
        0x010072a8:    9913        ..      LDR      r1,[sp,#0x4c]
        0x010072aa:    9105        ..      STR      r1,[sp,#0x14]
        0x010072ac:    2100        .!      MOVS     r1,#0
        0x010072ae:    9a11        ..      LDR      r2,[sp,#0x44]
        0x010072b0:    9215        ..      STR      r2,[sp,#0x54]
        0x010072b2:    1c7f        ..      ADDS     r7,r7,#1
        0x010072b4:    9812        ..      LDR      r0,[sp,#0x48]
        0x010072b6:    9701        ..      STR      r7,[sp,#4]
        0x010072b8:    9100        ..      STR      r1,[sp,#0]
        0x010072ba:    e050        P.      B        0x100735e ; _printf_core + 1394
        0x010072bc:    2001        .       MOVS     r0,#1
        0x010072be:    07c0        ..      LSLS     r0,r0,#31
        0x010072c0:    9003        ..      STR      r0,[sp,#0xc]
        0x010072c2:    2001        .       MOVS     r0,#1
        0x010072c4:    9001        ..      STR      r0,[sp,#4]
        0x010072c6:    a908        ..      ADD      r1,sp,#0x20
        0x010072c8:    9700        ..      STR      r7,[sp,#0]
        0x010072ca:    a811        ..      ADD      r0,sp,#0x44
        0x010072cc:    f7fffcd4    ....    BL       _fp_digits ; 0x1006c78
        0x010072d0:    9a13        ..      LDR      r2,[sp,#0x4c]
        0x010072d2:    9914        ..      LDR      r1,[sp,#0x50]
        0x010072d4:    9205        ..      STR      r2,[sp,#0x14]
        0x010072d6:    2200        ."      MOVS     r2,#0
        0x010072d8:    9b11        ..      LDR      r3,[sp,#0x44]
        0x010072da:    9200        ..      STR      r2,[sp,#0]
        0x010072dc:    9812        ..      LDR      r0,[sp,#0x48]
        0x010072de:    9315        ..      STR      r3,[sp,#0x54]
        0x010072e0:    9a05        ..      LDR      r2,[sp,#0x14]
        0x010072e2:    9201        ..      STR      r2,[sp,#4]
        0x010072e4:    2900        .)      CMP      r1,#0
        0x010072e6:    d001        ..      BEQ      0x10072ec ; _printf_core + 1280
        0x010072e8:    4610        .F      MOV      r0,r2
        0x010072ea:    e002        ..      B        0x10072f2 ; _printf_core + 1286
        0x010072ec:    1c79        y.      ADDS     r1,r7,#1
        0x010072ee:    1840        @.      ADDS     r0,r0,r1
        0x010072f0:    9001        ..      STR      r0,[sp,#4]
        0x010072f2:    1a38        8.      SUBS     r0,r7,r0
        0x010072f4:    d501        ..      BPL      0x10072fa ; _printf_core + 1294
        0x010072f6:    9801        ..      LDR      r0,[sp,#4]
        0x010072f8:    e004        ..      B        0x1007304 ; _printf_core + 1304
        0x010072fa:    4240        @B      RSBS     r0,r0,#0
        0x010072fc:    1e40        @.      SUBS     r0,r0,#1
        0x010072fe:    9000        ..      STR      r0,[sp,#0]
        0x01007300:    1c78        x.      ADDS     r0,r7,#1
        0x01007302:    9001        ..      STR      r0,[sp,#4]
        0x01007304:    1bc0        ..      SUBS     r0,r0,r7
        0x01007306:    9002        ..      STR      r0,[sp,#8]
        0x01007308:    e043        C.      B        0x1007392 ; _printf_core + 1446
        0x0100730a:    2f01        ./      CMP      r7,#1
        0x0100730c:    da00        ..      BGE      0x1007310 ; _printf_core + 1316
        0x0100730e:    2701        .'      MOVS     r7,#1
        0x01007310:    2100        .!      MOVS     r1,#0
        0x01007312:    2f11        ./      CMP      r7,#0x11
        0x01007314:    dd01        ..      BLE      0x100731a ; _printf_core + 1326
        0x01007316:    2011        .       MOVS     r0,#0x11
        0x01007318:    e000        ..      B        0x100731c ; _printf_core + 1328
        0x0100731a:    4638        8F      MOV      r0,r7
        0x0100731c:    9101        ..      STR      r1,[sp,#4]
        0x0100731e:    9000        ..      STR      r0,[sp,#0]
        0x01007320:    a908        ..      ADD      r1,sp,#0x20
        0x01007322:    a811        ..      ADD      r0,sp,#0x44
        0x01007324:    f7fffca8    ....    BL       _fp_digits ; 0x1006c78
        0x01007328:    9913        ..      LDR      r1,[sp,#0x4c]
        0x0100732a:    9105        ..      STR      r1,[sp,#0x14]
        0x0100732c:    9a11        ..      LDR      r2,[sp,#0x44]
        0x0100732e:    2100        .!      MOVS     r1,#0
        0x01007330:    9812        ..      LDR      r0,[sp,#0x48]
        0x01007332:    9215        ..      STR      r2,[sp,#0x54]
        0x01007334:    9100        ..      STR      r1,[sp,#0]
        0x01007336:    9701        ..      STR      r7,[sp,#4]
        0x01007338:    0721        !.      LSLS     r1,r4,#28
        0x0100733a:    d40c        ..      BMI      0x1007356 ; _printf_core + 1386
        0x0100733c:    9905        ..      LDR      r1,[sp,#0x14]
        0x0100733e:    42b9        .B      CMP      r1,r7
        0x01007340:    db01        ..      BLT      0x1007346 ; _printf_core + 1370
        0x01007342:    9901        ..      LDR      r1,[sp,#4]
        0x01007344:    e000        ..      B        0x1007348 ; _printf_core + 1372
        0x01007346:    9101        ..      STR      r1,[sp,#4]
        0x01007348:    2901        .)      CMP      r1,#1
        0x0100734a:    dd04        ..      BLE      0x1007356 ; _printf_core + 1386
        0x0100734c:    9a15        ..      LDR      r2,[sp,#0x54]
        0x0100734e:    1e49        I.      SUBS     r1,r1,#1
        0x01007350:    5c51        Q\      LDRB     r1,[r2,r1]
        0x01007352:    2930        0)      CMP      r1,#0x30
        0x01007354:    d006        ..      BEQ      0x1007364 ; _printf_core + 1400
        0x01007356:    42b8        .B      CMP      r0,r7
        0x01007358:    da01        ..      BGE      0x100735e ; _printf_core + 1394
        0x0100735a:    1d01        ..      ADDS     r1,r0,#4
        0x0100735c:    da05        ..      BGE      0x100736a ; _printf_core + 1406
        0x0100735e:    2101        .!      MOVS     r1,#1
        0x01007360:    9102        ..      STR      r1,[sp,#8]
        0x01007362:    e015        ..      B        0x1007390 ; _printf_core + 1444
        0x01007364:    9901        ..      LDR      r1,[sp,#4]
        0x01007366:    1e49        I.      SUBS     r1,r1,#1
        0x01007368:    e7ed        ..      B        0x1007346 ; _printf_core + 1370
        0x0100736a:    2800        .(      CMP      r0,#0
        0x0100736c:    dc05        ..      BGT      0x100737a ; _printf_core + 1422
        0x0100736e:    9900        ..      LDR      r1,[sp,#0]
        0x01007370:    1841        A.      ADDS     r1,r0,r1
        0x01007372:    9100        ..      STR      r1,[sp,#0]
        0x01007374:    9901        ..      LDR      r1,[sp,#4]
        0x01007376:    1a09        ..      SUBS     r1,r1,r0
        0x01007378:    e003        ..      B        0x1007382 ; _printf_core + 1430
        0x0100737a:    9a01        ..      LDR      r2,[sp,#4]
        0x0100737c:    1c41        A.      ADDS     r1,r0,#1
        0x0100737e:    4291        .B      CMP      r1,r2
        0x01007380:    dd00        ..      BLE      0x1007384 ; _printf_core + 1432
        0x01007382:    9101        ..      STR      r1,[sp,#4]
        0x01007384:    9900        ..      LDR      r1,[sp,#0]
        0x01007386:    1a40        @.      SUBS     r0,r0,r1
        0x01007388:    1c40        @.      ADDS     r0,r0,#1
        0x0100738a:    9002        ..      STR      r0,[sp,#8]
        0x0100738c:    2001        .       MOVS     r0,#1
        0x0100738e:    07c0        ..      LSLS     r0,r0,#31
        0x01007390:    9003        ..      STR      r0,[sp,#0xc]
        0x01007392:    0720         .      LSLS     r0,r4,#28
        0x01007394:    d406        ..      BMI      0x10073a4 ; _printf_core + 1464
        0x01007396:    9902        ..      LDR      r1,[sp,#8]
        0x01007398:    9801        ..      LDR      r0,[sp,#4]
        0x0100739a:    4281        .B      CMP      r1,r0
        0x0100739c:    db02        ..      BLT      0x10073a4 ; _printf_core + 1464
        0x0100739e:    2000        .       MOVS     r0,#0
        0x010073a0:    43c0        .C      MVNS     r0,r0
        0x010073a2:    9002        ..      STR      r0,[sp,#8]
        0x010073a4:    2000        .       MOVS     r0,#0
        0x010073a6:    4669        iF      MOV      r1,sp
        0x010073a8:    77c8        .w      STRB     r0,[r1,#0x1f]
        0x010073aa:    af07        ..      ADD      r7,sp,#0x1c
        0x010073ac:    2101        .!      MOVS     r1,#1
        0x010073ae:    9803        ..      LDR      r0,[sp,#0xc]
        0x010073b0:    3703        .7      ADDS     r7,#3
        0x010073b2:    07c9        ..      LSLS     r1,r1,#31
        0x010073b4:    4288        .B      CMP      r0,r1
        0x010073b6:    d024        $.      BEQ      0x1007402 ; _printf_core + 1558
        0x010073b8:    2002        .       MOVS     r0,#2
        0x010073ba:    9011        ..      STR      r0,[sp,#0x44]
        0x010073bc:    202b        +       MOVS     r0,#0x2b
        0x010073be:    9012        ..      STR      r0,[sp,#0x48]
        0x010073c0:    9803        ..      LDR      r0,[sp,#0xc]
        0x010073c2:    2800        .(      CMP      r0,#0
        0x010073c4:    da0c        ..      BGE      0x10073e0 ; _printf_core + 1524
        0x010073c6:    4240        @B      RSBS     r0,r0,#0
        0x010073c8:    9003        ..      STR      r0,[sp,#0xc]
        0x010073ca:    202d        -       MOVS     r0,#0x2d
        0x010073cc:    9012        ..      STR      r0,[sp,#0x48]
        0x010073ce:    e007        ..      B        0x10073e0 ; _printf_core + 1524
        0x010073d0:    210a        .!      MOVS     r1,#0xa
        0x010073d2:    9803        ..      LDR      r0,[sp,#0xc]
        0x010073d4:    f7fff8f2    ....    BL       __aeabi_uidiv ; 0x10065bc
        0x010073d8:    3130        01      ADDS     r1,r1,#0x30
        0x010073da:    1e7f        ..      SUBS     r7,r7,#1
        0x010073dc:    9003        ..      STR      r0,[sp,#0xc]
        0x010073de:    7039        9p      STRB     r1,[r7,#0]
        0x010073e0:    9911        ..      LDR      r1,[sp,#0x44]
        0x010073e2:    1e48        H.      SUBS     r0,r1,#1
        0x010073e4:    9011        ..      STR      r0,[sp,#0x44]
        0x010073e6:    2900        .)      CMP      r1,#0
        0x010073e8:    dcf2        ..      BGT      0x10073d0 ; _printf_core + 1508
        0x010073ea:    9803        ..      LDR      r0,[sp,#0xc]
        0x010073ec:    2800        .(      CMP      r0,#0
        0x010073ee:    d1ef        ..      BNE      0x10073d0 ; _printf_core + 1508
        0x010073f0:    1e79        y.      SUBS     r1,r7,#1
        0x010073f2:    9812        ..      LDR      r0,[sp,#0x48]
        0x010073f4:    7008        .p      STRB     r0,[r1,#0]
        0x010073f6:    7830        0x      LDRB     r0,[r6,#0]
        0x010073f8:    2120         !      MOVS     r1,#0x20
        0x010073fa:    4008        .@      ANDS     r0,r0,r1
        0x010073fc:    3045        E0      ADDS     r0,r0,#0x45
        0x010073fe:    1ebf        ..      SUBS     r7,r7,#2
        0x01007400:    7038        8p      STRB     r0,[r7,#0]
        0x01007402:    a806        ..      ADD      r0,sp,#0x18
        0x01007404:    1bc0        ..      SUBS     r0,r0,r7
        0x01007406:    1dc0        ..      ADDS     r0,r0,#7
        0x01007408:    9003        ..      STR      r0,[sp,#0xc]
        0x0100740a:    9810        ..      LDR      r0,[sp,#0x40]
        0x0100740c:    7800        .x      LDRB     r0,[r0,#0]
        0x0100740e:    2800        .(      CMP      r0,#0
        0x01007410:    d000        ..      BEQ      0x1007414 ; _printf_core + 1576
        0x01007412:    2001        .       MOVS     r0,#1
        0x01007414:    9901        ..      LDR      r1,[sp,#4]
        0x01007416:    1841        A.      ADDS     r1,r0,r1
        0x01007418:    9802        ..      LDR      r0,[sp,#8]
        0x0100741a:    17c0        ..      ASRS     r0,r0,#31
        0x0100741c:    1809        ..      ADDS     r1,r1,r0
        0x0100741e:    9803        ..      LDR      r0,[sp,#0xc]
        0x01007420:    1809        ..      ADDS     r1,r1,r0
        0x01007422:    9804        ..      LDR      r0,[sp,#0x10]
        0x01007424:    1a40        @.      SUBS     r0,r0,r1
        0x01007426:    1e40        @.      SUBS     r0,r0,#1
        0x01007428:    9004        ..      STR      r0,[sp,#0x10]
        0x0100742a:    03e0        ..      LSLS     r0,r4,#15
        0x0100742c:    d406        ..      BMI      0x100743c ; _printf_core + 1616
        0x0100742e:    4621        !F      MOV      r1,r4
        0x01007430:    9b1a        ..      LDR      r3,[sp,#0x68]
        0x01007432:    9a19        ..      LDR      r2,[sp,#0x64]
        0x01007434:    9804        ..      LDR      r0,[sp,#0x10]
        0x01007436:    f000f85f    .._.    BL       _printf_pre_padding ; 0x10074f8
        0x0100743a:    1945        E.      ADDS     r5,r0,r5
        0x0100743c:    9810        ..      LDR      r0,[sp,#0x40]
        0x0100743e:    7800        .x      LDRB     r0,[r0,#0]
        0x01007440:    2800        .(      CMP      r0,#0
        0x01007442:    d003        ..      BEQ      0x100744c ; _printf_core + 1632
        0x01007444:    9a1a        ..      LDR      r2,[sp,#0x68]
        0x01007446:    9919        ..      LDR      r1,[sp,#0x64]
        0x01007448:    4790        .G      BLX      r2
        0x0100744a:    1c6d        m.      ADDS     r5,r5,#1
        0x0100744c:    03e0        ..      LSLS     r0,r4,#15
        0x0100744e:    d524        $.      BPL      0x100749a ; _printf_core + 1710
        0x01007450:    4621        !F      MOV      r1,r4
        0x01007452:    9b1a        ..      LDR      r3,[sp,#0x68]
        0x01007454:    9a19        ..      LDR      r2,[sp,#0x64]
        0x01007456:    9804        ..      LDR      r0,[sp,#0x10]
        0x01007458:    f000f84e    ..N.    BL       _printf_pre_padding ; 0x10074f8
        0x0100745c:    1945        E.      ADDS     r5,r0,r5
        0x0100745e:    e01c        ..      B        0x100749a ; _printf_core + 1710
        0x01007460:    9800        ..      LDR      r0,[sp,#0]
        0x01007462:    2800        .(      CMP      r0,#0
        0x01007464:    db07        ..      BLT      0x1007476 ; _printf_core + 1674
        0x01007466:    9900        ..      LDR      r1,[sp,#0]
        0x01007468:    9805        ..      LDR      r0,[sp,#0x14]
        0x0100746a:    4288        .B      CMP      r0,r1
        0x0100746c:    dd03        ..      BLE      0x1007476 ; _printf_core + 1674
        0x0100746e:    9815        ..      LDR      r0,[sp,#0x54]
        0x01007470:    5c40        @\      LDRB     r0,[r0,r1]
        0x01007472:    9919        ..      LDR      r1,[sp,#0x64]
        0x01007474:    e001        ..      B        0x100747a ; _printf_core + 1678
        0x01007476:    9919        ..      LDR      r1,[sp,#0x64]
        0x01007478:    2030        0       MOVS     r0,#0x30
        0x0100747a:    9a1a        ..      LDR      r2,[sp,#0x68]
        0x0100747c:    4790        .G      BLX      r2
        0x0100747e:    9800        ..      LDR      r0,[sp,#0]
        0x01007480:    1c6d        m.      ADDS     r5,r5,#1
        0x01007482:    1c40        @.      ADDS     r0,r0,#1
        0x01007484:    9000        ..      STR      r0,[sp,#0]
        0x01007486:    9802        ..      LDR      r0,[sp,#8]
        0x01007488:    1e40        @.      SUBS     r0,r0,#1
        0x0100748a:    9002        ..      STR      r0,[sp,#8]
        0x0100748c:    2800        .(      CMP      r0,#0
        0x0100748e:    d104        ..      BNE      0x100749a ; _printf_core + 1710
        0x01007490:    9a1a        ..      LDR      r2,[sp,#0x68]
        0x01007492:    202e        .       MOVS     r0,#0x2e
        0x01007494:    9919        ..      LDR      r1,[sp,#0x64]
        0x01007496:    4790        .G      BLX      r2
        0x01007498:    1c6d        m.      ADDS     r5,r5,#1
        0x0100749a:    9901        ..      LDR      r1,[sp,#4]
        0x0100749c:    1e48        H.      SUBS     r0,r1,#1
        0x0100749e:    9001        ..      STR      r0,[sp,#4]
        0x010074a0:    2900        .)      CMP      r1,#0
        0x010074a2:    dcdd        ..      BGT      0x1007460 ; _printf_core + 1652
        0x010074a4:    e005        ..      B        0x10074b2 ; _printf_core + 1734
        0x010074a6:    7838        8x      LDRB     r0,[r7,#0]
        0x010074a8:    9a1a        ..      LDR      r2,[sp,#0x68]
        0x010074aa:    1c7f        ..      ADDS     r7,r7,#1
        0x010074ac:    9919        ..      LDR      r1,[sp,#0x64]
        0x010074ae:    4790        .G      BLX      r2
        0x010074b0:    1c6d        m.      ADDS     r5,r5,#1
        0x010074b2:    9903        ..      LDR      r1,[sp,#0xc]
        0x010074b4:    1e48        H.      SUBS     r0,r1,#1
        0x010074b6:    9003        ..      STR      r0,[sp,#0xc]
        0x010074b8:    2900        .)      CMP      r1,#0
        0x010074ba:    dcf4        ..      BGT      0x10074a6 ; _printf_core + 1722
        0x010074bc:    4621        !F      MOV      r1,r4
        0x010074be:    9b1a        ..      LDR      r3,[sp,#0x68]
        0x010074c0:    9a19        ..      LDR      r2,[sp,#0x64]
        0x010074c2:    9804        ..      LDR      r0,[sp,#0x10]
        0x010074c4:    e6ac        ..      B        0x1007220 ; _printf_core + 1076
    $d
        0x010074c6:    0000        ..      DCW    0
        0x010074c8:    0000002d    -...    DCD    45
        0x010074cc:    0000002b    +...    DCD    43
        0x010074d0:    00000020     ...    DCD    32
        0x010074d4:    00000000    ....    DCD    0
    $t
    i._printf_post_padding
    _printf_post_padding
        0x010074d8:    b5f8        ..      PUSH     {r3-r7,lr}
        0x010074da:    4604        .F      MOV      r4,r0
        0x010074dc:    2500        .%      MOVS     r5,#0
        0x010074de:    461e        .F      MOV      r6,r3
        0x010074e0:    4617        .F      MOV      r7,r2
        0x010074e2:    0488        ..      LSLS     r0,r1,#18
        0x010074e4:    d404        ..      BMI      0x10074f0 ; _printf_post_padding + 24
        0x010074e6:    e005        ..      B        0x10074f4 ; _printf_post_padding + 28
        0x010074e8:    4639        9F      MOV      r1,r7
        0x010074ea:    2020                MOVS     r0,#0x20
        0x010074ec:    47b0        .G      BLX      r6
        0x010074ee:    1c6d        m.      ADDS     r5,r5,#1
        0x010074f0:    1e64        d.      SUBS     r4,r4,#1
        0x010074f2:    d5f9        ..      BPL      0x10074e8 ; _printf_post_padding + 16
        0x010074f4:    4628        (F      MOV      r0,r5
        0x010074f6:    bdf8        ..      POP      {r3-r7,pc}
    i._printf_pre_padding
    _printf_pre_padding
        0x010074f8:    b5ff        ..      PUSH     {r0-r7,lr}
        0x010074fa:    4604        .F      MOV      r4,r0
        0x010074fc:    2500        .%      MOVS     r5,#0
        0x010074fe:    b081        ..      SUB      sp,sp,#4
        0x01007500:    461e        .F      MOV      r6,r3
        0x01007502:    03c8        ..      LSLS     r0,r1,#15
        0x01007504:    d501        ..      BPL      0x100750a ; _printf_pre_padding + 18
        0x01007506:    2730        0'      MOVS     r7,#0x30
        0x01007508:    e000        ..      B        0x100750c ; _printf_pre_padding + 20
        0x0100750a:    2720         '      MOVS     r7,#0x20
        0x0100750c:    0488        ..      LSLS     r0,r1,#18
        0x0100750e:    d504        ..      BPL      0x100751a ; _printf_pre_padding + 34
        0x01007510:    e005        ..      B        0x100751e ; _printf_pre_padding + 38
        0x01007512:    4638        8F      MOV      r0,r7
        0x01007514:    9903        ..      LDR      r1,[sp,#0xc]
        0x01007516:    47b0        .G      BLX      r6
        0x01007518:    1c6d        m.      ADDS     r5,r5,#1
        0x0100751a:    1e64        d.      SUBS     r4,r4,#1
        0x0100751c:    d5f9        ..      BPL      0x1007512 ; _printf_pre_padding + 26
        0x0100751e:    4628        (F      MOV      r0,r5
        0x01007520:    b005        ..      ADD      sp,sp,#0x14
        0x01007522:    bdf0        ..      POP      {r4-r7,pc}
    i._snputc
    _snputc
        0x01007524:    684a        Jh      LDR      r2,[r1,#4]
        0x01007526:    2a00        .*      CMP      r2,#0
        0x01007528:    d006        ..      BEQ      0x1007538 ; _snputc + 20
        0x0100752a:    680a        .h      LDR      r2,[r1,#0]
        0x0100752c:    1c53        S.      ADDS     r3,r2,#1
        0x0100752e:    600b        .`      STR      r3,[r1,#0]
        0x01007530:    7010        .p      STRB     r0,[r2,#0]
        0x01007532:    6848        Hh      LDR      r0,[r1,#4]
        0x01007534:    1e40        @.      SUBS     r0,r0,#1
        0x01007536:    6048        H`      STR      r0,[r1,#4]
        0x01007538:    4770        pG      BX       lr
        0x0100753a:    0000        ..      MOVS     r0,r0
    $d.realdata
    .constdata
    g_pcHex1
        0x0100753c:    010083b0    ....    DCD    16810928
    g_pcHex2
        0x01007540:    0100839c    ....    DCD    16810908
    .constdata
    __FUNCTION__
        0x01007544:    4f495047    GPIO    DCD    1330204743
        0x01007548:    6e6f435f    _Con    DCD    1852785503
        0x0100754c:    00676966    fig.    DCD    6777190
    __FUNCTION__
        0x01007550:    4f495047    GPIO    DCD    1330204743
        0x01007554:    696e495f    _Ini    DCD    1768835423
        0x01007558:    0074        t.      DCW    116
    __FUNCTION__
        0x0100755a:    5047        GP      DCW    20551
        0x0100755c:    505f4f49    IO_P    DCD    1348423497
        0x01007560:    556c6c75    ullU    DCD    1433169013
        0x01007564:    646d4370    pCmd    DCD    1684882288
        0x01007568:    00          .       DCB    0
    __FUNCTION__
        0x01007569:    475049      GPI     DCB    71,80,73
        0x0100756c:    65525f4f    O_Re    DCD    1699897167
        0x01007570:    6e496461    adIn    DCD    1850303585
        0x01007574:    44747570    putD    DCD    1148482928
        0x01007578:    00617461    ata.    DCD    6386785
    __FUNCTION__
        0x0100757c:    4f495047    GPIO    DCD    1330204743
        0x01007580:    6165525f    _Rea    DCD    1634030175
        0x01007584:    706e4964    dInp    DCD    1886275940
        0x01007588:    61447475    utDa    DCD    1631876213
        0x0100758c:    69426174    taBi    DCD    1765958004
        0x01007590:    0074        t.      DCW    116
    __FUNCTION__
        0x01007592:    5047        GP      DCW    20551
        0x01007594:    525f4f49    IO_R    DCD    1381977929
        0x01007598:    4f646165    eadO    DCD    1331978597
        0x0100759c:    75707475    utpu    DCD    1970304117
        0x010075a0:    74614474    tDat    DCD    1952531572
        0x010075a4:    0061        a.      DCW    97
    __FUNCTION__
        0x010075a6:    5047        GP      DCW    20551
        0x010075a8:    525f4f49    IO_R    DCD    1381977929
        0x010075ac:    4f646165    eadO    DCD    1331978597
        0x010075b0:    75707475    utpu    DCD    1970304117
        0x010075b4:    74614474    tDat    DCD    1952531572
        0x010075b8:    74694261    aBit    DCD    1953055329
        0x010075bc:    00          .       DCB    0
    __FUNCTION__
        0x010075bd:    475049      GPI     DCB    71,80,73
        0x010075c0:    65525f4f    O_Re    DCD    1699897167
        0x010075c4:    42746573    setB    DCD    1114924403
        0x010075c8:    00737469    its.    DCD    7566441
    __FUNCTION__
        0x010075cc:    4f495047    GPIO    DCD    1330204743
        0x010075d0:    7465535f    _Set    DCD    1952797535
        0x010075d4:    73746942    Bits    DCD    1937008962
        0x010075d8:    00          .       DCB    0
    __FUNCTION__
        0x010075d9:    475049      GPI     DCB    71,80,73
        0x010075dc:    72575f4f    O_Wr    DCD    1918328655
        0x010075e0:    00657469    ite.    DCD    6648937
    __FUNCTION__
        0x010075e4:    4f495047    GPIO    DCD    1330204743
        0x010075e8:    6972575f    _Wri    DCD    1769101151
        0x010075ec:    69426574    teBi    DCD    1765959028
        0x010075f0:    0074        t.      DCW    116
    .constdata
    __FUNCTION__
        0x010075f2:    5845        EX      DCW    22597
        0x010075f4:    435f4954    TI_C    DCD    1130318164
        0x010075f8:    7261656c    lear    DCD    1918985580
        0x010075fc:    65505449    ITPe    DCD    1699763273
        0x01007600:    6e69646e    ndin    DCD    1852400750
        0x01007604:    74694267    gBit    DCD    1953055335
        0x01007608:    00          .       DCB    0
    __FUNCTION__
        0x01007609:    455854      EXT     DCB    69,88,84
        0x0100760c:    694c5f49    I_Li    DCD    1766612809
        0x01007610:    6f43656e    neCo    DCD    1866687854
        0x01007614:    6769666e    nfig    DCD    1734960750
        0x01007618:    00          .       DCB    0
    .constdata
    __FUNCTION__
        0x01007619:    554152      UAR     DCB    85,65,82
        0x0100761c:    75415f54    T_Au    DCD    1967218516
        0x01007620:    6c466f74    toFl    DCD    1816555380
        0x01007624:    7443776f    owCt    DCD    1950578543
        0x01007628:    6d436c72    rlCm    DCD    1833135218
        0x0100762c:    0064        d.      DCW    100
    __FUNCTION__
        0x0100762e:    4155        UA      DCW    16725
        0x01007630:    445f5452    RT_D    DCD    1147098194
        0x01007634:    696e4965    eIni    DCD    1768835429
        0x01007638:    0074        t.      DCW    116
    __FUNCTION__
        0x0100763a:    4155        UA      DCW    16725
        0x0100763c:    445f5452    RT_D    DCD    1147098194
        0x01007640:    6553414d    MASe    DCD    1699955021
        0x01007644:    7542646e    ndBu    DCD    1967285358
        0x01007648:    0066        f.      DCW    102
    __FUNCTION__
        0x0100764a:    4155        UA      DCW    16725
        0x0100764c:    495f5452    RT_I    DCD    1230984274
        0x01007650:    0074696e    nit.    DCD    7629166
    __FUNCTION__
        0x01007654:    54524155    UART    DCD    1414676821
        0x01007658:    5273495f    _IsR    DCD    1383287135
        0x0100765c:    46494658    XFIF    DCD    1179207256
        0x01007660:    6c75464f    OFul    DCD    1819625039
        0x01007664:    006c        l.      DCW    108
    __FUNCTION__
        0x01007666:    4155        UA      DCW    16725
        0x01007668:    495f5452    RT_I    DCD    1230984274
        0x0100766c:    46585273    sRXF    DCD    1180193395
        0x01007670:    4e4f4649    IFON    DCD    1313818185
        0x01007674:    6d45746f    otEm    DCD    1833268335
        0x01007678:    00797470    pty.    DCD    7959664
    __FUNCTION__
        0x0100767c:    54524155    UART    DCD    1414676821
        0x01007680:    5573495f    _IsU    DCD    1433618783
        0x01007684:    42545241    ARTB    DCD    1112822337
        0x01007688:    00797375    usy.    DCD    7959413
    __FUNCTION__
        0x0100768c:    54524155    UART    DCD    1414676821
        0x01007690:    4354495f    _ITC    DCD    1129597279
        0x01007694:    69666e6f    onfi    DCD    1768320623
        0x01007698:    0067        g.      DCW    103
    __FUNCTION__
        0x0100769a:    4155        UA      DCW    16725
        0x0100769c:    525f5452    RT_R    DCD    1381979218
        0x010076a0:    69656365    ecei    DCD    1768252261
        0x010076a4:    61446576    veDa    DCD    1631872374
        0x010076a8:    6174        ta      DCW    24948
        0x010076aa:    00          .       DCB    0
    __FUNCTION__
        0x010076ab:    55          U       DCB    85
        0x010076ac:    5f545241    ART_    DCD    1599361601
        0x010076b0:    76636552    Recv    DCD    1986225490
        0x010076b4:    00667542    Buf.    DCD    6714690
    __FUNCTION__
        0x010076b8:    54524155    UART    DCD    1414676821
        0x010076bc:    6e65535f    _Sen    DCD    1852134239
        0x010076c0:    66754264    dBuf    DCD    1718960740
        0x010076c4:    00          .       DCB    0
    __FUNCTION__
        0x010076c5:    554152      UAR     DCB    85,65,82
        0x010076c8:    65535f54    T_Se    DCD    1699962708
        0x010076cc:    49785274    tRxI    DCD    1232622196
        0x010076d0:    6d754e54    TNum    DCD    1836404308
        0x010076d4:    00          .       DCB    0
    __FUNCTION__
        0x010076d5:    554152      UAR     DCB    85,65,82
        0x010076d8:    65525f54    T_Re    DCD    1699897172
        0x010076dc:    76696563    ceiv    DCD    1986618723
        0x010076e0:    74614465    eDat    DCD    1952531557
        0x010076e4:    6e654c61    aLen    DCD    1852132449
        0x010076e8:    00          .       DCB    0
    .constdata
    __FUNCTION__
        0x010076e9:    737973      sys     DCB    115,121,115
        0x010076ec:    6b636954    Tick    DCD    1801677140
        0x010076f0:    6c65645f    _del    DCD    1818584159
        0x010076f4:    6d5f7961    ay_m    DCD    1834973537
        0x010076f8:    0073        s.      DCW    115
    __FUNCTION__
        0x010076fa:    7953        Sy      DCW    31059
        0x010076fc:    63695473    sTic    DCD    1667847283
        0x01007700:    65445f6b    k_De    DCD    1698979691
        0x01007704:    5f79616c    lay_    DCD    1601790316
        0x01007708:    7355        Us      DCW    29525
        0x0100770a:    00          .       DCB    0
    __FUNCTION__
        0x0100770b:    53          S       DCB    83
        0x0100770c:    69547379    ysTi    DCD    1767142265
        0x01007710:    435f6b63    ck_C    DCD    1130326883
        0x01007714:    69666e6f    onfi    DCD    1768320623
        0x01007718:    0067        g.      DCW    103
    .constdata
    __FUNCTION__
        0x0100771a:    4441        AD      DCW    17473
        0x0100771c:    6e495f43    C_In    DCD    1850302275
        0x01007720:    7469        it      DCW    29801
        0x01007722:    00          .       DCB    0
    .constdata
    __FUNCTION__
        0x01007723:    53          S       DCB    83
        0x01007724:    54435359    YSCT    DCD    1413698393
        0x01007728:    415f4c52    RL_A    DCD    1096764498
        0x0100772c:    65504248    HBPe    DCD    1699758664
        0x01007730:    68706972    riph    DCD    1752197490
        0x01007734:    636f6c43    Cloc    DCD    1668246595
        0x01007738:    646d436b    kCmd    DCD    1684882283
        0x0100773c:    00          .       DCB    0
    __FUNCTION__
        0x0100773d:    535953      SYS     DCB    83,89,83
        0x01007740:    4c525443    CTRL    DCD    1280463939
        0x01007744:    746e455f    _Ent    DCD    1953383775
        0x01007748:    6c537265    erSl    DCD    1817408101
        0x0100774c:    00706565    eep.    DCD    7365989
    __FUNCTION__
        0x01007750:    43535953    SYSC    DCD    1129535827
        0x01007754:    5f4c5254    TRL_    DCD    1598837332
        0x01007758:    4b4c4348    HCLK    DCD    1263289160
        0x0100775c:    666e6f43    Conf    DCD    1718513475
        0x01007760:    6769        ig      DCW    26473
        0x01007762:    00          .       DCB    0
    .constdata
    __FUNCTION__
        0x01007763:    54          T       DCB    84
        0x01007764:    495f4d49    IM_I    DCD    1230982473
        0x01007768:    0074696e    nit.    DCD    7629166
    __FUNCTION__
        0x0100776c:    5f4d4954    TIM_    DCD    1598900564
        0x01007770:    00646d43    Cmd.    DCD    6581571
    __FUNCTION__
        0x01007774:    5f4d4954    TIM_    DCD    1598900564
        0x01007778:    65646f4d    Mode    DCD    1701080909
        0x0100777c:    666e6f43    Conf    DCD    1718513475
        0x01007780:    6769        ig      DCW    26473
        0x01007782:    00          .       DCB    0
    __FUNCTION__
        0x01007783:    54          T       DCB    84
        0x01007784:    535f4d49    IM_S    DCD    1398754633
        0x01007788:    65507465    etPe    DCD    1699771493
        0x0100778c:    646f6972    riod    DCD    1685023090
        0x01007790:    00          .       DCB    0
    __FUNCTION__
        0x01007791:    54494d      TIM     DCB    84,73,77
        0x01007794:    4d57505f    _PWM    DCD    1297567839
        0x01007798:    74696e49    Init    DCD    1953066569
        0x0100779c:    00          .       DCB    0
    __FUNCTION__
        0x0100779d:    54494d      TIM     DCB    84,73,77
        0x010077a0:    7465535f    _Set    DCD    1952797535
        0x010077a4:    504d5750    PWMP    DCD    1347245904
        0x010077a8:    6f697265    erio    DCD    1869181541
        0x010077ac:    0064        d.      DCW    100
    __FUNCTION__
        0x010077ae:    4954        TI      DCW    18772
        0x010077b0:    57505f4d    M_PW    DCD    1464885069
        0x010077b4:    6669444d    MDif    DCD    1718174797
        0x010077b8:    65726566    fere    DCD    1701995878
        0x010077bc:    6169746e    ntia    DCD    1634301038
        0x010077c0:    006c        l.      DCW    108
    .constdata
    __FUNCTION__
        0x010077c2:    5053        SP      DCW    20563
        0x010077c4:    6e495f49    I_In    DCD    1850302281
        0x010077c8:    7469        it      DCW    29801
        0x010077ca:    00          .       DCB    0
    .constdata
    bt_code
        0x010077cb:    00          .       DCB    0
        0x010077cc:    9e55aa02    ..U.    DCD    2656414210
        0x010077d0:    0084c204    ....    DCD    8700420
        0x010077d4:    8000c008    ....    DCD    2147532808
        0x010077d8:    8042c011    ..B.    DCD    2151858193
        0x010077dc:    8044c017    ..D.    DCD    2151989271
        0x010077e0:    0051c038    8.Q.    DCD    5357624
        0x010077e4:    005cc041    A.\.    DCD    6078529
        0x010077e8:    805dc048    H.].    DCD    2153627720
        0x010077ec:    4a202075    u  J    DCD    1243619445
        0x010077f0:    8001c08b    ....    DCD    2147598475
        0x010077f4:    8002c0d0    ....    DCD    2147664080
        0x010077f8:    0003c0e0    ....    DCD    245984
        0x010077fc:    001dc0e9    ....    DCD    1949929
        0x01007800:    001fc0ee    ....    DCD    2081006
        0x01007804:    8120c0f7    .. .    DCD    2166407415
        0x01007808:    0129c009    ..).    DCD    19513353
        0x0100780c:    814cc00f    ..L.    DCD    2169290767
        0x01007810:    4a202023    #  J    DCD    1243619363
        0x01007814:    6840208b    . @h    DCD    1749033099
        0x01007818:    604020c4    . @`    DCD    1614815428
        0x0100781c:    004020d7    . @.    DCD    4202711
        0x01007820:    40202015    .  @    DCD    1075847189
        0x01007824:    8075200a    . u.    DCD    2155159562
        0x01007828:    7b202000    .  {    DCD    2065702912
        0x0100782c:    8030209a    . 0.    DCD    2150637722
        0x01007830:    55897027    'p.U    DCD    1435070503
        0x01007834:    000020d4    . ..    DCD    8404
        0x01007838:    55897004    .p.U    DCD    1435070468
        0x0100783c:    000020d2    . ..    DCD    8402
        0x01007840:    55897004    .p.U    DCD    1435070468
        0x01007844:    000020d1    . ..    DCD    8401
        0x01007848:    41e26f04    .o.A    DCD    1105358596
        0x0100784c:    0000c0df    ....    DCD    49375
        0x01007850:    8000c025    %...    DCD    2147532837
        0x01007854:    0001c035    5...    DCD    114741
        0x01007858:    8001c025    %...    DCD    2147598373
        0x0100785c:    0002c035    5...    DCD    180277
        0x01007860:    0010c035    5...    DCD    1097781
        0x01007864:    55897035    5p.U    DCD    1435070517
        0x01007868:    568970d0    .p.V    DCD    1451847888
        0x0100786c:    2a0018e0    ...*    DCD    704649440
        0x01007870:    2a001808    ...*    DCD    704649224
        0x01007874:    fc507800    .xP.    DCD    4233132032
        0x01007878:    7c507800    .xP|    DCD    2085648384
        0x0100787c:    7c2f7800    .x/|    DCD    2083485696
        0x01007880:    02897000    .p..    DCD    42561536
        0x01007884:    01897000    .p..    DCD    25784320
        0x01007888:    00897000    .p..    DCD    9007104
        0x0100788c:    03897000    .p..    DCD    59338752
        0x01007890:    04897000    .p..    DCD    76115968
        0x01007894:    89e26f70    po..    DCD    2313318256
        0x01007898:    7e207906    .y ~    DCD    2116057350
        0x0100789c:    89e26700    .g..    DCD    2313316096
        0x010078a0:    00602006    . `.    DCD    6299654
        0x010078a4:    55897000    .p.U    DCD    1435070464
        0x010078a8:    568970d0    .p.V    DCD    1451847888
        0x010078ac:    002020c0    .  .    DCD    2105536
        0x010078b0:    00426027    '`B.    DCD    4349991
        0x010078b4:    49402017    . @I    DCD    1228939287
        0x010078b8:    4940202a    * @I    DCD    1228939306
        0x010078bc:    05005880    .X..    DCD    83908736
        0x010078c0:    4a402000    . @J    DCD    1245716480
        0x010078c4:    89e26f8e    .o..    DCD    2313318286
        0x010078c8:    7e207906    .y ~    DCD    2116057350
        0x010078cc:    89e26700    .g..    DCD    2313316096
        0x010078d0:    49202006    .  I    DCD    1226842118
        0x010078d4:    06897037    7p..    DCD    109670455
        0x010078d8:    8075207c    | u.    DCD    2155159676
        0x010078dc:    00005800    .X..    DCD    22528
        0x010078e0:    41e46700    .g.A    DCD    1105487616
        0x010078e4:    7e431cdd    ..C~    DCD    2118327517
        0x010078e8:    40e86700    .g.@    DCD    1088972544
        0x010078ec:    00602094    . `.    DCD    6299796
        0x010078f0:    00005800    .X..    DCD    22528
        0x010078f4:    41e46752    Rg.A    DCD    1105487698
        0x010078f8:    000058f6    .X..    DCD    22774
        0x010078fc:    41e4675a    Zg.A    DCD    1105487706
        0x01007900:    000058fe    .X..    DCD    22782
        0x01007904:    41e46764    dg.A    DCD    1105487716
        0x01007908:    4d4020fa    . @M    DCD    1296048378
        0x0100790c:    4d4020af    . @M    DCD    1296048303
        0x01007910:    4c4020bc    . @L    DCD    1279271100
        0x01007914:    5020202a    *  P    DCD    1344282666
        0x01007918:    7e621a4d    M.b~    DCD    2120358477
        0x0100791c:    8004c000    ....    DCD    2147794944
        0x01007920:    0001c058    X...    DCD    114776
        0x01007924:    4d202056    V  M    DCD    1293951062
        0x01007928:    154b70df    .pK.    DCD    357265631
        0x0100792c:    4d202000    .  M    DCD    1293950976
        0x01007930:    154b70fb    .pK.    DCD    357265659
        0x01007934:    4e202006    .  N    DCD    1310728198
        0x01007938:    00402008    . @.    DCD    4202504
        0x0100793c:    5020205c    \  P    DCD    1344282716
        0x01007940:    4be26fc3    .o.K    DCD    1273130947
        0x01007944:    007a2015    . z.    DCD    8003605
        0x01007948:    ffe01f00    ....    DCD    4292878080
        0x0100794c:    4be267ff    .g.K    DCD    1273128959
        0x01007950:    007a2415    .$z.    DCD    8004629
        0x01007954:    46e46f00    .o.F    DCD    1189375744
        0x01007958:    4d80c252    R..M    DCD    1300283986
        0x0100795c:    00602064    d `.    DCD    6299748
        0x01007960:    4f402000    . @O    DCD    1329602560
        0x01007964:    00742011    . t.    DCD    7610385
        0x01007968:    7e221a00    .."~    DCD    2116164096
        0x0100796c:    46e46700    .g.F    DCD    1189373696
        0x01007970:    7e421a71    q.B~    DCD    2118261361
        0x01007974:    46e26700    .g.F    DCD    1189242624
        0x01007978:    04446870    phD.    DCD    71592048
        0x0100797c:    46446074    t`DF    DCD    1178886260
        0x01007980:    5b402073    s @[    DCD    1530929267
        0x01007984:    4a3a246c    l$:J    DCD    1245324396
        0x01007988:    04e26f8b    .o..    DCD    81948555
        0x0100798c:    5081c09e    ...P    DCD    1350680734
        0x01007990:    0044e842    B.D.    DCD    4515906
        0x01007994:    29005806    .X.)    DCD    687888390
        0x01007998:    7c469802    ..F|    DCD    2085001218
        0x0100799c:    80622000    . b.    DCD    2153914368
        0x010079a0:    50202000    .  P    DCD    1344282624
        0x010079a4:    0ae26f42    Bo..    DCD    182611778
        0x010079a8:    8013c0ff    ....    DCD    2148778239
        0x010079ac:    0006c0ce    ....    DCD    442574
        0x010079b0:    003bc07d    }.;.    DCD    3915901
        0x010079b4:    803bc086    ..;.    DCD    2151399558
        0x010079b8:    003cc08c    ..<.    DCD    3981452
        0x010079bc:    800ac091    ....    DCD    2148188305
        0x010079c0:    4e2020cb    .  N    DCD    1310728395
        0x010079c4:    06221a5c    \.".    DCD    102898268
        0x010079c8:    00e2ef00    ....    DCD    14872320
        0x010079cc:    4f00c003    ...O    DCD    1325449219
        0x010079d0:    cf00c01c    ....    DCD    3472932892
        0x010079d4:    4f01c01f    ...O    DCD    1325514783
        0x010079d8:    8001c025    %...    DCD    2147598373
        0x010079dc:    50202084    .  P    DCD    1344282756
        0x010079e0:    0000581c    .X..    DCD    22556
        0x010079e4:    4f202001    .  O    DCD    1327505409
        0x010079e8:    0040d820     .@.    DCD    4249632
        0x010079ec:    5b402028    ( @[    DCD    1530929192
        0x010079f0:    8bc0184d    M...    DCD    2344622157
        0x010079f4:    000058fe    .X..    DCD    22782
        0x010079f8:    00e4e700    ....    DCD    15001344
        0x010079fc:    50202005    .  P    DCD    1344282629
        0x01007a00:    0040201f    . @.    DCD    4202527
        0x01007a04:    00402095    . @.    DCD    4202645
        0x01007a08:    000058b2    .X..    DCD    22706
        0x01007a0c:    00e4e700    ....    DCD    15001344
        0x01007a10:    00202005    .  .    DCD    2105349
        0x01007a14:    00e2efc4    ....    DCD    14872516
        0x01007a18:    00402003    . @.    DCD    4202499
        0x01007a1c:    00402099    . @.    DCD    4202649
        0x01007a20:    002020a0    .  .    DCD    2105504
        0x01007a24:    004020c4    . @.    DCD    4202692
        0x01007a28:    002858b6    .X(.    DCD    2644150
        0x01007a2c:    00e6e702    ....    DCD    15132418
        0x01007a30:    00602005    . `.    DCD    6299653
        0x01007a34:    0ae26700    .g..    DCD    182609664
        0x01007a38:    00402096    . @.    DCD    4202646
        0x01007a3c:    032859b6    .Y(.    DCD    52976054
        0x01007a40:    00e8e702    ....    DCD    15263490
        0x01007a44:    0ae26f05    .o..    DCD    182611717
        0x01007a48:    00e6e796    ....    DCD    15132566
        0x01007a4c:    00602005    . `.    DCD    6299653
        0x01007a50:    00402000    . @.    DCD    4202496
        0x01007a54:    004020b6    . @.    DCD    4202678
        0x01007a58:    004020b2    . @.    DCD    4202674
        0x01007a5c:    000058b2    .X..    DCD    22706
        0x01007a60:    00e4e700    ....    DCD    15001344
        0x01007a64:    85401805    ..@.    DCD    2235570181
        0x01007a68:    5b4020ff    . @[    DCD    1530929407
        0x01007a6c:    8cc0184d    M...    DCD    2361399373
        0x01007a70:    00e2ef04    ....    DCD    14872324
        0x01007a74:    0082c206    ....    DCD    8569350
        0x01007a78:    8082c2ad    ....    DCD    2156053165
        0x01007a7c:    844018ad    ..@.    DCD    2218793133
        0x01007a80:    00602001    . `.    DCD    6299649
        0x01007a84:    00402000    . @.    DCD    4202496
        0x01007a88:    02295ab6    .Z).    DCD    36264630
        0x01007a8c:    00f0e702    ....    DCD    15787778
        0x01007a90:    85401805    ..@.    DCD    2235570181
        0x01007a94:    006020ff    . `.    DCD    6299903
        0x01007a98:    00e2ef00    ....    DCD    14872320
        0x01007a9c:    72e21f03    ...r    DCD    1927421699
        0x01007aa0:    00e2e700    ....    DCD    14870272
        0x01007aa4:    67202005    .  g    DCD    1730158597
        0x01007aa8:    004020ed    . @.    DCD    4202733
        0x01007aac:    0044e0b9    ..D.    DCD    4513977
        0x01007ab0:    00602005    . `.    DCD    6299653
        0x01007ab4:    44e46f00    .o.D    DCD    1155821312
        0x01007ab8:    0c00988e    ....    DCD    201365646
        0x01007abc:    00e4ef00    ....    DCD    15003392
        0x01007ac0:    007a2006    . z.    DCD    8003590
        0x01007ac4:    84e01f00    ....    DCD    2229280512
        0x01007ac8:    00e2ef01    ....    DCD    14872321
        0x01007acc:    8cc09806    ....    DCD    2361432070
        0x01007ad0:    00e2ef00    ....    DCD    14872320
        0x01007ad4:    8cc09806    ....    DCD    2361432070
        0x01007ad8:    0ac21800    ....    DCD    180492288
        0x01007adc:    00202000    .  .    DCD    2105344
        0x01007ae0:    0a4460bb    .`D.    DCD    172253371
        0x01007ae4:    ff0a709e    .p..    DCD    4278874270
        0x01007ae8:    00005829    )X..    DCD    22569
        0x01007aec:    50402002    . @P    DCD    1346379778
        0x01007af0:    0a4468a5    .hD.    DCD    172255397
        0x01007af4:    0044e09e    ..D.    DCD    4513950
        0x01007af8:    6720200a    .  g    DCD    1730158602
        0x01007afc:    00e6efb9    ....    DCD    15134649
        0x01007b00:    40e66703    .g.@    DCD    1088841475
        0x01007b04:    502020aa    .  P    DCD    1344282794
        0x01007b08:    5040201f    . @P    DCD    1346379807
        0x01007b0c:    4d20201f    .  M    DCD    1293951007
        0x01007b10:    49402085    . @I    DCD    1228939397
        0x01007b14:    fc2378ba    .x#.    DCD    4230183098
        0x01007b18:    fc247800    .x$.    DCD    4230248448
        0x01007b1c:    00800900    ....    DCD    8390912
        0x01007b20:    7e891908    ...~    DCD    2122914056
        0x01007b24:    02e26700    .g..    DCD    48391936
        0x01007b28:    008009d5    ....    DCD    8391125
        0x01007b2c:    7e891908    ...~    DCD    2122914056
        0x01007b30:    00e2e700    ....    DCD    14870272
        0x01007b34:    72e11f05    ...r    DCD    1927356165
        0x01007b38:    d822203f    ? ".    DCD    3626115135
        0x01007b3c:    7ce61f8b    ...|    DCD    2095456139
        0x01007b40:    00412433    3$A.    DCD    4269107
        0x01007b44:    582020de    .  X    DCD    1478500574
        0x01007b48:    0020df87    .. .    DCD    2154375
        0x01007b4c:    00602033    3 `.    DCD    6299699
        0x01007b50:    58402000    . @X    DCD    1480597504
        0x01007b54:    494020a3    . @I    DCD    1228939427
        0x01007b58:    00426815    .hB.    DCD    4352021
        0x01007b5c:    49402017    . @I    DCD    1228939287
        0x01007b60:    0500201c    . ..    DCD    83894300
        0x01007b64:    494020dc    . @I    DCD    1228939484
        0x01007b68:    7c287821    !x(|    DCD    2083026977
        0x01007b6c:    1560d900    ..`.    DCD    358668544
        0x01007b70:    5820207c    |  X    DCD    1478500476
        0x01007b74:    57402069    i @W    DCD    1463820393
        0x01007b78:    004020af    . @.    DCD    4202671
        0x01007b7c:    582020ec    .  X    DCD    1478500588
        0x01007b80:    803620a7    . 6.    DCD    2151030951
        0x01007b84:    5720203d    =  W    DCD    1461723197
        0x01007b88:    00e26fbe    .o..    DCD    14839742
        0x01007b8c:    0008c07d    }...    DCD    573565
        0x01007b90:    602020f1    .  `    DCD    1612718321
        0x01007b94:    054268fe    .hB.    DCD    88238334
        0x01007b98:    7c46184e    N.F|    DCD    2084968526
        0x01007b9c:    00212006    . !.    DCD    2170886
        0x01007ba0:    622020f5    .  b    DCD    1646272757
        0x01007ba4:    7e007006    .p.~    DCD    2113957894
        0x01007ba8:    61202024    $  a    DCD    1629495332
        0x01007bac:    7c547834    4xT|    DCD    2085910580
        0x01007bb0:    66402000    . @f    DCD    1715478528
        0x01007bb4:    00e26fa3    .o..    DCD    14839715
        0x01007bb8:    007a2048    H z.    DCD    8003656
        0x01007bbc:    8083c200    ....    DCD    2156118528
        0x01007bc0:    632020fd    .  c    DCD    1663049981
        0x01007bc4:    0142c0f2    ..B.    DCD    21151986
        0x01007bc8:    8141c000    ..A.    DCD    2168569856
        0x01007bcc:    64202003    .  d    DCD    1679826947
        0x01007bd0:    01402021    ! @.    DCD    20979745
        0x01007bd4:    00e26f06    .o..    DCD    14839558
        0x01007bd8:    64202048    H  d    DCD    1679827016
        0x01007bdc:    0140207b    { @.    DCD    20979835
        0x01007be0:    00e26f06    .o..    DCD    14839558
        0x01007be4:    64202048    H  d    DCD    1679827016
        0x01007be8:    46e26fef    .o.F    DCD    1189244911
        0x01007bec:    653a202c    , :e    DCD    1698308140
        0x01007bf0:    6520200d    .  e    DCD    1696604173
        0x01007bf4:    40e26f06    .o.@    DCD    1088581382
        0x01007bf8:    fe3f799e    .y?.    DCD    4265572766
        0x01007bfc:    40e26703    .g.@    DCD    1088579331
        0x01007c00:    0000589e    .X..    DCD    22686
        0x01007c04:    04e46701    .g..    DCD    82077441
        0x01007c08:    006020ca    . `.    DCD    6299850
        0x01007c0c:    04e26f00    .o..    DCD    81948416
        0x01007c10:    e91fc0f9    ....    DCD    3911172345
        0x01007c14:    e939c03e    >.9.    DCD    3912876094
        0x01007c18:    8177c047    G.w.    DCD    2172108871
        0x01007c1c:    ea29c015    ..).    DCD    3928604693
        0x01007c20:    00602005    . `.    DCD    6299653
        0x01007c24:    04e46f00    .o..    DCD    82079488
        0x01007c28:    0ce21ffd    ....    DCD    216145917
        0x01007c2c:    69402000    . @i    DCD    1765810176
        0x01007c30:    04e26f84    .o..    DCD    81948548
        0x01007c34:    e920c0ff    .. .    DCD    3911237887
        0x01007c38:    6920c066    f. i    DCD    1763754086
        0x01007c3c:    e938c06e    n.8.    DCD    3912810606
        0x01007c40:    0138c0a7    ..8.    DCD    20496551
        0x01007c44:    e924c01f    ..$.    DCD    3911499807
        0x01007c48:    6a2020be    .  j    DCD    1780490430
        0x01007c4c:    950a7058    Xp..    DCD    2500489304
        0x01007c50:    7b402008    . @{    DCD    2067800072
        0x01007c54:    694020ab    . @i    DCD    1765810347
        0x01007c58:    69202072    r  i    DCD    1763713138
        0x01007c5c:    44e26fba    .o.D    DCD    1155690426
        0x01007c60:    5e3a2090    . :^    DCD    1580867728
        0x01007c64:    744020d0    . @t    DCD    1950359760
        0x01007c68:    79202038    8  y    DCD    2032148536
        0x01007c6c:    aaa63532    25..    DCD    2863019314
        0x01007c70:    92000155    U...    DCD    2449473877
        0x01007c74:    55aa0a40    @..U    DCD    1437207104
        0x01007c78:    46540001    ..TF    DCD    1179910145
        0x01007c7c:    0155aa40    @.U.    DCD    22391360
        0x01007c80:    13420600    ..B.    DCD    323094016
        0x01007c84:    000855aa    .U..    DCD    546218
        0x01007c88:    fbff4098    .@..    DCD    4227809432
        0x01007c8c:    858bf88f    ....    DCD    2240542863
        0x01007c90:    55aa8359    Y..U    DCD    1437238105
        0x01007c94:    42140003    ...B    DCD    1108606979
        0x01007c98:    aa054a6b    kJ..    DCD    2852473451
        0x01007c9c:    3d000455    U..=    DCD    1023411285
        0x01007ca0:    007f0045    E...    DCD    8323141
        0x01007ca4:    0355aa07    ..U.    DCD    55945735
        0x01007ca8:    03462d00    .-F.    DCD    54930688
        0x01007cac:    55aa0400    ...U    DCD    1437205504
        0x01007cb0:    462c0001    ..,F    DCD    1177288705
        0x01007cb4:    0655aa01    ..U.    DCD    106277377
        0x01007cb8:    04465700    .WF.    DCD    71718656
        0x01007cbc:    30303030    0000    DCD    808464432
        0x01007cc0:    1055aa30    0.U.    DCD    274049584
        0x01007cc4:    004ff000    ..O.    DCD    5238784
        0x01007cc8:    001fff1c    ....    DCD    2096924
        0x01007ccc:    001c001c    ....    DCD    1835036
        0x01007cd0:    004fe04c    L.O.    DCD    5234764
        0x01007cd4:    aa4c004c    L.L.    DCD    2857107532
        0x01007cd8:    68000255    U..h    DCD    1744831061
        0x01007cdc:    aa050046    F...    DCD    2852454470
        0x01007ce0:    6c000155    U..l    DCD    1811939669
        0x01007ce4:    55aa0346    F..U    DCD    1437205318
        0x01007ce8:    466f0001    ..oF    DCD    1181679617
        0x01007cec:    0355aa07    ..U.    DCD    55945735
        0x01007cf0:    2440aa00    ..@$    DCD    608217600
        0x01007cf4:    55aa0404    ...U    DCD    1437205508
        0x01007cf8:    46790001    ..yF    DCD    1182334977
        0x01007cfc:    0155aa00    ..U.    DCD    22391296
        0x01007d00:    00409100    ..@.    DCD    4231424
        0x01007d04:    000355aa    .U..    DCD    218538
        0x01007d08:    01004154    TA..    DCD    16793940
        0x01007d0c:    0155aa08    ..U.    DCD    22391304
        0x01007d10:    02417400    .tA.    DCD    37843968
        0x01007d14:    000155aa    .U..    DCD    87466
        0x01007d18:    aa004093    .@..    DCD    2852143251
        0x01007d1c:    6d000155    U..m    DCD    1828716885
        0x01007d20:    55aa2846    F(.U    DCD    1437214790
        0x01007d24:    40a00006    ...@    DCD    1084227590
        0x01007d28:    212a2aa7    .**!    DCD    556411559
        0x01007d2c:    55aa3a10    .:.U    DCD    1437219344
        0x01007d30:    44e7000c    ...D    DCD    1155989516
        0x01007d34:    3231330b    .312    DCD    842085131
        0x01007d38:    6f4d2031    1 Mo    DCD    1867325489
        0x01007d3c:    74422075    u Bt    DCD    1950490741
        0x01007d40:    000355aa    .U..    DCD    218538
        0x01007d44:    002041e4    .A .    DCD    2114020
        0x01007d48:    0155aa01    ..U.    DCD    22391297
        0x01007d4c:    0041e800    ..A.    DCD    4319232
        0x01007d50:    000155aa    .U..    DCD    87466
        0x01007d54:    aa014490    .D..    DCD    2852209808
        0x01007d58:    5f000155    U.._    DCD    1593835861
        0x01007d5c:    55aa0744    D..U    DCD    1437206340
        0x01007d60:    44980001    ...D    DCD    1150812161
        0x01007d64:    0455aa00    ..U.    DCD    72722944
        0x01007d68:    2d467500    .uF-    DCD    759592192
        0x01007d6c:    aa002f00    ./..    DCD    2852138752
        0x01007d70:    40000155    U..@    DCD    1073742165
        0x01007d74:    55aa0043    C..U    DCD    1437204547
        0x01007d78:    44540002    ..TD    DCD    1146355714
        0x01007d7c:    55aa0040    @..U    DCD    1437204544
        0x01007d80:    466e0001    ..nF    DCD    1181614081
        0x01007d84:    0655aa05    ..U.    DCD    106277381
        0x01007d88:    21447200    .rD!    DCD    558133760
        0x01007d8c:    02330122    ".3.    DCD    36897058
        0x01007d90:    0d55aa3a    :.U.    DCD    223717946
        0x01007d94:    0c438100    ..C.    DCD    205750528
        0x01007d98:    31323133    3121    DCD    825372979
        0x01007d9c:    756f4d20     Mou    DCD    1970228512
        0x01007da0:    656c4220     Ble    DCD    1701593632
        0x01007da4:    000455aa    .U..    DCD    284074
        0x01007da8:    02034341    AC..    DCD    33768257
        0x01007dac:    55aa0201    ...U    DCD    1437204993
        0x01007db0:    43610016    ..aC    DCD    1130430486
        0x01007db4:    0201020e    ....    DCD    33620494
        0x01007db8:    69590911    ..Yi    DCD    1767442705
        0x01007dbc:    70696863    chip    DCD    1885956195
        0x01007dc0:    32303120     102    DCD    842019104
        0x01007dc4:    4d207331    1s M    DCD    1293972273
        0x01007dc8:    55aa756f    ou.U    DCD    1437234543
        0x01007dcc:    44250007    ..%D    DCD    1143275527
        0x01007dd0:    05000302    ....    DCD    83886850
        0x01007dd4:    aa030210    ....    DCD    2852323856
        0x01007dd8:    68000855    U..h    DCD    1744832597
        0x01007ddc:    10000844    D...    DCD    268437572
        0x01007de0:    2c000000    ...,    DCD    738197504
        0x01007de4:    0155aa01    ..U.    DCD    22391297
        0x01007de8:    b9447800    .xD.    DCD    3108272128
        0x01007dec:    000155aa    .U..    DCD    87466
        0x01007df0:    aa17447a    zD..    DCD    2853651578
        0x01007df4:    cc000255    U...    DCD    3422552661
        0x01007df8:    aa003144    D1..    DCD    2852139332
        0x01007dfc:    d1000155    U...    DCD    3506438485
        0x01007e00:    55aa0140    @..U    DCD    1437204800
        0x01007e04:    4549000c    ..IE    DCD    1162412044
        0x01007e08:    12000305    ....    DCD    301990661
        0x01007e0c:    00010100    ....    DCD    65792
        0x01007e10:    00031101    ....    DCD    200961
        0x01007e14:    000155aa    .U..    DCD    87466
        0x01007e18:    aa00455f    _E..    DCD    2852144479
        0x01007e1c:    47000255    U..G    DCD    1191182933
        0x01007e20:    aa468345    E.F.    DCD    2856747845
        0x01007e24:    8300b855    U...    DCD    2197862485
        0x01007e28:    00120346    F...    DCD    1180486
        0x01007e2c:    01000001    ....    DCD    16777217
        0x01007e30:    01000100    ....    DCD    16777472
        0x01007e34:    09520036    6.R.    DCD    156368950
        0x01007e38:    000a0000    ....    DCD    655360
        0x01007e3c:    09010001    ....    DCD    151060481
        0x01007e40:    03350100    ..5.    DCD    53805312
        0x01007e44:    09001219    ....    DCD    150999577
        0x01007e48:    0d350400    ..5.    DCD    221578240
        0x01007e4c:    01190635    5...    DCD    18417205
        0x01007e50:    01000900    ....    DCD    16779520
        0x01007e54:    00190335    5...    DCD    1639221
        0x01007e58:    09000901    ....    DCD    150997249
        0x01007e5c:    06350835    5.5.    DCD    104138805
        0x01007e60:    09001219    ....    DCD    150999577
        0x01007e64:    02090001    ....    DCD    34144257
        0x01007e68:    03010900    ....    DCD    50399488
        0x01007e6c:    09010209    ....    DCD    151061001
        0x01007e70:    0209ac05    ....    DCD    34188293
        0x01007e74:    39020902    ...9    DCD    956434690
        0x01007e78:    09030209    ....    DCD    151192073
        0x01007e7c:    02094406    .D..    DCD    34161670
        0x01007e80:    09012804    .(..    DCD    151070724
        0x01007e84:    00090502    ....    DCD    591106
        0x01007e88:    01110302    ....    DCD    17892098
        0x01007e8c:    00010300    ....    DCD    66304
        0x01007e90:    03000100    ....    DCD    50331904
        0x01007e94:    09460036    6.F.    DCD    155582518
        0x01007e98:    000a0000    ....    DCD    655360
        0x01007e9c:    09030001    ....    DCD    151191553
        0x01007ea0:    03350100    ..5.    DCD    53805312
        0x01007ea4:    09011119    ....    DCD    151064857
        0x01007ea8:    000a0200    ....    DCD    655872
        0x01007eac:    09000000    ....    DCD    150994944
        0x01007eb0:    0c350400    ..5.    DCD    204801024
        0x01007eb4:    01190335    5...    DCD    18416437
        0x01007eb8:    19053500    .5..    DCD    419771648
        0x01007ebc:    01080300    ....    DCD    17302272
        0x01007ec0:    35060009    ...5    DCD    889585673
        0x01007ec4:    6e650909    ..en    DCD    1852115209
        0x01007ec8:    096a0009    ..j.    DCD    157941769
        0x01007ecc:    01090001    ....    DCD    17367041
        0x01007ed0:    530a2500    .%.S    DCD    1393173760
        0x01007ed4:    73205050    PP s    DCD    1931497552
        0x01007ed8:    6576616c    lave    DCD    1702257004
        0x01007edc:    01000000    ....    DCD    16777216
        0x01007ee0:    0255aa00    ..U.    DCD    39168512
        0x01007ee4:    af448e00    ..D.    DCD    2940505600
        0x01007ee8:    3555aa47    G.U5    DCD    894806599
        0x01007eec:    0147af02    ..G.    DCD    21475074
        0x01007ef0:    28000200    ...(    DCD    671089152
        0x01007ef4:    02180002    ....    DCD    35127298
        0x01007ef8:    28030200    ...(    DCD    671285760
        0x01007efc:    00030201    ....    DCD    197121
        0x01007f00:    022a0102    ..*.    DCD    36307202
        0x01007f04:    000400c8    ....    DCD    262344
        0x01007f08:    01280302    ..(.    DCD    19399426
        0x01007f0c:    0200050a    ....    DCD    33555722
        0x01007f10:    41142a00    .*.A    DCD    1091840512
        0x01007f14:    4c207473    st L    DCD    1277195379
        0x01007f18:    6f4d2045    E Mo    DCD    1867325509
        0x01007f1c:    20657375    use     DCD    543519605
        0x01007f20:    20202020            DCD    538976288
        0x01007f24:    06202020       .    DCD    102768672
        0x01007f28:    28030200    ...(    DCD    671285760
        0x01007f2c:    00070201    ....    DCD    459265
        0x01007f30:    082a0402    ..*.    DCD    136971266
        0x01007f34:    00060006    ....    DCD    393222
        0x01007f38:    012c0064    d.,.    DCD    19660900
        0x01007f3c:    03020008    ....    DCD    50462728
        0x01007f40:    09020128    (...    DCD    151126312
        0x01007f44:    2a020200    ...*    DCD    704774656
        0x01007f48:    000a0101    ....    DCD    655617
        0x01007f4c:    01280302    ..(.    DCD    19399426
        0x01007f50:    02000b08    ....    DCD    33557256
        0x01007f54:    00062a03    .*..    DCD    403971
        0x01007f58:    00000000    ....    DCD    0
        0x01007f5c:    02000c00    ....    DCD    33557504
        0x01007f60:    01022800    .(..    DCD    16918528
        0x01007f64:    02000d18    ....    DCD    33557784
        0x01007f68:    20012803    .(.     DCD    536946691
        0x01007f6c:    0502000e    ....    DCD    84017166
        0x01007f70:    000f002a    *...    DCD    983082
        0x01007f74:    02290202    ..).    DCD    36241922
        0x01007f78:    00100000    ....    DCD    1048576
        0x01007f7c:    02280002    ..(.    DCD    36175874
        0x01007f80:    00111804    ....    DCD    1120260
        0x01007f84:    01280302    ..(.    DCD    19399426
        0x01007f88:    02001216    ....    DCD    33559062
        0x01007f8c:    00012a07    .*..    DCD    76295
        0x01007f90:    02020013    ....    DCD    33685523
        0x01007f94:    00000229    )...    DCD    553
        0x01007f98:    00020014    ....    DCD    131092
        0x01007f9c:    180f0228    (...    DCD    403636776
        0x01007fa0:    03020015    ....    DCD    50462741
        0x01007fa4:    16120128    (...    DCD    370278696
        0x01007fa8:    2a190200    ...*    DCD    706281984
        0x01007fac:    00173801    .8..    DCD    1521665
        0x01007fb0:    02280002    ..(.    DCD    36175874
        0x01007fb4:    0018180a    ....    DCD    1579018
        0x01007fb8:    01280302    ..(.    DCD    19399426
        0x01007fbc:    02001902    ....    DCD    33560834
        0x01007fc0:    00032a23    #*..    DCD    207395
        0x01007fc4:    001a0000    ....    DCD    1703936
        0x01007fc8:    01280302    ..(.    DCD    19399426
        0x01007fcc:    02001b02    ....    DCD    33561346
        0x01007fd0:    46082a29    )*.F    DCD    1174940201
        0x01007fd4:    7467616c    lagt    DCD    1952932204
        0x01007fd8:    1c706972    rip.    DCD    477129074
        0x01007fdc:    28030200    ...(    DCD    671285760
        0x01007fe0:    001d0201    ....    DCD    1901057
        0x01007fe4:    062a2402    .$*.    DCD    103425026
        0x01007fe8:    68636979    yich    DCD    1751345529
        0x01007fec:    001e7069    ip..    DCD    1994857
        0x01007ff0:    01280302    ..(.    DCD    19399426
        0x01007ff4:    02001f02    ....    DCD    33562370
        0x01007ff8:    63042a25    %*.c    DCD    1661217317
        0x01007ffc:    20336d6f    om3     DCD    540241263
        0x01008000:    28030200    ...(    DCD    671285760
        0x01008004:    00210201    ..!.    DCD    2163201
        0x01008008:    032a2602    .&*.    DCD    53093890
        0x0100800c:    22302e31    1.0"    DCD    573582897
        0x01008010:    28030200    ...(    DCD    671285760
        0x01008014:    00230201    ..#.    DCD    2294273
        0x01008018:    032a2802    .(*.    DCD    53094402
        0x0100801c:    24302e31    1.0$    DCD    607137329
        0x01008020:    28030200    ...(    DCD    671285760
        0x01008024:    00250201    ..%.    DCD    2425345
        0x01008028:    032a2a02    .**.    DCD    53094914
        0x0100802c:    26302e31    1.0&    DCD    640691761
        0x01008030:    28030200    ...(    DCD    671285760
        0x01008034:    00270201    ..'.    DCD    2556417
        0x01008038:    042a2502    .%*.    DCD    69870850
        0x0100803c:    336d6f63    com3    DCD    862809955
        0x01008040:    00020028    (...    DCD    131112
        0x01008044:    e4551028    (.U.    DCD    3830779944
        0x01008048:    9fafd205    ....    DCD    2679099909
        0x0100804c:    4ae58fa9    ...J    DCD    1256558505
        0x01008050:    5343fe7d    }.CS    DCD    1396964989
        0x01008054:    00294953    SI).    DCD    2705747
        0x01008058:    01280302    ..(.    DCD    19399426
        0x0100805c:    10002a12    .*..    DCD    268446226
        0x01008060:    47249616    ..$G    DCD    1193580054
        0x01008064:    ba6123c6    .#a.    DCD    3126928326
        0x01008068:    1e4d4bd9    .KM.    DCD    508382169
        0x0100806c:    49535343    CSSI    DCD    1230197571
        0x01008070:    00000014    ....    DCD    20
        0x01008074:    00000000    ....    DCD    0
        0x01008078:    00000000    ....    DCD    0
        0x0100807c:    00000000    ....    DCD    0
        0x01008080:    00000000    ....    DCD    0
        0x01008084:    02002b00    .+..    DCD    33565440
        0x01008088:    00022902    .)..    DCD    141570
        0x0100808c:    02002c00    .,..    DCD    33565696
        0x01008090:    08012803    .(..    DCD    134293507
        0x01008094:    b310002d    -...    DCD    3004170285
        0x01008098:    be34729b    .r4.    DCD    3191108251
        0x0100809c:    f4a8d4ec    ....    DCD    4104705260
        0x010080a0:    43884143    CA.C    DCD    1133003075
        0x010080a4:    14495353    SSI.    DCD    340349779
        0x010080a8:    00000000    ....    DCD    0
        0x010080ac:    00000000    ....    DCD    0
        0x010080b0:    00000000    ....    DCD    0
        0x010080b4:    00000000    ....    DCD    0
        0x010080b8:    00000000    ....    DCD    0
        0x010080bc:    0302002e    ....    DCD    50462766
        0x010080c0:    2f040128    (../    DCD    788791592
        0x010080c4:    69fe1000    ...i    DCD    1778257920
        0x010080c8:    19569aca    ..V.    DCD    425106122
        0x010080cc:    4d02abf6    ...M    DCD    1292020726
        0x010080d0:    53436daa    .mCS    DCD    1396927914
        0x010080d4:    00144953    SI..    DCD    1329491
        0x010080d8:    00000000    ....    DCD    0
        0x010080dc:    00000000    ....    DCD    0
        0x010080e0:    00000000    ....    DCD    0
        0x010080e4:    00000000    ....    DCD    0
        0x010080e8:    30000000    ...0    DCD    805306368
        0x010080ec:    28030200    ...(    DCD    671285760
        0x010080f0:    00311a01    ..1.    DCD    3217921
        0x010080f4:    a6031810    ....    DCD    2785220624
        0x010080f8:    ecd85e28    (^..    DCD    3973602856
        0x010080fc:    a3481c91    ..H.    DCD    2739412113
        0x01008100:    535343ac    .CSS    DCD    1397965740
        0x01008104:    00001449    I...    DCD    5193
        0x01008108:    00000000    ....    DCD    0
        0x0100810c:    00000000    ....    DCD    0
        0x01008110:    00000000    ....    DCD    0
        0x01008114:    00000000    ....    DCD    0
        0x01008118:    00320000    ..2.    DCD    3276800
        0x0100811c:    02290202    ..).    DCD    36241922
        0x01008120:    00000000    ....    DCD    0
        0x01008124:    000155aa    .U..    DCD    87466
        0x01008128:    aa024000    .@..    DCD    2852274176
        0x0100812c:    10000255    U...    DCD    268436053
        0x01008130:    aa022040    @ ..    DCD    2852266048
        0x01008134:    14000155    U...    DCD    335544661
        0x01008138:    55aa0440    @..U    DCD    1437205568
        0x0100813c:    40170001    ...@    DCD    1075249153
        0x01008140:    0155aa09    ..U.    DCD    22391305
        0x01008144:    68402000    . @h    DCD    1749032960
        0x01008148:    000255aa    .U..    DCD    153002
        0x0100814c:    02444027    '@D.    DCD    38027303
        0x01008150:    000155aa    .U..    DCD    87466
        0x01008154:    aa04402a    *@..    DCD    2852405290
        0x01008158:    33000155    U..3    DCD    855638357
        0x0100815c:    55aa0240    @..U    DCD    1437205056
        0x01008160:    41760007    ..vA    DCD    1098252295
        0x01008164:    0a30840f    ..0.    DCD    170951695
        0x01008168:    aa32b20b    ..2.    DCD    2855449099
        0x0100816c:    57000255    U..W    DCD    1459618389
        0x01008170:    aa0b8b41    A...    DCD    2852883265
        0x01008174:    a1000855    U...    DCD    2701133909
        0x01008178:    00000000    ....    DCD    0
        0x0100817c:    00000000    ....    DCD    0
        0x01008180:    0255aa00    ..U.    DCD    39168512
        0x01008184:    0240bd00    ..@.    DCD    37797120
        0x01008188:    0855aa24    $.U.    DCD    139831844
        0x0100818c:    4040ad00    ..@@    DCD    1077980416
        0x01008190:    32020000    ...2    DCD    838991872
        0x01008194:    aa020000    ....    DCD    2852257792
        0x01008198:    bb000255    U...    DCD    3137339989
        0x0100819c:    aa002040    @ ..    DCD    2852134976
        0x010081a0:    b7000455    U...    DCD    3070231637
        0x010081a4:    00002040    @ ..    DCD    8256
        0x010081a8:    0455aa20     .U.    DCD    72722976
        0x010081ac:    8040bf00    ..@.    DCD    2151726848
        0x010081b0:    aa100004    ....    DCD    2853175300
        0x010081b4:    e2000555    U...    DCD    3791652181
        0x010081b8:    050e0844    D...    DCD    84805700
        0x010081bc:    55aa0004    ...U    DCD    1437204484
        0x010081c0:    42020002    ...B    DCD    1107427330
        0x010081c4:    55aa1f30    0..U    DCD    1437212464
        0x010081c8:    42100001    ...B    DCD    1108344833
        0x010081cc:    0155aa20     .U.    DCD    22391328
        0x010081d0:    0141e000    ..A.    DCD    21094400
        0x010081d4:    000f55aa    .U..    DCD    1004970
        0x010081d8:    ba4b4b16    .KK.    DCD    3125496598
        0x010081dc:    e056d055    U.V.    DCD    3763785813
        0x010081e0:    6c588857    W.Xl    DCD    1817741399
        0x010081e4:    ff071059    Y...    DCD    4278653017
        0x010081e8:    0255aaff    ..U.    DCD    39168767
        0x010081ec:    1640c300    ..@.    DCD    373342976
        0x010081f0:    00137e4b    K~..    DCD    1277515
    .constdata
    ble_service_uuid_lsps
        0x010081f4:    05e45510    .U..    DCD    98850064
        0x010081f8:    a99fafd2    ....    DCD    2845814738
        0x010081fc:    7d4ae58f    ..J}    DCD    2102060431
        0x01008200:    535343fe    .CSS    DCD    1397965822
        0x01008204:    49          I       DCB    73
    ble_Characteristic_uuid_lsps_tx
        0x01008205:    101016      ...     DCB    16,16,22
        0x01008208:    c6472496    .$G.    DCD    3326551190
        0x0100820c:    d9ba6123    #a..    DCD    3652870435
        0x01008210:    431e4d4b    KM.C    DCD    1126059339
        0x01008214:    01495353    SSI.    DCD    21582675
        0x01008218:    00          .       DCB    0
    ble_Characteristic_uuid_lsps_rx
        0x01008219:    0c10b3      ...     DCB    12,16,179
        0x0100821c:    be34729b    .r4.    DCD    3191108251
        0x01008220:    f4a8d4ec    ....    DCD    4104705260
        0x01008224:    43884143    CA.C    DCD    1133003075
        0x01008228:    01495353    SSI.    DCD    21582675
        0x0100822c:    00          .       DCB    0
    ble_Characteristic_uuid_flow_ctrl
        0x0100822d:    181018      ...     DCB    24,16,24
        0x01008230:    5e28a603    ..(^    DCD    1579722243
        0x01008234:    1c91ecd8    ....    DCD    479325400
        0x01008238:    43aca348    H..C    DCD    1135387464
        0x0100823c:    01495353    SSI.    DCD    21582675
        0x01008240:    00          .       DCB    0
    bt_cod
        0x01008241:    100680      ...     DCB    16,6,128
    bt_bleadv
        0x01008244:    00594c08    .LY.    DCD    5852168
        0x01008248:    22330000    ..3"    DCD    573767680
        0x0100824c:    00000010    ....    DCD    16
        0x01008250:    00000000    ....    DCD    0
        0x01008254:    00000000    ....    DCD    0
        0x01008258:    00000000    ....    DCD    0
        0x0100825c:    00000000    ....    DCD    0
        0x01008260:    00000000    ....    DCD    0
        0x01008264:    3031504c    LP10    DCD    808538188
        0x01008268:    00005330    0S..    DCD    21296
        0x0100826c:    00000000    ....    DCD    0
        0x01008270:    0000        ..      DCW    0
        0x01008272:    00          .       DCB    0
    .constdata
    print_dots_calculate_table
        0x01008273:    00          .       DCB    0
        0x01008274:    01020101    ....    DCD    16908545
        0x01008278:    01030202    ....    DCD    16974338
        0x0100827c:    02030202    ....    DCD    33751554
        0x01008280:    01040303    ....    DCD    17040131
        0x01008284:    02030202    ....    DCD    33751554
        0x01008288:    02040303    ....    DCD    33817347
        0x0100828c:    03040303    ....    DCD    50594563
        0x01008290:    01050404    ....    DCD    17105924
        0x01008294:    02030202    ....    DCD    33751554
        0x01008298:    02040303    ....    DCD    33817347
        0x0100829c:    03040303    ....    DCD    50594563
        0x010082a0:    02050404    ....    DCD    33883140
        0x010082a4:    03040303    ....    DCD    50594563
        0x010082a8:    03050404    ....    DCD    50660356
        0x010082ac:    04050404    ....    DCD    67437572
        0x010082b0:    01060505    ....    DCD    17171717
        0x010082b4:    02030202    ....    DCD    33751554
        0x010082b8:    02040303    ....    DCD    33817347
        0x010082bc:    03040303    ....    DCD    50594563
        0x010082c0:    02050404    ....    DCD    33883140
        0x010082c4:    03040303    ....    DCD    50594563
        0x010082c8:    03050404    ....    DCD    50660356
        0x010082cc:    04050404    ....    DCD    67437572
        0x010082d0:    02060505    ....    DCD    33948933
        0x010082d4:    03040303    ....    DCD    50594563
        0x010082d8:    03050404    ....    DCD    50660356
        0x010082dc:    04050404    ....    DCD    67437572
        0x010082e0:    03060505    ....    DCD    50726149
        0x010082e4:    04050404    ....    DCD    67437572
        0x010082e8:    04060505    ....    DCD    67503365
        0x010082ec:    05060505    ....    DCD    84280581
        0x010082f0:    01070606    ....    DCD    17237510
        0x010082f4:    02030202    ....    DCD    33751554
        0x010082f8:    02040303    ....    DCD    33817347
        0x010082fc:    03040303    ....    DCD    50594563
        0x01008300:    02050404    ....    DCD    33883140
        0x01008304:    03040303    ....    DCD    50594563
        0x01008308:    03050404    ....    DCD    50660356
        0x0100830c:    04050404    ....    DCD    67437572
        0x01008310:    02060505    ....    DCD    33948933
        0x01008314:    03040303    ....    DCD    50594563
        0x01008318:    03050404    ....    DCD    50660356
        0x0100831c:    04050404    ....    DCD    67437572
        0x01008320:    03060505    ....    DCD    50726149
        0x01008324:    04050404    ....    DCD    67437572
        0x01008328:    04060505    ....    DCD    67503365
        0x0100832c:    05060505    ....    DCD    84280581
        0x01008330:    02070606    ....    DCD    34014726
        0x01008334:    03040303    ....    DCD    50594563
        0x01008338:    03050404    ....    DCD    50660356
        0x0100833c:    04050404    ....    DCD    67437572
        0x01008340:    03060505    ....    DCD    50726149
        0x01008344:    04050404    ....    DCD    67437572
        0x01008348:    04060505    ....    DCD    67503365
        0x0100834c:    05060505    ....    DCD    84280581
        0x01008350:    03070606    ....    DCD    50791942
        0x01008354:    04050404    ....    DCD    67437572
        0x01008358:    04060505    ....    DCD    67503365
        0x0100835c:    05060505    ....    DCD    84280581
        0x01008360:    04070606    ....    DCD    67569158
        0x01008364:    05060505    ....    DCD    84280581
        0x01008368:    05070606    ....    DCD    84346374
        0x0100836c:    06070606    ....    DCD    101123590
        0x01008370:    00080707    ....    DCD    526087
    .constdata
    motor_spwm_table
        0x01008374:    01340124    $.4.    DCD    20185380
        0x01008378:    01530144    D.S.    DCD    22217028
        0x0100837c:    01610159    Y.a.    DCD    23134553
        0x01008380:    0177016f    o.w.    DCD    24576367
        0x01008384:    0189017c    |...    DCD    25756028
        0x01008388:    01a4019f    ....    DCD    27525535
        0x0100838c:    01ae01a9    ....    DCD    28180905
        0x01008390:    01b701b3    ....    DCD    28770739
        0x01008394:    01bf01bb    ....    DCD    29295035
        0x01008398:    000001c3    ....    DCD    451
    .conststring
        0x0100839c:    33323130    0123    DCD    858927408
        0x010083a0:    37363534    4567    DCD    926299444
        0x010083a4:    42413938    89AB    DCD    1111570744
        0x010083a8:    46454443    CDEF    DCD    1178944579
        0x010083ac:    00000000    ....    DCD    0
        0x010083b0:    33323130    0123    DCD    858927408
        0x010083b4:    37363534    4567    DCD    926299444
        0x010083b8:    62613938    89ab    DCD    1650538808
        0x010083bc:    66656463    cdef    DCD    1717920867
        0x010083c0:    00000000    ....    DCD    0
    Region$$Table$$Base
        0x010083c4:    010083e4    ....    DCD    16810980
        0x010083c8:    00020000    ....    DCD    131072
        0x010083cc:    0000006c    l...    DCD    108
        0x010083d0:    01006c5a    Zl..    DCD    16804954
        0x010083d4:    01008450    P...    DCD    16811088
        0x010083d8:    0002006c    l...    DCD    131180
        0x010083dc:    0000353c    <5..    DCD    13628
        0x010083e0:    01006c6a    jl..    DCD    16804970
    Region$$Table$$Limit

** Section #4 'RW_IRAM2' (SHT_PROGBITS) [SHF_ALLOC + SHF_WRITE]
    Size   : 108 bytes (alignment 4)
    Address: 0x00020000


** Section #5 'RW_IRAM2' (SHT_NOBITS) [SHF_ALLOC + SHF_WRITE]
    Size   : 13628 bytes (alignment 4)
    Address: 0x0002006c


** Section #6 '.debug_abbrev' (SHT_PROGBITS)
    Size   : 1476 bytes


** Section #7 '.debug_frame' (SHT_PROGBITS)
    Size   : 8028 bytes


** Section #8 '.debug_info' (SHT_PROGBITS)
    Size   : 50724 bytes


** Section #9 '.debug_line' (SHT_PROGBITS)
    Size   : 22704 bytes


** Section #10 '.debug_loc' (SHT_PROGBITS)
    Size   : 18252 bytes


** Section #11 '.debug_macinfo' (SHT_PROGBITS)
    Size   : 124764 bytes


** Section #12 '.debug_pubnames' (SHT_PROGBITS)
    Size   : 5394 bytes


** Section #13 '.symtab' (SHT_SYMTAB)
    Size   : 13088 bytes (alignment 4)
    String table #14 '.strtab'
    Last local symbol no. 403


** Section #14 '.strtab' (SHT_STRTAB)
    Size   : 9136 bytes


** Section #15 '.note' (SHT_NOTE)
    Size   : 36 bytes (alignment 4)


** Section #16 '.comment' (SHT_PROGBITS)
    Size   : 18936 bytes


** Section #17 '.shstrtab' (SHT_STRTAB)
    Size   : 172 bytes


address     size       variable name                            type
0x00023560  0x48       testdata                                 array[72] of uint8_t

address     size       variable name                            type
0x00020064  0x2        testline                                 uint16_t

address     size       variable name                            type
0x00023550  0x10       middle_protocol                          middle_protocol_struct
0x00023550  0x1        middle_protocol.state                    uint8_t
0x00023551  0x1        middle_protocol.flowctrl                 uint8_t
0x00023552  0x2        middle_protocol.write                    uint16_t
0x00023554  0x2      * middle_protocol.read                     uint16_t
0x00023558  0x4        middle_protocol.buff                     pointer to uint8_t
0x0002355c  0x4        middle_protocol.timeout                  uint32_t

address     size       variable name                            type
0x00022d50  0x800      middle_protocol_buff                     array[2048] of uint8_t

address     size       variable name                            type
0x000213d0  0x1800     middle_mmu_base                          array[6144] of uint8_t

address     size       variable name                            type
0x00022bd0  0x180      middle_mmu_mapbase                       array[192] of uint16_t

address     size       variable name                            type
0x00021388  0x48       middle_print_line_data                   array[72] of uint8_t

address     size       variable name                            type
0x00020060  0x4        middle_print_list                        pointer to middle_print_list_struct

address     size       variable name                            type
0x00021364  0x24       middle_print_mgr                         middle_print_manager_struct
0x00021364  0x1        middle_print_mgr.print_sta               uint8_t
0x00021365  0x1        middle_print_mgr.motor_sta               uint8_t
0x00021366  0x1      * middle_print_mgr.motor_step              uint8_t
0x00021368  0x2        middle_print_mgr.slice_number            uint16_t
0x0002136a  0x2        middle_print_mgr.slice_total             uint16_t
0x0002136c  0x2      * middle_print_mgr.slice_bits              uint16_t
0x00021370  0x4        middle_print_mgr.motor_step_move         uint32_t
0x00021374  0x4        middle_print_mgr.motor_step_total        uint32_t
0x00021378  0x4        middle_print_mgr.motor_step_target       uint32_t
0x0002137c  0x4        middle_print_mgr.slice_heat_time         uint32_t
0x00021380  0x4        middle_print_mgr.motor_speed_time_last   uint32_t
0x00021384  0x4        middle_print_mgr.motor_speed_time        uint32_t

address     size       variable name                            type
0x01008374  0x26       motor_spwm_table                         array[19] of const uint16_t

address     size       variable name                            type
0x00021180  0x1e4      mid_printlistm                           middle_printlist_manager_struct
0x00021180  0x2        mid_printlistm.list_put_index            uint16_t
0x00021182  0x2        mid_printlistm.list_get_index            uint16_t
0x00021184  0x1e0      mid_printlistm.list                      array[10] of middle_print_list_struct

address     size       variable name                            type
0x01008273  0x100      print_dots_calculate_table               array[256] of const uint8_t

address     size       variable name                            type
0x0100822d  0x14       ble_Characteristic_uuid_flow_ctrl        array[20] of const uint8_t

address     size       variable name                            type
0x01008219  0x14       ble_Characteristic_uuid_lsps_rx          array[20] of const uint8_t

address     size       variable name                            type
0x01008205  0x14       ble_Characteristic_uuid_lsps_tx          array[20] of const uint8_t

address     size       variable name                            type
0x0002005c  0x2        ble_send_handle                          uint16_t

address     size       variable name                            type
0x010081f4  0x11       ble_service_uuid_lsps                    array[17] of const uint8_t

address     size       variable name                            type
0x01008244  0x1f       bt_bleadv                                array[31] of const uint8_t

address     size       variable name                            type
0x01008241  0x3        bt_cod                                   array[3] of const uint8_t

address     size       variable name                            type
0x00020054  0x4        hal_button_clicked_timeout               int

address     size       variable name                            type
0x00020058  0x4        hal_button_clicked_value                 int

address     size       variable name                            type
0x00020050  0x4        hal_time_period_exec                     hal_time_period_exec_func

address     size       variable name                            type
0x0002004c  0x4        hal_systick_time_count                   volatile uint32_t

address     size       variable name                            type
0x00020048  0x4        value_rtc_1s                             uint32_t

address     size       variable name                            type
0x0002116c  0x14       BluetoothBuf                             BT_BufTypeDef
0x0002116c  0x4        BluetoothBuf.pBuf                        pointer to uint8_t
0x00021170  0x4        BluetoothBuf.BufSize                     int
0x00021174  0x4        BluetoothBuf.count                       int
0x00021178  0x4        BluetoothBuf.ReadIndex                   int
0x0002117c  0x4        BluetoothBuf.WriteIndex                  int

address     size       variable name                            type
0x00020034  0x5        CmdRepData                               array[5] of uint8_t

address     size       variable name                            type
0x0002002c  0x8        HCI_CMD_BIT_FLAG                         array[2] of uint32_t

address     size       variable name                            type
0x0002003c  0x4        PacketNum                                int

address     size       variable name                            type
0x00020028  0x4        StartTick                                tick

address     size       variable name                            type
0x00020040  0x7        hci_bt                                   HCI_TypeDef
0x00020040  0x1        hci_bt.type                              uint8_t
0x00020041  0x1        hci_bt.opcode                            uint8_t
0x00020042  0x1        hci_bt.DataLen                           uint8_t
0x00020043  0x4        hci_bt.p_data                            pointer to uint8_t

address     size       variable name                            type
0x0002096c  0x800      rcvbuf                                   array[2048] of uint8_t

address     size       variable name                            type
0x0002001c  0x4        IpcRx                                    pointer to IPC_TypeDef

address     size       variable name                            type
0x00020020  0x4        IpcTx                                    pointer to IPC_TypeDef

address     size       variable name                            type
0x00020024  0x1        ipc_inited                               Boolean

address     size       variable name                            type
0x0002086c  0x100      ipcrecbuf                                array[256] of uint8_t

address     size       variable name                            type
0x010077cb  0xa28      bt_code                                  array[2600] of const unsigned char

address     size       variable name                            type
0x00020018  0x4        SystickCount                             tick

address     size       variable name                            type
0x0002006c  0x400      uart0_DMA_buf                            array[1024] of uint8_t

address     size       variable name                            type
0x0002046c  0x400      uart1_DMA_buf                            array[1024] of uint8_t

address     size       variable name                            type
0x00020000  0x6        ExtiEn                                   array[3] of uint16_t

address     size       variable name                            type
0x0002000c  0x6        ExtiRisingFallingTrig                    array[3] of uint16_t

address     size       variable name                            type
0x00020012  0x6        ExtiStatus                               array[3] of uint16_t

address     size       variable name                            type
0x00020006  0x6        ExtiTrig                                 array[3] of uint16_t

address     size       variable name                            type
0x0100753c  0x4        g_pcHex1                                 const pointer to const int8_t

address     size       variable name                            type
0x01007540  0x4        g_pcHex2                                 const pointer to const int8_t

