
========================================================================

** ELF Header Information

    File Name: .\Objects\thermal_printer.axf

    Machine class: ELFCLASS32 (32-bit)
    Data encoding: ELFDATA2LSB (Little endian)
    Header version: EV_CURRENT (Current version)
    Operating System ABI: none
    ABI Version: 0
    File Type: ET_EXEC (Executable) (2)
    Machine: EM_ARM (ARM)

    Image Entry point: 0x01000401
    Flags: EF_ARM_HASENTRY + EF_ARM_ABI_FLOAT_SOFT (0x05000202)

    ARM ELF revision: 5 (ABI version 2)

    Conforms to Soft float procedure-call standard

    Built with
    Component: ARM Compiler 5.06 update 6 (build 750) Tool: armasm [4d35ec]
    Component: ARM Compiler 5.06 update 6 (build 750) Tool: armlink [4d35ed]

    Header size: 52 bytes (0x34)
    Program header entry size: 32 bytes (0x20)
    Section header entry size: 40 bytes (0x28)

    Program header entries: 3
    Section header entries: 18

    Program header offset: 238652 (0x0003a43c)
    Section header offset: 238748 (0x0003a49c)

    Section header string table index: 17

========================================================================

** Program header #0 (PT_LOAD) [PF_X + PF_R]
    Size : 212 bytes
    Virtual address: 0x00000000 (Alignment 16)


====================================

** Program header #1 (PT_LOAD) [PF_X + PF_R]
    Size : 312 bytes
    Virtual address: 0x01000200 (Alignment 16)


====================================

** Program header #2 (PT_LOAD) [PF_X + PF_W + PF_R + PF_ARM_ENTRY]
    Size : 28312 bytes (19072 bytes in file)
    Virtual address: 0x01000400 (Alignment 4)


========================================================================

** Section #1 'ER_IROM1' (SHT_PROGBITS) [SHF_ALLOC + SHF_EXECINSTR]
    Size   : 212 bytes (alignment 16)
    Address: 0x00000000

    $d.realdata
    RESET
    __Vectors
        0x00000000:    00030000    ....    DCD    196608
        0x00000004:    000000c1    ....    DCD    193
        0x00000008:    000000cf    ....    DCD    207
        0x0000000c:    01000205    ....    DCD    16777733
        0x00000010:    00000000    ....    DCD    0
        0x00000014:    00000000    ....    DCD    0
        0x00000018:    00000000    ....    DCD    0
        0x0000001c:    00000000    ....    DCD    0
        0x00000020:    00000000    ....    DCD    0
        0x00000024:    00000000    ....    DCD    0
        0x00000028:    00000000    ....    DCD    0
        0x0000002c:    00000000    ....    DCD    0
        0x00000030:    00000000    ....    DCD    0
        0x00000034:    00000000    ....    DCD    0
        0x00000038:    00000000    ....    DCD    0
        0x0000003c:    01000217    ....    DCD    16777751
        0x00000040:    0100021d    ....    DCD    16777757
        0x00000044:    01000221    !...    DCD    16777761
        0x00000048:    01000225    %...    DCD    16777765
        0x0000004c:    01000229    )...    DCD    16777769
        0x00000050:    0100022d    -...    DCD    16777773
        0x00000054:    01000231    1...    DCD    16777777
        0x00000058:    01000235    5...    DCD    16777781
        0x0000005c:    01000239    9...    DCD    16777785
        0x00000060:    0100023d    =...    DCD    16777789
        0x00000064:    01000241    A...    DCD    16777793
        0x00000068:    01000245    E...    DCD    16777797
        0x0000006c:    01000249    I...    DCD    16777801
        0x00000070:    0100024d    M...    DCD    16777805
        0x00000074:    01000251    Q...    DCD    16777809
        0x00000078:    01000255    U...    DCD    16777813
        0x0000007c:    01000259    Y...    DCD    16777817
        0x00000080:    0100025d    ]...    DCD    16777821
        0x00000084:    01000261    a...    DCD    16777825
        0x00000088:    01000265    e...    DCD    16777829
        0x0000008c:    01000269    i...    DCD    16777833
        0x00000090:    0100026d    m...    DCD    16777837
        0x00000094:    01000271    q...    DCD    16777841
        0x00000098:    01000275    u...    DCD    16777845
        0x0000009c:    01000279    y...    DCD    16777849
        0x000000a0:    0100027d    }...    DCD    16777853
        0x000000a4:    01000281    ....    DCD    16777857
        0x000000a8:    01000285    ....    DCD    16777861
        0x000000ac:    01000289    ....    DCD    16777865
        0x000000b0:    0100028d    ....    DCD    16777869
        0x000000b4:    01000291    ....    DCD    16777873
        0x000000b8:    01000295    ....    DCD    16777877
        0x000000bc:    01000299    ....    DCD    16777881
    $t
    .text
    __Vectors_End
    reset_handler
        0x000000c0:    4803        .H      LDR      r0,[pc,#12] ; [0xd0] = 0x1000201
        0x000000c2:    4700        .G      BX       r0
        0x000000c4:    bf00        ..      NOP      
    delay
        0x000000c6:    3801        .8      SUBS     r0,#1
        0x000000c8:    d1fd        ..      BNE      delay ; 0xc6
        0x000000ca:    bf00        ..      NOP      
        0x000000cc:    4770        pG      BX       lr
    nmi_handler
        0x000000ce:    e7fe        ..      B        nmi_handler ; 0xce
    $d
        0x000000d0:    01000201    ....    DCD    16777729

** Section #2 'ER_IROM3' (SHT_PROGBITS) [SHF_ALLOC + SHF_EXECINSTR]
    Size   : 312 bytes (alignment 16)
    Address: 0x01000200

    $t
    .flash_start
    Reset_Handler
        0x01000200:    484b        KH      LDR      r0,[pc,#300] ; [0x1000330] = 0x1000401
        0x01000202:    4700        .G      BX       r0
    hard_fault_handler
        0x01000204:    f000f853    ..S.    BL       HARD_FAULT_IRQHandler ; 0x10002ae
        0x01000208:    e04b        K.      B        isr_ret ; 0x10002a2
    svc_handler
        0x0100020a:    f000f851    ..Q.    BL       SVC_IRQHandler ; 0x10002b0
        0x0100020e:    e048        H.      B        isr_ret ; 0x10002a2
    pendsv_handler
        0x01000210:    f000f84f    ..O.    BL       PENDSV_IRQHandler ; 0x10002b2
        0x01000214:    e045        E.      B        isr_ret ; 0x10002a2
    systick
        0x01000216:    f002fa08    ....    BL       SYSTICK_IRQHandler ; 0x100262a
        0x0100021a:    e042        B.      B        isr_ret ; 0x10002a2
    irq0
        0x0100021c:    2000        .       MOVS     r0,#0
        0x0100021e:    e03d        =.      B        isr ; 0x100029c
    irq1
        0x01000220:    2004        .       MOVS     r0,#4
        0x01000222:    e03b        ;.      B        isr ; 0x100029c
    irq2
        0x01000224:    2008        .       MOVS     r0,#8
        0x01000226:    e039        9.      B        isr ; 0x100029c
    irq3
        0x01000228:    200c        .       MOVS     r0,#0xc
        0x0100022a:    e037        7.      B        isr ; 0x100029c
    irq4
        0x0100022c:    2010        .       MOVS     r0,#0x10
        0x0100022e:    e035        5.      B        isr ; 0x100029c
    irq5
        0x01000230:    2014        .       MOVS     r0,#0x14
        0x01000232:    e033        3.      B        isr ; 0x100029c
    irq6
        0x01000234:    2018        .       MOVS     r0,#0x18
        0x01000236:    e031        1.      B        isr ; 0x100029c
    irq7
        0x01000238:    201c        .       MOVS     r0,#0x1c
        0x0100023a:    e02f        /.      B        isr ; 0x100029c
    irq8
        0x0100023c:    2020                MOVS     r0,#0x20
        0x0100023e:    e02d        -.      B        isr ; 0x100029c
    irq9
        0x01000240:    2024        $       MOVS     r0,#0x24
        0x01000242:    e02b        +.      B        isr ; 0x100029c
    irq10
        0x01000244:    2028        (       MOVS     r0,#0x28
        0x01000246:    e029        ).      B        isr ; 0x100029c
    irq11
        0x01000248:    202c        ,       MOVS     r0,#0x2c
        0x0100024a:    e027        '.      B        isr ; 0x100029c
    irq12
        0x0100024c:    2030        0       MOVS     r0,#0x30
        0x0100024e:    e025        %.      B        isr ; 0x100029c
    irq13
        0x01000250:    2034        4       MOVS     r0,#0x34
        0x01000252:    e023        #.      B        isr ; 0x100029c
    irq14
        0x01000254:    2038        8       MOVS     r0,#0x38
        0x01000256:    e021        !.      B        isr ; 0x100029c
    irq15
        0x01000258:    203c        <       MOVS     r0,#0x3c
        0x0100025a:    e01f        ..      B        isr ; 0x100029c
    irq16
        0x0100025c:    2040        @       MOVS     r0,#0x40
        0x0100025e:    e01d        ..      B        isr ; 0x100029c
    irq17
        0x01000260:    2044        D       MOVS     r0,#0x44
        0x01000262:    e01b        ..      B        isr ; 0x100029c
    irq18
        0x01000264:    2048        H       MOVS     r0,#0x48
        0x01000266:    e019        ..      B        isr ; 0x100029c
    irq19
        0x01000268:    204c        L       MOVS     r0,#0x4c
        0x0100026a:    e017        ..      B        isr ; 0x100029c
    irq20
        0x0100026c:    2050        P       MOVS     r0,#0x50
        0x0100026e:    e015        ..      B        isr ; 0x100029c
    irq21
        0x01000270:    2054        T       MOVS     r0,#0x54
        0x01000272:    e013        ..      B        isr ; 0x100029c
    irq22
        0x01000274:    2058        X       MOVS     r0,#0x58
        0x01000276:    e011        ..      B        isr ; 0x100029c
    irq23
        0x01000278:    205c        \       MOVS     r0,#0x5c
        0x0100027a:    e00f        ..      B        isr ; 0x100029c
    irq24
        0x0100027c:    2060        `       MOVS     r0,#0x60
        0x0100027e:    e00d        ..      B        isr ; 0x100029c
    irq25
        0x01000280:    2064        d       MOVS     r0,#0x64
        0x01000282:    e00b        ..      B        isr ; 0x100029c
    irq26
        0x01000284:    2068        h       MOVS     r0,#0x68
        0x01000286:    e009        ..      B        isr ; 0x100029c
    irq27
        0x01000288:    206c        l       MOVS     r0,#0x6c
        0x0100028a:    e007        ..      B        isr ; 0x100029c
    irq28
        0x0100028c:    2070        p       MOVS     r0,#0x70
        0x0100028e:    e005        ..      B        isr ; 0x100029c
    irq29
        0x01000290:    2074        t       MOVS     r0,#0x74
        0x01000292:    e003        ..      B        isr ; 0x100029c
    irq30
        0x01000294:    2078        x       MOVS     r0,#0x78
        0x01000296:    e001        ..      B        isr ; 0x100029c
    irq31
        0x01000298:    207c        |       MOVS     r0,#0x7c
        0x0100029a:    46c0        .F      MOV      r8,r8
    isr
        0x0100029c:    4925        %I      LDR      r1,[pc,#148] ; [0x1000334] = 0x10002c4
        0x0100029e:    5840        @X      LDR      r0,[r0,r1]
        0x010002a0:    4700        .G      BX       r0
    isr_ret
        0x010002a2:    2000        .       MOVS     r0,#0
        0x010002a4:    3807        .8      SUBS     r0,#7
        0x010002a6:    4686        .F      MOV      lr,r0
        0x010002a8:    4770        pG      BX       lr
    $d
        0x010002aa:    0000        ..      DCW    0
    $t
    NMI_IRQHandler
        0x010002ac:    e7fe        ..      B        NMI_IRQHandler ; 0x10002ac
    HARD_FAULT_IRQHandler
        0x010002ae:    e7fe        ..      B        HARD_FAULT_IRQHandler ; 0x10002ae
    SVC_IRQHandler
        0x010002b0:    e7fe        ..      B        SVC_IRQHandler ; 0x10002b0
    PENDSV_IRQHandler
        0x010002b2:    e7fe        ..      B        PENDSV_IRQHandler ; 0x10002b2
        0x010002b4:    e7fe        ..      B        0x10002b4 ; PENDSV_IRQHandler + 2
    EXTI0_IRQHandler
        0x010002b6:    e7fe        ..      B        EXTI0_IRQHandler ; 0x10002b6
    EXTI1_IRQHandler
        0x010002b8:    e7fe        ..      B        EXTI1_IRQHandler ; 0x10002b8
    EXTI2_IRQHandler
        0x010002ba:    e7fe        ..      B        EXTI2_IRQHandler ; 0x10002ba
    EXTI3_IRQHandler
        0x010002bc:    e7fe        ..      B        EXTI3_IRQHandler ; 0x10002bc
    EXTI4_IRQHandler
        0x010002be:    e7fe        ..      B        EXTI4_IRQHandler ; 0x10002be
    EXTI5_IRQHandler
        0x010002c0:    e7fe        ..      B        EXTI5_IRQHandler ; 0x10002c0
    BT_IRQHandler
    IIC_IRQHandler
    MEMCP_IRQHandler
    MSR_IRQHandler
    QSPI_IRQHandler
    RSA_IRQHandler
    SCI0_IRQHandler
    SCI1_IRQHandler
    SEC_IRQHandler
    SM4_IRQHandler
    SPI0_IRQHandler
    SPI1_IRQHandler
    TIMER0_IRQHandler
    TIMER1_IRQHandler
    TIMER2_IRQHandler
    TIMER3_IRQHandler
    TIMER7_IRQHandler
    TIMER8_IRQHandler
    TRNG_IRQHandler
    UART0_IRQHandler
    UART1_IRQHandler
    USB_IRQHandler
    WDT_IRQHandler
        0x010002c2:    e7fe        ..      B        BT_IRQHandler ; 0x10002c2
    $d
    isr_table
        0x010002c4:    010002c3    ....    DCD    16777923
        0x010002c8:    010002c3    ....    DCD    16777923
        0x010002cc:    010002c3    ....    DCD    16777923
        0x010002d0:    010002c3    ....    DCD    16777923
        0x010002d4:    010002c3    ....    DCD    16777923
        0x010002d8:    010002c3    ....    DCD    16777923
        0x010002dc:    010002c3    ....    DCD    16777923
        0x010002e0:    010002c3    ....    DCD    16777923
        0x010002e4:    010002c3    ....    DCD    16777923
        0x010002e8:    010002c3    ....    DCD    16777923
        0x010002ec:    010002c3    ....    DCD    16777923
        0x010002f0:    010002c3    ....    DCD    16777923
        0x010002f4:    01000e67    g...    DCD    16780903
        0x010002f8:    010002c3    ....    DCD    16777923
        0x010002fc:    010002c3    ....    DCD    16777923
        0x01000300:    010002c3    ....    DCD    16777923
        0x01000304:    010002c3    ....    DCD    16777923
        0x01000308:    01002557    W%..    DCD    16786775
        0x0100030c:    0100255f    _%..    DCD    16786783
        0x01000310:    0100269d    .&..    DCD    16787101
        0x01000314:    010002c3    ....    DCD    16777923
        0x01000318:    010002c3    ....    DCD    16777923
        0x0100031c:    010002c3    ....    DCD    16777923
        0x01000320:    010002c3    ....    DCD    16777923
        0x01000324:    010002c3    ....    DCD    16777923
        0x01000328:    010002c3    ....    DCD    16777923
        0x0100032c:    010002c3    ....    DCD    16777923
        0x01000330:    01000401    ....    DCD    16778241
        0x01000334:    010002c4    ....    DCD    16777924

** Section #3 'ER_IROM4' (SHT_PROGBITS) [SHF_ALLOC + SHF_EXECINSTR]
    Size   : 19000 bytes (alignment 4)
    Address: 0x01000400

    $t
    .ARM.Collect$$$$00000000
    .ARM.Collect$$$$00000001
    __main
    _main_stk
        0x01000400:    4803        .H      LDR      r0,__lit__00000000 ; [0x1000410] = 0x30000
        0x01000402:    4685        .F      MOV      sp,r0
    .ARM.Collect$$$$00000004
    _main_scatterload
        0x01000404:    f003f89c    ....    BL       __scatterload ; 0x1003540
    .ARM.Collect$$$$00000008
    .ARM.Collect$$$$0000000A
    .ARM.Collect$$$$0000000B
    __main_after_scatterload
    _main_clock
    _main_cpp_init
    _main_init
        0x01000408:    4800        .H      LDR      r0,[pc,#0] ; [0x100040c] = 0x1002fe3
        0x0100040a:    4700        .G      BX       r0
    $d
        0x0100040c:    01002fe3    ./..    DCD    16789475
    .ARM.Collect$$$$00002712
    __lit__00000000
    .ARM.Collect$$$$0000000D
    .ARM.Collect$$$$0000000F
    __rt_final_cpp
    __rt_final_exit
        0x01000410:    00030000    ....    DCD    196608
    $t
    .text
    NVIC_SetPriority
        0x01000414:    0783        ..      LSLS     r3,r0,#30
        0x01000416:    22ff        ."      MOVS     r2,#0xff
        0x01000418:    0edb        ..      LSRS     r3,r3,#27
        0x0100041a:    409a        .@      LSLS     r2,r2,r3
        0x0100041c:    0789        ..      LSLS     r1,r1,#30
        0x0100041e:    0e09        ..      LSRS     r1,r1,#24
        0x01000420:    4099        .@      LSLS     r1,r1,r3
        0x01000422:    2800        .(      CMP      r0,#0
        0x01000424:    da0b        ..      BGE      0x100043e ; NVIC_SetPriority + 42
        0x01000426:    0700        ..      LSLS     r0,r0,#28
        0x01000428:    0f00        ..      LSRS     r0,r0,#28
        0x0100042a:    3808        .8      SUBS     r0,r0,#8
        0x0100042c:    0883        ..      LSRS     r3,r0,#2
        0x0100042e:    4819        .H      LDR      r0,[pc,#100] ; [0x1000494] = 0xe000ed00
        0x01000430:    009b        ..      LSLS     r3,r3,#2
        0x01000432:    1818        ..      ADDS     r0,r3,r0
        0x01000434:    69c3        .i      LDR      r3,[r0,#0x1c]
        0x01000436:    4393        .C      BICS     r3,r3,r2
        0x01000438:    430b        .C      ORRS     r3,r3,r1
        0x0100043a:    61c3        .a      STR      r3,[r0,#0x1c]
        0x0100043c:    e007        ..      B        0x100044e ; NVIC_SetPriority + 58
        0x0100043e:    0883        ..      LSRS     r3,r0,#2
        0x01000440:    4815        .H      LDR      r0,[pc,#84] ; [0x1000498] = 0xe000e400
        0x01000442:    009b        ..      LSLS     r3,r3,#2
        0x01000444:    1818        ..      ADDS     r0,r3,r0
        0x01000446:    6803        .h      LDR      r3,[r0,#0]
        0x01000448:    4393        .C      BICS     r3,r3,r2
        0x0100044a:    430b        .C      ORRS     r3,r3,r1
        0x0100044c:    6003        .`      STR      r3,[r0,#0]
        0x0100044e:    2001        .       MOVS     r0,#1
        0x01000450:    4770        pG      BX       lr
    trigger_PendSV
        0x01000452:    4810        .H      LDR      r0,[pc,#64] ; [0x1000494] = 0xe000ed00
        0x01000454:    6841        Ah      LDR      r1,[r0,#4]
        0x01000456:    2201        ."      MOVS     r2,#1
        0x01000458:    0712        ..      LSLS     r2,r2,#28
        0x0100045a:    4311        .C      ORRS     r1,r1,r2
        0x0100045c:    6041        A`      STR      r1,[r0,#4]
        0x0100045e:    4770        pG      BX       lr
    NVIC_EnableIRQ
        0x01000460:    490e        .I      LDR      r1,[pc,#56] ; [0x100049c] = 0xe000e100
        0x01000462:    680a        .h      LDR      r2,[r1,#0]
        0x01000464:    2301        .#      MOVS     r3,#1
        0x01000466:    4083        .@      LSLS     r3,r3,r0
        0x01000468:    431a        .C      ORRS     r2,r2,r3
        0x0100046a:    600a        .`      STR      r2,[r1,#0]
        0x0100046c:    4770        pG      BX       lr
    NVIC_DisableIRQ
        0x0100046e:    2101        .!      MOVS     r1,#1
        0x01000470:    4081        .@      LSLS     r1,r1,r0
        0x01000472:    480a        .H      LDR      r0,[pc,#40] ; [0x100049c] = 0xe000e100
        0x01000474:    3080        .0      ADDS     r0,r0,#0x80
        0x01000476:    6001        .`      STR      r1,[r0,#0]
        0x01000478:    4770        pG      BX       lr
    soft_reset
        0x0100047a:    4809        .H      LDR      r0,[pc,#36] ; [0x10004a0] = 0xf8540
        0x0100047c:    6b41        Ak      LDR      r1,[r0,#0x34]
        0x0100047e:    2201        ."      MOVS     r2,#1
        0x01000480:    4311        .C      ORRS     r1,r1,r2
        0x01000482:    6341        Ac      STR      r1,[r0,#0x34]
        0x01000484:    2155        U!      MOVS     r1,#0x55
        0x01000486:    63c1        .c      STR      r1,[r0,#0x3c]
        0x01000488:    e7fe        ..      B        0x1000488 ; soft_reset + 14
    get_primask
        0x0100048a:    4770        pG      BX       lr
    get_msp
        0x0100048c:    4770        pG      BX       lr
    set_msp
        0x0100048e:    f3808808    ....    MSR      MSP,r0
        0x01000492:    4770        pG      BX       lr
    $d
        0x01000494:    e000ed00    ....    DCD    3758157056
        0x01000498:    e000e400    ....    DCD    3758154752
        0x0100049c:    e000e100    ....    DCD    3758153984
        0x010004a0:    000f8540    @...    DCD    1017152
    $t
    .text
    printfsend
        0x010004a4:    b530        0.      PUSH     {r4,r5,lr}
        0x010004a6:    b0c1        ..      SUB      sp,sp,#0x104
        0x010004a8:    2300        .#      MOVS     r3,#0
        0x010004aa:    466c        lF      MOV      r4,sp
        0x010004ac:    e002        ..      B        0x10004b4 ; printfsend + 16
        0x010004ae:    5ccd        .\      LDRB     r5,[r1,r3]
        0x010004b0:    54e5        .T      STRB     r5,[r4,r3]
        0x010004b2:    1c5b        [.      ADDS     r3,r3,#1
        0x010004b4:    4293        .B      CMP      r3,r2
        0x010004b6:    dbfa        ..      BLT      0x10004ae ; printfsend + 10
        0x010004b8:    4621        !F      MOV      r1,r4
        0x010004ba:    f000feee    ....    BL       UART_SendBuf ; 0x100129a
        0x010004be:    b041        A.      ADD      sp,sp,#0x104
        0x010004c0:    bd30        0.      POP      {r4,r5,pc}
    MyPrintf
        0x010004c2:    b40f        ..      PUSH     {r0-r3}
        0x010004c4:    b5f0        ..      PUSH     {r4-r7,lr}
        0x010004c6:    b08b        ..      SUB      sp,sp,#0x2c
        0x010004c8:    ae11        ..      ADD      r6,sp,#0x44
        0x010004ca:    e0f4        ..      B        0x10006b6 ; MyPrintf + 500
        0x010004cc:    2400        .$      MOVS     r4,#0
        0x010004ce:    e000        ..      B        0x10004d2 ; MyPrintf + 16
        0x010004d0:    1c64        d.      ADDS     r4,r4,#1
        0x010004d2:    5d08        .]      LDRB     r0,[r1,r4]
        0x010004d4:    2825        %(      CMP      r0,#0x25
        0x010004d6:    d001        ..      BEQ      0x10004dc ; MyPrintf + 26
        0x010004d8:    2800        .(      CMP      r0,#0
        0x010004da:    d1f9        ..      BNE      0x10004d0 ; MyPrintf + 14
        0x010004dc:    2c00        .,      CMP      r4,#0
        0x010004de:    d003        ..      BEQ      0x10004e8 ; MyPrintf + 38
        0x010004e0:    4622        "F      MOV      r2,r4
        0x010004e2:    2000        .       MOVS     r0,#0
        0x010004e4:    f7ffffde    ....    BL       printfsend ; 0x10004a4
        0x010004e8:    9810        ..      LDR      r0,[sp,#0x40]
        0x010004ea:    1900        ..      ADDS     r0,r0,r4
        0x010004ec:    9010        ..      STR      r0,[sp,#0x40]
        0x010004ee:    7801        .x      LDRB     r1,[r0,#0]
        0x010004f0:    2925        %)      CMP      r1,#0x25
        0x010004f2:    d1ea        ..      BNE      0x10004ca ; MyPrintf + 8
        0x010004f4:    1c40        @.      ADDS     r0,r0,#1
        0x010004f6:    2500        .%      MOVS     r5,#0
        0x010004f8:    9010        ..      STR      r0,[sp,#0x40]
        0x010004fa:    2020                MOVS     r0,#0x20
        0x010004fc:    9009        ..      STR      r0,[sp,#0x24]
        0x010004fe:    9910        ..      LDR      r1,[sp,#0x40]
        0x01000500:    7808        .x      LDRB     r0,[r1,#0]
        0x01000502:    1c49        I.      ADDS     r1,r1,#1
        0x01000504:    9110        ..      STR      r1,[sp,#0x40]
        0x01000506:    2838        8(      CMP      r0,#0x38
        0x01000508:    d02a        *.      BEQ      0x1000560 ; MyPrintf + 158
        0x0100050a:    dc14        ..      BGT      0x1000536 ; MyPrintf + 116
        0x0100050c:    2833        3(      CMP      r0,#0x33
        0x0100050e:    d027        '.      BEQ      0x1000560 ; MyPrintf + 158
        0x01000510:    dc08        ..      BGT      0x1000524 ; MyPrintf + 98
        0x01000512:    2825        %(      CMP      r0,#0x25
        0x01000514:    d077        w.      BEQ      0x1000606 ; MyPrintf + 324
        0x01000516:    2830        0(      CMP      r0,#0x30
        0x01000518:    d022        ".      BEQ      0x1000560 ; MyPrintf + 158
        0x0100051a:    2831        1(      CMP      r0,#0x31
        0x0100051c:    d020         .      BEQ      0x1000560 ; MyPrintf + 158
        0x0100051e:    2832        2(      CMP      r0,#0x32
        0x01000520:    d11b        ..      BNE      0x100055a ; MyPrintf + 152
        0x01000522:    e01d        ..      B        0x1000560 ; MyPrintf + 158
        0x01000524:    2834        4(      CMP      r0,#0x34
        0x01000526:    d01b        ..      BEQ      0x1000560 ; MyPrintf + 158
        0x01000528:    2835        5(      CMP      r0,#0x35
        0x0100052a:    d019        ..      BEQ      0x1000560 ; MyPrintf + 158
        0x0100052c:    2836        6(      CMP      r0,#0x36
        0x0100052e:    d017        ..      BEQ      0x1000560 ; MyPrintf + 158
        0x01000530:    2837        7(      CMP      r0,#0x37
        0x01000532:    d112        ..      BNE      0x100055a ; MyPrintf + 152
        0x01000534:    e014        ..      B        0x1000560 ; MyPrintf + 158
        0x01000536:    2870        p(      CMP      r0,#0x70
        0x01000538:    d057        W.      BEQ      0x10005ea ; MyPrintf + 296
        0x0100053a:    dc08        ..      BGT      0x100054e ; MyPrintf + 140
        0x0100053c:    2839        9(      CMP      r0,#0x39
        0x0100053e:    d00f        ..      BEQ      0x1000560 ; MyPrintf + 158
        0x01000540:    2858        X(      CMP      r0,#0x58
        0x01000542:    d04a        J.      BEQ      0x10005da ; MyPrintf + 280
        0x01000544:    2863        c(      CMP      r0,#0x63
        0x01000546:    d018        ..      BEQ      0x100057a ; MyPrintf + 184
        0x01000548:    2864        d(      CMP      r0,#0x64
        0x0100054a:    d106        ..      BNE      0x100055a ; MyPrintf + 152
        0x0100054c:    e01b        ..      B        0x1000586 ; MyPrintf + 196
        0x0100054e:    2873        s(      CMP      r0,#0x73
        0x01000550:    d026        &.      BEQ      0x10005a0 ; MyPrintf + 222
        0x01000552:    2875        u(      CMP      r0,#0x75
        0x01000554:    d03a        :.      BEQ      0x10005cc ; MyPrintf + 266
        0x01000556:    2878        x(      CMP      r0,#0x78
        0x01000558:    d047        G.      BEQ      0x10005ea ; MyPrintf + 296
        0x0100055a:    2205        ."      MOVS     r2,#5
        0x0100055c:    a168        h.      ADR      r1,{pc}+0x1a4 ; 0x1000700
        0x0100055e:    e09a        ..      B        0x1000696 ; MyPrintf + 468
        0x01000560:    3920         9      SUBS     r1,r1,#0x20
        0x01000562:    7fc8        ..      LDRB     r0,[r1,#0x1f]
        0x01000564:    2830        0(      CMP      r0,#0x30
        0x01000566:    d103        ..      BNE      0x1000570 ; MyPrintf + 174
        0x01000568:    2d00        .-      CMP      r5,#0
        0x0100056a:    d101        ..      BNE      0x1000570 ; MyPrintf + 174
        0x0100056c:    2130        0!      MOVS     r1,#0x30
        0x0100056e:    9109        ..      STR      r1,[sp,#0x24]
        0x01000570:    210a        .!      MOVS     r1,#0xa
        0x01000572:    434d        MC      MULS     r5,r1,r5
        0x01000574:    3d30        0=      SUBS     r5,r5,#0x30
        0x01000576:    1945        E.      ADDS     r5,r0,r5
        0x01000578:    e7c1        ..      B        0x10004fe ; MyPrintf + 60
        0x0100057a:    ce01        ..      LDM      r6!,{r0}
        0x0100057c:    2201        ."      MOVS     r2,#1
        0x0100057e:    9008        ..      STR      r0,[sp,#0x20]
        0x01000580:    a908        ..      ADD      r1,sp,#0x20
        0x01000582:    2000        .       MOVS     r0,#0
        0x01000584:    e095        ..      B        0x10006b2 ; MyPrintf + 496
        0x01000586:    ce01        ..      LDM      r6!,{r0}
        0x01000588:    2400        .$      MOVS     r4,#0
        0x0100058a:    9008        ..      STR      r0,[sp,#0x20]
        0x0100058c:    2800        .(      CMP      r0,#0
        0x0100058e:    da03        ..      BGE      0x1000598 ; MyPrintf + 214
        0x01000590:    4240        @B      RSBS     r0,r0,#0
        0x01000592:    2701        .'      MOVS     r7,#1
        0x01000594:    9008        ..      STR      r0,[sp,#0x20]
        0x01000596:    e000        ..      B        0x100059a ; MyPrintf + 216
        0x01000598:    2700        .'      MOVS     r7,#0
        0x0100059a:    200a        .       MOVS     r0,#0xa
        0x0100059c:    9006        ..      STR      r0,[sp,#0x18]
        0x0100059e:    e02d        -.      B        0x10005fc ; MyPrintf + 314
        0x010005a0:    ce02        ..      LDM      r6!,{r1}
        0x010005a2:    2400        .$      MOVS     r4,#0
        0x010005a4:    e000        ..      B        0x10005a8 ; MyPrintf + 230
        0x010005a6:    1c64        d.      ADDS     r4,r4,#1
        0x010005a8:    5d08        .]      LDRB     r0,[r1,r4]
        0x010005aa:    2800        .(      CMP      r0,#0
        0x010005ac:    d1fb        ..      BNE      0x10005a6 ; MyPrintf + 228
        0x010005ae:    4622        "F      MOV      r2,r4
        0x010005b0:    f7ffff78    ..x.    BL       printfsend ; 0x10004a4
        0x010005b4:    42a5        .B      CMP      r5,r4
        0x010005b6:    d97e        ~.      BLS      0x10006b6 ; MyPrintf + 500
        0x010005b8:    1b2c        ,.      SUBS     r4,r5,r4
        0x010005ba:    e004        ..      B        0x10005c6 ; MyPrintf + 260
        0x010005bc:    2201        ."      MOVS     r2,#1
        0x010005be:    a152        R.      ADR      r1,{pc}+0x14a ; 0x1000708
        0x010005c0:    2000        .       MOVS     r0,#0
        0x010005c2:    f7ffff6f    ..o.    BL       printfsend ; 0x10004a4
        0x010005c6:    1e64        d.      SUBS     r4,r4,#1
        0x010005c8:    d375        u.      BCC      0x10006b6 ; MyPrintf + 500
        0x010005ca:    e7f7        ..      B        0x10005bc ; MyPrintf + 250
        0x010005cc:    6830        0h      LDR      r0,[r6,#0]
        0x010005ce:    2400        .$      MOVS     r4,#0
        0x010005d0:    9008        ..      STR      r0,[sp,#0x20]
        0x010005d2:    200a        .       MOVS     r0,#0xa
        0x010005d4:    4627        'F      MOV      r7,r4
        0x010005d6:    9006        ..      STR      r0,[sp,#0x18]
        0x010005d8:    e00f        ..      B        0x10005fa ; MyPrintf + 312
        0x010005da:    6830        0h      LDR      r0,[r6,#0]
        0x010005dc:    9008        ..      STR      r0,[sp,#0x20]
        0x010005de:    2400        .$      MOVS     r4,#0
        0x010005e0:    2010        .       MOVS     r0,#0x10
        0x010005e2:    9006        ..      STR      r0,[sp,#0x18]
        0x010005e4:    4627        'F      MOV      r7,r4
        0x010005e6:    2058        X       MOVS     r0,#0x58
        0x010005e8:    e006        ..      B        0x10005f8 ; MyPrintf + 310
        0x010005ea:    6830        0h      LDR      r0,[r6,#0]
        0x010005ec:    9008        ..      STR      r0,[sp,#0x20]
        0x010005ee:    2400        .$      MOVS     r4,#0
        0x010005f0:    2010        .       MOVS     r0,#0x10
        0x010005f2:    9006        ..      STR      r0,[sp,#0x18]
        0x010005f4:    4627        'F      MOV      r7,r4
        0x010005f6:    2078        x       MOVS     r0,#0x78
        0x010005f8:    900a        ..      STR      r0,[sp,#0x28]
        0x010005fa:    1d36        6.      ADDS     r6,r6,#4
        0x010005fc:    2001        .       MOVS     r0,#1
        0x010005fe:    9007        ..      STR      r0,[sp,#0x1c]
        0x01000600:    9808        ..      LDR      r0,[sp,#0x20]
        0x01000602:    9004        ..      STR      r0,[sp,#0x10]
        0x01000604:    e003        ..      B        0x100060e ; MyPrintf + 332
        0x01000606:    e051        Q.      B        0x10006ac ; MyPrintf + 490
        0x01000608:    9805        ..      LDR      r0,[sp,#0x14]
        0x0100060a:    1e6d        m.      SUBS     r5,r5,#1
        0x0100060c:    9007        ..      STR      r0,[sp,#0x1c]
        0x0100060e:    9906        ..      LDR      r1,[sp,#0x18]
        0x01000610:    9807        ..      LDR      r0,[sp,#0x1c]
        0x01000612:    4348        HC      MULS     r0,r1,r0
        0x01000614:    9904        ..      LDR      r1,[sp,#0x10]
        0x01000616:    9005        ..      STR      r0,[sp,#0x14]
        0x01000618:    4288        .B      CMP      r0,r1
        0x0100061a:    d805        ..      BHI      0x1000628 ; MyPrintf + 358
        0x0100061c:    9906        ..      LDR      r1,[sp,#0x18]
        0x0100061e:    f002fd41    ..A.    BL       __aeabi_uidiv ; 0x10030a4
        0x01000622:    9907        ..      LDR      r1,[sp,#0x1c]
        0x01000624:    4288        .B      CMP      r0,r1
        0x01000626:    d0ef        ..      BEQ      0x1000608 ; MyPrintf + 326
        0x01000628:    2f00        ./      CMP      r7,#0
        0x0100062a:    d008        ..      BEQ      0x100063e ; MyPrintf + 380
        0x0100062c:    9809        ..      LDR      r0,[sp,#0x24]
        0x0100062e:    1e6d        m.      SUBS     r5,r5,#1
        0x01000630:    2830        0(      CMP      r0,#0x30
        0x01000632:    d104        ..      BNE      0x100063e ; MyPrintf + 380
        0x01000634:    202d        -       MOVS     r0,#0x2d
        0x01000636:    4669        iF      MOV      r1,sp
        0x01000638:    5508        .U      STRB     r0,[r1,r4]
        0x0100063a:    2700        .'      MOVS     r7,#0
        0x0100063c:    1c64        d.      ADDS     r4,r4,#1
        0x0100063e:    1ea8        ..      SUBS     r0,r5,#2
        0x01000640:    280e        .(      CMP      r0,#0xe
        0x01000642:    d207        ..      BCS      0x1000654 ; MyPrintf + 402
        0x01000644:    1e6d        m.      SUBS     r5,r5,#1
        0x01000646:    d005        ..      BEQ      0x1000654 ; MyPrintf + 402
        0x01000648:    4668        hF      MOV      r0,sp
        0x0100064a:    9909        ..      LDR      r1,[sp,#0x24]
        0x0100064c:    5501        .U      STRB     r1,[r0,r4]
        0x0100064e:    1c64        d.      ADDS     r4,r4,#1
        0x01000650:    1e6d        m.      SUBS     r5,r5,#1
        0x01000652:    d1fa        ..      BNE      0x100064a ; MyPrintf + 392
        0x01000654:    2f00        ./      CMP      r7,#0
        0x01000656:    d019        ..      BEQ      0x100068c ; MyPrintf + 458
        0x01000658:    202d        -       MOVS     r0,#0x2d
        0x0100065a:    4669        iF      MOV      r1,sp
        0x0100065c:    5508        .U      STRB     r0,[r1,r4]
        0x0100065e:    1c64        d.      ADDS     r4,r4,#1
        0x01000660:    e014        ..      B        0x100068c ; MyPrintf + 458
        0x01000662:    980a        ..      LDR      r0,[sp,#0x28]
        0x01000664:    9907        ..      LDR      r1,[sp,#0x1c]
        0x01000666:    2878        x(      CMP      r0,#0x78
        0x01000668:    9804        ..      LDR      r0,[sp,#0x10]
        0x0100066a:    d017        ..      BEQ      0x100069c ; MyPrintf + 474
        0x0100066c:    f002fd1a    ....    BL       __aeabi_uidiv ; 0x10030a4
        0x01000670:    9906        ..      LDR      r1,[sp,#0x18]
        0x01000672:    f002fd17    ....    BL       __aeabi_uidiv ; 0x10030a4
        0x01000676:    4825        %H      LDR      r0,[pc,#148] ; [0x100070c] = 0x1004010
        0x01000678:    6840        @h      LDR      r0,[r0,#4]
        0x0100067a:    5c41        A\      LDRB     r1,[r0,r1]
        0x0100067c:    4668        hF      MOV      r0,sp
        0x0100067e:    5501        .U      STRB     r1,[r0,r4]
        0x01000680:    1c64        d.      ADDS     r4,r4,#1
        0x01000682:    9906        ..      LDR      r1,[sp,#0x18]
        0x01000684:    9807        ..      LDR      r0,[sp,#0x1c]
        0x01000686:    f002fd0d    ....    BL       __aeabi_uidiv ; 0x10030a4
        0x0100068a:    9007        ..      STR      r0,[sp,#0x1c]
        0x0100068c:    9807        ..      LDR      r0,[sp,#0x1c]
        0x0100068e:    2800        .(      CMP      r0,#0
        0x01000690:    d1e7        ..      BNE      0x1000662 ; MyPrintf + 416
        0x01000692:    4622        "F      MOV      r2,r4
        0x01000694:    4669        iF      MOV      r1,sp
        0x01000696:    2000        .       MOVS     r0,#0
        0x01000698:    e00b        ..      B        0x10006b2 ; MyPrintf + 496
        0x0100069a:    e00c        ..      B        0x10006b6 ; MyPrintf + 500
        0x0100069c:    f002fd02    ....    BL       __aeabi_uidiv ; 0x10030a4
        0x010006a0:    9906        ..      LDR      r1,[sp,#0x18]
        0x010006a2:    f002fcff    ....    BL       __aeabi_uidiv ; 0x10030a4
        0x010006a6:    4819        .H      LDR      r0,[pc,#100] ; [0x100070c] = 0x1004010
        0x010006a8:    6800        .h      LDR      r0,[r0,#0]
        0x010006aa:    e7e6        ..      B        0x100067a ; MyPrintf + 440
        0x010006ac:    2201        ."      MOVS     r2,#1
        0x010006ae:    2000        .       MOVS     r0,#0
        0x010006b0:    1e49        I.      SUBS     r1,r1,#1
        0x010006b2:    f7fffef7    ....    BL       printfsend ; 0x10004a4
        0x010006b6:    9910        ..      LDR      r1,[sp,#0x40]
        0x010006b8:    7808        .x      LDRB     r0,[r1,#0]
        0x010006ba:    2800        .(      CMP      r0,#0
        0x010006bc:    d000        ..      BEQ      0x10006c0 ; MyPrintf + 510
        0x010006be:    e705        ..      B        0x10004cc ; MyPrintf + 10
        0x010006c0:    b00b        ..      ADD      sp,sp,#0x2c
        0x010006c2:    bcf0        ..      POP      {r4-r7}
        0x010006c4:    bc08        ..      POP      {r3}
        0x010006c6:    b004        ..      ADD      sp,sp,#0x10
        0x010006c8:    4718        .G      BX       r3
    printv
        0x010006ca:    b5f8        ..      PUSH     {r3-r7,lr}
        0x010006cc:    460e        .F      MOV      r6,r1
        0x010006ce:    4607        .F      MOV      r7,r0
        0x010006d0:    2400        .$      MOVS     r4,#0
        0x010006d2:    4625        %F      MOV      r5,r4
        0x010006d4:    4611        .F      MOV      r1,r2
        0x010006d6:    a00e        ..      ADR      r0,{pc}+0x3a ; 0x1000710
        0x010006d8:    f7fffef3    ....    BL       MyPrintf ; 0x10004c2
        0x010006dc:    e00b        ..      B        0x10006f6 ; printv + 44
        0x010006de:    0720         .      LSLS     r0,r4,#28
        0x010006e0:    d104        ..      BNE      0x10006ec ; printv + 34
        0x010006e2:    4629        )F      MOV      r1,r5
        0x010006e4:    a00c        ..      ADR      r0,{pc}+0x34 ; 0x1000718
        0x010006e6:    f7fffeec    ....    BL       MyPrintf ; 0x10004c2
        0x010006ea:    3510        .5      ADDS     r5,r5,#0x10
        0x010006ec:    5d39        9]      LDRB     r1,[r7,r4]
        0x010006ee:    a00c        ..      ADR      r0,{pc}+0x32 ; 0x1000720
        0x010006f0:    f7fffee7    ....    BL       MyPrintf ; 0x10004c2
        0x010006f4:    1c64        d.      ADDS     r4,r4,#1
        0x010006f6:    42b4        .B      CMP      r4,r6
        0x010006f8:    d3f1        ..      BCC      0x10006de ; printv + 20
        0x010006fa:    bdf8        ..      POP      {r3-r7,pc}
    _assert_handler
        0x010006fc:    e7fe        ..      B        _assert_handler ; 0x10006fc
    $d
        0x010006fe:    0000        ..      DCW    0
        0x01000700:    4f525245    ERRO    DCD    1330795077
        0x01000704:    00000052    R...    DCD    82
        0x01000708:    00000020     ...    DCD    32
        0x0100070c:    01004010    .@..    DCD    16793616
        0x01000710:    25200a0d    .. %    DCD    622856717
        0x01000714:    00003a73    s:..    DCD    14963
        0x01000718:    30250a0d    ..%0    DCD    807733773
        0x0100071c:    003a7838    8x:.    DCD    3831864
        0x01000720:    78323025    %02x    DCD    2016555045
        0x01000724:    00000020     ...    DCD    32
    $t
    .text
    GPIO_Config
        0x01000728:    b570        p.      PUSH     {r4-r6,lr}
        0x0100072a:    4615        .F      MOV      r5,r2
        0x0100072c:    460c        .F      MOV      r4,r1
        0x0100072e:    4606        .F      MOV      r6,r0
        0x01000730:    2803        .(      CMP      r0,#3
        0x01000732:    d304        ..      BCC      0x100073e ; GPIO_Config + 22
        0x01000734:    4afe        .J      LDR      r2,[pc,#1016] ; [0x1000b30] = 0x1004018
        0x01000736:    210e        .!      MOVS     r1,#0xe
        0x01000738:    a0fe        ..      ADR      r0,{pc}+0x3fc ; 0x1000b34
        0x0100073a:    f7ffffdf    ....    BL       _assert_handler ; 0x10006fc
        0x0100073e:    2c01        .,      CMP      r4,#1
        0x01000740:    d02c        ,.      BEQ      0x100079c ; GPIO_Config + 116
        0x01000742:    2c02        .,      CMP      r4,#2
        0x01000744:    d02a        *.      BEQ      0x100079c ; GPIO_Config + 116
        0x01000746:    2c04        .,      CMP      r4,#4
        0x01000748:    d028        (.      BEQ      0x100079c ; GPIO_Config + 116
        0x0100074a:    2c08        .,      CMP      r4,#8
        0x0100074c:    d026        &.      BEQ      0x100079c ; GPIO_Config + 116
        0x0100074e:    2c10        .,      CMP      r4,#0x10
        0x01000750:    d024        $.      BEQ      0x100079c ; GPIO_Config + 116
        0x01000752:    2c20         ,      CMP      r4,#0x20
        0x01000754:    d022        ".      BEQ      0x100079c ; GPIO_Config + 116
        0x01000756:    2c40        @,      CMP      r4,#0x40
        0x01000758:    d020         .      BEQ      0x100079c ; GPIO_Config + 116
        0x0100075a:    2c80        .,      CMP      r4,#0x80
        0x0100075c:    d01e        ..      BEQ      0x100079c ; GPIO_Config + 116
        0x0100075e:    1fe0        ..      SUBS     r0,r4,#7
        0x01000760:    38f9        .8      SUBS     r0,r0,#0xf9
        0x01000762:    d01b        ..      BEQ      0x100079c ; GPIO_Config + 116
        0x01000764:    1fe0        ..      SUBS     r0,r4,#7
        0x01000766:    38ff        .8      SUBS     r0,r0,#0xff
        0x01000768:    38fa        .8      SUBS     r0,r0,#0xfa
        0x0100076a:    d017        ..      BEQ      0x100079c ; GPIO_Config + 116
        0x0100076c:    2001        .       MOVS     r0,#1
        0x0100076e:    0280        ..      LSLS     r0,r0,#10
        0x01000770:    4284        .B      CMP      r4,r0
        0x01000772:    d013        ..      BEQ      0x100079c ; GPIO_Config + 116
        0x01000774:    0040        @.      LSLS     r0,r0,#1
        0x01000776:    4284        .B      CMP      r4,r0
        0x01000778:    d010        ..      BEQ      0x100079c ; GPIO_Config + 116
        0x0100077a:    0040        @.      LSLS     r0,r0,#1
        0x0100077c:    4284        .B      CMP      r4,r0
        0x0100077e:    d00d        ..      BEQ      0x100079c ; GPIO_Config + 116
        0x01000780:    0040        @.      LSLS     r0,r0,#1
        0x01000782:    4284        .B      CMP      r4,r0
        0x01000784:    d00a        ..      BEQ      0x100079c ; GPIO_Config + 116
        0x01000786:    0040        @.      LSLS     r0,r0,#1
        0x01000788:    4284        .B      CMP      r4,r0
        0x0100078a:    d007        ..      BEQ      0x100079c ; GPIO_Config + 116
        0x0100078c:    0040        @.      LSLS     r0,r0,#1
        0x0100078e:    4284        .B      CMP      r4,r0
        0x01000790:    d004        ..      BEQ      0x100079c ; GPIO_Config + 116
        0x01000792:    4ae7        .J      LDR      r2,[pc,#924] ; [0x1000b30] = 0x1004018
        0x01000794:    210f        .!      MOVS     r1,#0xf
        0x01000796:    a0e7        ..      ADR      r0,{pc}+0x39e ; 0x1000b34
        0x01000798:    f7ffffb0    ....    BL       _assert_handler ; 0x10006fc
        0x0100079c:    2100        .!      MOVS     r1,#0
        0x0100079e:    2301        .#      MOVS     r3,#1
        0x010007a0:    0132        2.      LSLS     r2,r6,#4
        0x010007a2:    4eee        .N      LDR      r6,[pc,#952] ; [0x1000b5c] = 0xf8700
        0x010007a4:    4618        .F      MOV      r0,r3
        0x010007a6:    4088        .@      LSLS     r0,r0,r1
        0x010007a8:    4220         B      TST      r0,r4
        0x010007aa:    d002        ..      BEQ      0x10007b2 ; GPIO_Config + 138
        0x010007ac:    1850        P.      ADDS     r0,r2,r1
        0x010007ae:    1980        ..      ADDS     r0,r0,r6
        0x010007b0:    7005        .p      STRB     r5,[r0,#0]
        0x010007b2:    1c49        I.      ADDS     r1,r1,#1
        0x010007b4:    2910        .)      CMP      r1,#0x10
        0x010007b6:    dbf5        ..      BLT      0x10007a4 ; GPIO_Config + 124
        0x010007b8:    bd70        p.      POP      {r4-r6,pc}
    GPIO_Init
        0x010007ba:    b5f8        ..      PUSH     {r3-r7,lr}
        0x010007bc:    460c        .F      MOV      r4,r1
        0x010007be:    4605        .F      MOV      r5,r0
        0x010007c0:    2803        .(      CMP      r0,#3
        0x010007c2:    d305        ..      BCC      0x10007d0 ; GPIO_Init + 22
        0x010007c4:    4ada        .J      LDR      r2,[pc,#872] ; [0x1000b30] = 0x1004018
        0x010007c6:    211c        .!      MOVS     r1,#0x1c
        0x010007c8:    320c        .2      ADDS     r2,r2,#0xc
        0x010007ca:    a0da        ..      ADR      r0,{pc}+0x36a ; 0x1000b34
        0x010007cc:    f7ffff96    ....    BL       _assert_handler ; 0x10006fc
        0x010007d0:    8820         .      LDRH     r0,[r4,#0]
        0x010007d2:    2800        .(      CMP      r0,#0
        0x010007d4:    d105        ..      BNE      0x10007e2 ; GPIO_Init + 40
        0x010007d6:    4ad6        .J      LDR      r2,[pc,#856] ; [0x1000b30] = 0x1004018
        0x010007d8:    211d        .!      MOVS     r1,#0x1d
        0x010007da:    320c        .2      ADDS     r2,r2,#0xc
        0x010007dc:    a0d5        ..      ADR      r0,{pc}+0x358 ; 0x1000b34
        0x010007de:    f7ffff8d    ....    BL       _assert_handler ; 0x10006fc
        0x010007e2:    78a1        .x      LDRB     r1,[r4,#2]
        0x010007e4:    2901        .)      CMP      r1,#1
        0x010007e6:    d00d        ..      BEQ      0x1000804 ; GPIO_Init + 74
        0x010007e8:    2902        .)      CMP      r1,#2
        0x010007ea:    d00b        ..      BEQ      0x1000804 ; GPIO_Init + 74
        0x010007ec:    2903        .)      CMP      r1,#3
        0x010007ee:    d009        ..      BEQ      0x1000804 ; GPIO_Init + 74
        0x010007f0:    2905        .)      CMP      r1,#5
        0x010007f2:    d007        ..      BEQ      0x1000804 ; GPIO_Init + 74
        0x010007f4:    2904        .)      CMP      r1,#4
        0x010007f6:    d005        ..      BEQ      0x1000804 ; GPIO_Init + 74
        0x010007f8:    4acd        .J      LDR      r2,[pc,#820] ; [0x1000b30] = 0x1004018
        0x010007fa:    211e        .!      MOVS     r1,#0x1e
        0x010007fc:    320c        .2      ADDS     r2,r2,#0xc
        0x010007fe:    a0cd        ..      ADR      r0,{pc}+0x336 ; 0x1000b34
        0x01000800:    f7ffff7c    ..|.    BL       _assert_handler ; 0x10006fc
        0x01000804:    78a1        .x      LDRB     r1,[r4,#2]
        0x01000806:    0128        (.      LSLS     r0,r5,#4
        0x01000808:    2201        ."      MOVS     r2,#1
        0x0100080a:    4dd4        .M      LDR      r5,[pc,#848] ; [0x1000b5c] = 0xf8700
        0x0100080c:    000b        ..      MOVS     r3,r1
        0x0100080e:    f002ff80    ....    BL       __ARM_common_switch8 ; 0x1003712
    $d
        0x01000812:    1106        ..      DCW    4358
        0x01000814:    2e201204    .. .    DCD    773853700
        0x01000818:    113c        <.      DCW    4412
    $t
        0x0100081a:    2100        .!      MOVS     r1,#0
        0x0100081c:    460f        .F      MOV      r7,r1
        0x0100081e:    8826        &.      LDRH     r6,[r4,#0]
        0x01000820:    4613        .F      MOV      r3,r2
        0x01000822:    408b        .@      LSLS     r3,r3,r1
        0x01000824:    421e        .B      TST      r6,r3
        0x01000826:    d002        ..      BEQ      0x100082e ; GPIO_Init + 116
        0x01000828:    1843        C.      ADDS     r3,r0,r1
        0x0100082a:    195b        [.      ADDS     r3,r3,r5
        0x0100082c:    701f        .p      STRB     r7,[r3,#0]
        0x0100082e:    1c49        I.      ADDS     r1,r1,#1
        0x01000830:    2910        .)      CMP      r1,#0x10
        0x01000832:    dbf4        ..      BLT      0x100081e ; GPIO_Init + 100
        0x01000834:    bdf8        ..      POP      {r3-r7,pc}
        0x01000836:    2100        .!      MOVS     r1,#0
        0x01000838:    2740        @'      MOVS     r7,#0x40
        0x0100083a:    8826        &.      LDRH     r6,[r4,#0]
        0x0100083c:    4613        .F      MOV      r3,r2
        0x0100083e:    408b        .@      LSLS     r3,r3,r1
        0x01000840:    421e        .B      TST      r6,r3
        0x01000842:    d002        ..      BEQ      0x100084a ; GPIO_Init + 144
        0x01000844:    1843        C.      ADDS     r3,r0,r1
        0x01000846:    195b        [.      ADDS     r3,r3,r5
        0x01000848:    701f        .p      STRB     r7,[r3,#0]
        0x0100084a:    1c49        I.      ADDS     r1,r1,#1
        0x0100084c:    2910        .)      CMP      r1,#0x10
        0x0100084e:    dbf4        ..      BLT      0x100083a ; GPIO_Init + 128
        0x01000850:    bdf8        ..      POP      {r3-r7,pc}
        0x01000852:    2100        .!      MOVS     r1,#0
        0x01000854:    2780        .'      MOVS     r7,#0x80
        0x01000856:    8826        &.      LDRH     r6,[r4,#0]
        0x01000858:    4613        .F      MOV      r3,r2
        0x0100085a:    408b        .@      LSLS     r3,r3,r1
        0x0100085c:    421e        .B      TST      r6,r3
        0x0100085e:    d002        ..      BEQ      0x1000866 ; GPIO_Init + 172
        0x01000860:    1843        C.      ADDS     r3,r0,r1
        0x01000862:    195b        [.      ADDS     r3,r3,r5
        0x01000864:    701f        .p      STRB     r7,[r3,#0]
        0x01000866:    1c49        I.      ADDS     r1,r1,#1
        0x01000868:    2910        .)      CMP      r1,#0x10
        0x0100086a:    dbf4        ..      BLT      0x1000856 ; GPIO_Init + 156
        0x0100086c:    bdf8        ..      POP      {r3-r7,pc}
        0x0100086e:    2100        .!      MOVS     r1,#0
        0x01000870:    27c0        .'      MOVS     r7,#0xc0
        0x01000872:    8826        &.      LDRH     r6,[r4,#0]
        0x01000874:    4613        .F      MOV      r3,r2
        0x01000876:    408b        .@      LSLS     r3,r3,r1
        0x01000878:    421e        .B      TST      r6,r3
        0x0100087a:    d002        ..      BEQ      0x1000882 ; GPIO_Init + 200
        0x0100087c:    1843        C.      ADDS     r3,r0,r1
        0x0100087e:    195b        [.      ADDS     r3,r3,r5
        0x01000880:    701f        .p      STRB     r7,[r3,#0]
        0x01000882:    1c49        I.      ADDS     r1,r1,#1
        0x01000884:    2910        .)      CMP      r1,#0x10
        0x01000886:    dbf4        ..      BLT      0x1000872 ; GPIO_Init + 184
        0x01000888:    bdf8        ..      POP      {r3-r7,pc}
        0x0100088a:    2100        .!      MOVS     r1,#0
        0x0100088c:    273e        >'      MOVS     r7,#0x3e
        0x0100088e:    8826        &.      LDRH     r6,[r4,#0]
        0x01000890:    4613        .F      MOV      r3,r2
        0x01000892:    408b        .@      LSLS     r3,r3,r1
        0x01000894:    421e        .B      TST      r6,r3
        0x01000896:    d002        ..      BEQ      0x100089e ; GPIO_Init + 228
        0x01000898:    1843        C.      ADDS     r3,r0,r1
        0x0100089a:    195b        [.      ADDS     r3,r3,r5
        0x0100089c:    701f        .p      STRB     r7,[r3,#0]
        0x0100089e:    1c49        I.      ADDS     r1,r1,#1
        0x010008a0:    2910        .)      CMP      r1,#0x10
        0x010008a2:    dbf4        ..      BLT      0x100088e ; GPIO_Init + 212
        0x010008a4:    bdf8        ..      POP      {r3-r7,pc}
    GPIO_PullUpCmd
        0x010008a6:    b5f8        ..      PUSH     {r3-r7,lr}
        0x010008a8:    4615        .F      MOV      r5,r2
        0x010008aa:    460c        .F      MOV      r4,r1
        0x010008ac:    4606        .F      MOV      r6,r0
        0x010008ae:    2803        .(      CMP      r0,#3
        0x010008b0:    d305        ..      BCC      0x10008be ; GPIO_PullUpCmd + 24
        0x010008b2:    4a9f        .J      LDR      r2,[pc,#636] ; [0x1000b30] = 0x1004018
        0x010008b4:    2153        S!      MOVS     r1,#0x53
        0x010008b6:    3216        .2      ADDS     r2,r2,#0x16
        0x010008b8:    a09e        ..      ADR      r0,{pc}+0x27c ; 0x1000b34
        0x010008ba:    f7ffff1f    ....    BL       _assert_handler ; 0x10006fc
        0x010008be:    2c01        .,      CMP      r4,#1
        0x010008c0:    d02d        -.      BEQ      0x100091e ; GPIO_PullUpCmd + 120
        0x010008c2:    2c02        .,      CMP      r4,#2
        0x010008c4:    d02b        +.      BEQ      0x100091e ; GPIO_PullUpCmd + 120
        0x010008c6:    2c04        .,      CMP      r4,#4
        0x010008c8:    d029        ).      BEQ      0x100091e ; GPIO_PullUpCmd + 120
        0x010008ca:    2c08        .,      CMP      r4,#8
        0x010008cc:    d027        '.      BEQ      0x100091e ; GPIO_PullUpCmd + 120
        0x010008ce:    2c10        .,      CMP      r4,#0x10
        0x010008d0:    d025        %.      BEQ      0x100091e ; GPIO_PullUpCmd + 120
        0x010008d2:    2c20         ,      CMP      r4,#0x20
        0x010008d4:    d023        #.      BEQ      0x100091e ; GPIO_PullUpCmd + 120
        0x010008d6:    2c40        @,      CMP      r4,#0x40
        0x010008d8:    d021        !.      BEQ      0x100091e ; GPIO_PullUpCmd + 120
        0x010008da:    2c80        .,      CMP      r4,#0x80
        0x010008dc:    d01f        ..      BEQ      0x100091e ; GPIO_PullUpCmd + 120
        0x010008de:    1fe0        ..      SUBS     r0,r4,#7
        0x010008e0:    38f9        .8      SUBS     r0,r0,#0xf9
        0x010008e2:    d01c        ..      BEQ      0x100091e ; GPIO_PullUpCmd + 120
        0x010008e4:    1fe0        ..      SUBS     r0,r4,#7
        0x010008e6:    38ff        .8      SUBS     r0,r0,#0xff
        0x010008e8:    38fa        .8      SUBS     r0,r0,#0xfa
        0x010008ea:    d018        ..      BEQ      0x100091e ; GPIO_PullUpCmd + 120
        0x010008ec:    2001        .       MOVS     r0,#1
        0x010008ee:    0280        ..      LSLS     r0,r0,#10
        0x010008f0:    4284        .B      CMP      r4,r0
        0x010008f2:    d014        ..      BEQ      0x100091e ; GPIO_PullUpCmd + 120
        0x010008f4:    0040        @.      LSLS     r0,r0,#1
        0x010008f6:    4284        .B      CMP      r4,r0
        0x010008f8:    d011        ..      BEQ      0x100091e ; GPIO_PullUpCmd + 120
        0x010008fa:    0040        @.      LSLS     r0,r0,#1
        0x010008fc:    4284        .B      CMP      r4,r0
        0x010008fe:    d00e        ..      BEQ      0x100091e ; GPIO_PullUpCmd + 120
        0x01000900:    0040        @.      LSLS     r0,r0,#1
        0x01000902:    4284        .B      CMP      r4,r0
        0x01000904:    d00b        ..      BEQ      0x100091e ; GPIO_PullUpCmd + 120
        0x01000906:    0040        @.      LSLS     r0,r0,#1
        0x01000908:    4284        .B      CMP      r4,r0
        0x0100090a:    d008        ..      BEQ      0x100091e ; GPIO_PullUpCmd + 120
        0x0100090c:    0040        @.      LSLS     r0,r0,#1
        0x0100090e:    4284        .B      CMP      r4,r0
        0x01000910:    d005        ..      BEQ      0x100091e ; GPIO_PullUpCmd + 120
        0x01000912:    4a87        .J      LDR      r2,[pc,#540] ; [0x1000b30] = 0x1004018
        0x01000914:    2154        T!      MOVS     r1,#0x54
        0x01000916:    3216        .2      ADDS     r2,r2,#0x16
        0x01000918:    a086        ..      ADR      r0,{pc}+0x21c ; 0x1000b34
        0x0100091a:    f7fffeef    ....    BL       _assert_handler ; 0x10006fc
        0x0100091e:    2100        .!      MOVS     r1,#0
        0x01000920:    4b8e        .K      LDR      r3,[pc,#568] ; [0x1000b5c] = 0xf8700
        0x01000922:    0132        2.      LSLS     r2,r6,#4
        0x01000924:    2001        .       MOVS     r0,#1
        0x01000926:    4088        .@      LSLS     r0,r0,r1
        0x01000928:    4220         B      TST      r0,r4
        0x0100092a:    d010        ..      BEQ      0x100094e ; GPIO_PullUpCmd + 168
        0x0100092c:    2d01        .-      CMP      r5,#1
        0x0100092e:    d002        ..      BEQ      0x1000936 ; GPIO_PullUpCmd + 144
        0x01000930:    2d00        .-      CMP      r5,#0
        0x01000932:    d006        ..      BEQ      0x1000942 ; GPIO_PullUpCmd + 156
        0x01000934:    e00b        ..      B        0x100094e ; GPIO_PullUpCmd + 168
        0x01000936:    1850        P.      ADDS     r0,r2,r1
        0x01000938:    18c0        ..      ADDS     r0,r0,r3
        0x0100093a:    7806        .x      LDRB     r6,[r0,#0]
        0x0100093c:    2740        @'      MOVS     r7,#0x40
        0x0100093e:    433e        >C      ORRS     r6,r6,r7
        0x01000940:    e004        ..      B        0x100094c ; GPIO_PullUpCmd + 166
        0x01000942:    1850        P.      ADDS     r0,r2,r1
        0x01000944:    18c0        ..      ADDS     r0,r0,r3
        0x01000946:    7806        .x      LDRB     r6,[r0,#0]
        0x01000948:    27bf        .'      MOVS     r7,#0xbf
        0x0100094a:    403e        >@      ANDS     r6,r6,r7
        0x0100094c:    7006        .p      STRB     r6,[r0,#0]
        0x0100094e:    1c49        I.      ADDS     r1,r1,#1
        0x01000950:    2910        .)      CMP      r1,#0x10
        0x01000952:    dbe7        ..      BLT      0x1000924 ; GPIO_PullUpCmd + 126
        0x01000954:    bdf8        ..      POP      {r3-r7,pc}
    GPIO_ReadInputData
        0x01000956:    b510        ..      PUSH     {r4,lr}
        0x01000958:    4604        .F      MOV      r4,r0
        0x0100095a:    2803        .(      CMP      r0,#3
        0x0100095c:    d305        ..      BCC      0x100096a ; GPIO_ReadInputData + 20
        0x0100095e:    4a74        tJ      LDR      r2,[pc,#464] ; [0x1000b30] = 0x1004018
        0x01000960:    216a        j!      MOVS     r1,#0x6a
        0x01000962:    3225        %2      ADDS     r2,r2,#0x25
        0x01000964:    a073        s.      ADR      r0,{pc}+0x1d0 ; 0x1000b34
        0x01000966:    f7fffec9    ....    BL       _assert_handler ; 0x10006fc
        0x0100096a:    497c        |I      LDR      r1,[pc,#496] ; [0x1000b5c] = 0xf8700
        0x0100096c:    0060        `.      LSLS     r0,r4,#1
        0x0100096e:    1840        @.      ADDS     r0,r0,r1
        0x01000970:    8f80        ..      LDRH     r0,[r0,#0x3c]
        0x01000972:    bd10        ..      POP      {r4,pc}
    GPIO_ReadInputDataBit
        0x01000974:    b570        p.      PUSH     {r4-r6,lr}
        0x01000976:    460c        .F      MOV      r4,r1
        0x01000978:    4605        .F      MOV      r5,r0
        0x0100097a:    2803        .(      CMP      r0,#3
        0x0100097c:    d305        ..      BCC      0x100098a ; GPIO_ReadInputDataBit + 22
        0x0100097e:    4a6c        lJ      LDR      r2,[pc,#432] ; [0x1000b30] = 0x1004018
        0x01000980:    2171        q!      MOVS     r1,#0x71
        0x01000982:    3238        82      ADDS     r2,r2,#0x38
        0x01000984:    a06b        k.      ADR      r0,{pc}+0x1b0 ; 0x1000b34
        0x01000986:    f7fffeb9    ....    BL       _assert_handler ; 0x10006fc
        0x0100098a:    2c01        .,      CMP      r4,#1
        0x0100098c:    d02d        -.      BEQ      0x10009ea ; GPIO_ReadInputDataBit + 118
        0x0100098e:    2c02        .,      CMP      r4,#2
        0x01000990:    d02b        +.      BEQ      0x10009ea ; GPIO_ReadInputDataBit + 118
        0x01000992:    2c04        .,      CMP      r4,#4
        0x01000994:    d029        ).      BEQ      0x10009ea ; GPIO_ReadInputDataBit + 118
        0x01000996:    2c08        .,      CMP      r4,#8
        0x01000998:    d027        '.      BEQ      0x10009ea ; GPIO_ReadInputDataBit + 118
        0x0100099a:    2c10        .,      CMP      r4,#0x10
        0x0100099c:    d025        %.      BEQ      0x10009ea ; GPIO_ReadInputDataBit + 118
        0x0100099e:    2c20         ,      CMP      r4,#0x20
        0x010009a0:    d023        #.      BEQ      0x10009ea ; GPIO_ReadInputDataBit + 118
        0x010009a2:    2c40        @,      CMP      r4,#0x40
        0x010009a4:    d021        !.      BEQ      0x10009ea ; GPIO_ReadInputDataBit + 118
        0x010009a6:    2c80        .,      CMP      r4,#0x80
        0x010009a8:    d01f        ..      BEQ      0x10009ea ; GPIO_ReadInputDataBit + 118
        0x010009aa:    1fe0        ..      SUBS     r0,r4,#7
        0x010009ac:    38f9        .8      SUBS     r0,r0,#0xf9
        0x010009ae:    d01c        ..      BEQ      0x10009ea ; GPIO_ReadInputDataBit + 118
        0x010009b0:    1fe0        ..      SUBS     r0,r4,#7
        0x010009b2:    38ff        .8      SUBS     r0,r0,#0xff
        0x010009b4:    38fa        .8      SUBS     r0,r0,#0xfa
        0x010009b6:    d018        ..      BEQ      0x10009ea ; GPIO_ReadInputDataBit + 118
        0x010009b8:    2001        .       MOVS     r0,#1
        0x010009ba:    0280        ..      LSLS     r0,r0,#10
        0x010009bc:    4284        .B      CMP      r4,r0
        0x010009be:    d014        ..      BEQ      0x10009ea ; GPIO_ReadInputDataBit + 118
        0x010009c0:    0040        @.      LSLS     r0,r0,#1
        0x010009c2:    4284        .B      CMP      r4,r0
        0x010009c4:    d011        ..      BEQ      0x10009ea ; GPIO_ReadInputDataBit + 118
        0x010009c6:    0040        @.      LSLS     r0,r0,#1
        0x010009c8:    4284        .B      CMP      r4,r0
        0x010009ca:    d00e        ..      BEQ      0x10009ea ; GPIO_ReadInputDataBit + 118
        0x010009cc:    0040        @.      LSLS     r0,r0,#1
        0x010009ce:    4284        .B      CMP      r4,r0
        0x010009d0:    d00b        ..      BEQ      0x10009ea ; GPIO_ReadInputDataBit + 118
        0x010009d2:    0040        @.      LSLS     r0,r0,#1
        0x010009d4:    4284        .B      CMP      r4,r0
        0x010009d6:    d008        ..      BEQ      0x10009ea ; GPIO_ReadInputDataBit + 118
        0x010009d8:    0040        @.      LSLS     r0,r0,#1
        0x010009da:    4284        .B      CMP      r4,r0
        0x010009dc:    d005        ..      BEQ      0x10009ea ; GPIO_ReadInputDataBit + 118
        0x010009de:    4a54        TJ      LDR      r2,[pc,#336] ; [0x1000b30] = 0x1004018
        0x010009e0:    2172        r!      MOVS     r1,#0x72
        0x010009e2:    3238        82      ADDS     r2,r2,#0x38
        0x010009e4:    a053        S.      ADR      r0,{pc}+0x150 ; 0x1000b34
        0x010009e6:    f7fffe89    ....    BL       _assert_handler ; 0x10006fc
        0x010009ea:    495c        \I      LDR      r1,[pc,#368] ; [0x1000b5c] = 0xf8700
        0x010009ec:    0068        h.      LSLS     r0,r5,#1
        0x010009ee:    1840        @.      ADDS     r0,r0,r1
        0x010009f0:    8f80        ..      LDRH     r0,[r0,#0x3c]
        0x010009f2:    4020         @      ANDS     r0,r0,r4
        0x010009f4:    d000        ..      BEQ      0x10009f8 ; GPIO_ReadInputDataBit + 132
        0x010009f6:    2001        .       MOVS     r0,#1
        0x010009f8:    bd70        p.      POP      {r4-r6,pc}
    GPIO_ReadOutputData
        0x010009fa:    b510        ..      PUSH     {r4,lr}
        0x010009fc:    4604        .F      MOV      r4,r0
        0x010009fe:    2803        .(      CMP      r0,#3
        0x01000a00:    d305        ..      BCC      0x1000a0e ; GPIO_ReadOutputData + 20
        0x01000a02:    4a4b        KJ      LDR      r2,[pc,#300] ; [0x1000b30] = 0x1004018
        0x01000a04:    2180        .!      MOVS     r1,#0x80
        0x01000a06:    324e        N2      ADDS     r2,r2,#0x4e
        0x01000a08:    a04a        J.      ADR      r0,{pc}+0x12c ; 0x1000b34
        0x01000a0a:    f7fffe77    ..w.    BL       _assert_handler ; 0x10006fc
        0x01000a0e:    4953        SI      LDR      r1,[pc,#332] ; [0x1000b5c] = 0xf8700
        0x01000a10:    0060        `.      LSLS     r0,r4,#1
        0x01000a12:    1840        @.      ADDS     r0,r0,r1
        0x01000a14:    8f80        ..      LDRH     r0,[r0,#0x3c]
        0x01000a16:    bd10        ..      POP      {r4,pc}
    GPIO_ReadOutputDataBit
        0x01000a18:    b570        p.      PUSH     {r4-r6,lr}
        0x01000a1a:    460c        .F      MOV      r4,r1
        0x01000a1c:    4605        .F      MOV      r5,r0
        0x01000a1e:    2803        .(      CMP      r0,#3
        0x01000a20:    d305        ..      BCC      0x1000a2e ; GPIO_ReadOutputDataBit + 22
        0x01000a22:    4a43        CJ      LDR      r2,[pc,#268] ; [0x1000b30] = 0x1004018
        0x01000a24:    2187        .!      MOVS     r1,#0x87
        0x01000a26:    3262        b2      ADDS     r2,r2,#0x62
        0x01000a28:    a042        B.      ADR      r0,{pc}+0x10c ; 0x1000b34
        0x01000a2a:    f7fffe67    ..g.    BL       _assert_handler ; 0x10006fc
        0x01000a2e:    2c01        .,      CMP      r4,#1
        0x01000a30:    d02d        -.      BEQ      0x1000a8e ; GPIO_ReadOutputDataBit + 118
        0x01000a32:    2c02        .,      CMP      r4,#2
        0x01000a34:    d02b        +.      BEQ      0x1000a8e ; GPIO_ReadOutputDataBit + 118
        0x01000a36:    2c04        .,      CMP      r4,#4
        0x01000a38:    d029        ).      BEQ      0x1000a8e ; GPIO_ReadOutputDataBit + 118
        0x01000a3a:    2c08        .,      CMP      r4,#8
        0x01000a3c:    d027        '.      BEQ      0x1000a8e ; GPIO_ReadOutputDataBit + 118
        0x01000a3e:    2c10        .,      CMP      r4,#0x10
        0x01000a40:    d025        %.      BEQ      0x1000a8e ; GPIO_ReadOutputDataBit + 118
        0x01000a42:    2c20         ,      CMP      r4,#0x20
        0x01000a44:    d023        #.      BEQ      0x1000a8e ; GPIO_ReadOutputDataBit + 118
        0x01000a46:    2c40        @,      CMP      r4,#0x40
        0x01000a48:    d021        !.      BEQ      0x1000a8e ; GPIO_ReadOutputDataBit + 118
        0x01000a4a:    2c80        .,      CMP      r4,#0x80
        0x01000a4c:    d01f        ..      BEQ      0x1000a8e ; GPIO_ReadOutputDataBit + 118
        0x01000a4e:    1fe0        ..      SUBS     r0,r4,#7
        0x01000a50:    38f9        .8      SUBS     r0,r0,#0xf9
        0x01000a52:    d01c        ..      BEQ      0x1000a8e ; GPIO_ReadOutputDataBit + 118
        0x01000a54:    1fe0        ..      SUBS     r0,r4,#7
        0x01000a56:    38ff        .8      SUBS     r0,r0,#0xff
        0x01000a58:    38fa        .8      SUBS     r0,r0,#0xfa
        0x01000a5a:    d018        ..      BEQ      0x1000a8e ; GPIO_ReadOutputDataBit + 118
        0x01000a5c:    2001        .       MOVS     r0,#1
        0x01000a5e:    0280        ..      LSLS     r0,r0,#10
        0x01000a60:    4284        .B      CMP      r4,r0
        0x01000a62:    d014        ..      BEQ      0x1000a8e ; GPIO_ReadOutputDataBit + 118
        0x01000a64:    0040        @.      LSLS     r0,r0,#1
        0x01000a66:    4284        .B      CMP      r4,r0
        0x01000a68:    d011        ..      BEQ      0x1000a8e ; GPIO_ReadOutputDataBit + 118
        0x01000a6a:    0040        @.      LSLS     r0,r0,#1
        0x01000a6c:    4284        .B      CMP      r4,r0
        0x01000a6e:    d00e        ..      BEQ      0x1000a8e ; GPIO_ReadOutputDataBit + 118
        0x01000a70:    0040        @.      LSLS     r0,r0,#1
        0x01000a72:    4284        .B      CMP      r4,r0
        0x01000a74:    d00b        ..      BEQ      0x1000a8e ; GPIO_ReadOutputDataBit + 118
        0x01000a76:    0040        @.      LSLS     r0,r0,#1
        0x01000a78:    4284        .B      CMP      r4,r0
        0x01000a7a:    d008        ..      BEQ      0x1000a8e ; GPIO_ReadOutputDataBit + 118
        0x01000a7c:    0040        @.      LSLS     r0,r0,#1
        0x01000a7e:    4284        .B      CMP      r4,r0
        0x01000a80:    d005        ..      BEQ      0x1000a8e ; GPIO_ReadOutputDataBit + 118
        0x01000a82:    4a2b        +J      LDR      r2,[pc,#172] ; [0x1000b30] = 0x1004018
        0x01000a84:    2188        .!      MOVS     r1,#0x88
        0x01000a86:    3262        b2      ADDS     r2,r2,#0x62
        0x01000a88:    a02a        *.      ADR      r0,{pc}+0xac ; 0x1000b34
        0x01000a8a:    f7fffe37    ..7.    BL       _assert_handler ; 0x10006fc
        0x01000a8e:    4933        3I      LDR      r1,[pc,#204] ; [0x1000b5c] = 0xf8700
        0x01000a90:    0068        h.      LSLS     r0,r5,#1
        0x01000a92:    1840        @.      ADDS     r0,r0,r1
        0x01000a94:    8f80        ..      LDRH     r0,[r0,#0x3c]
        0x01000a96:    4020         @      ANDS     r0,r0,r4
        0x01000a98:    d000        ..      BEQ      0x1000a9c ; GPIO_ReadOutputDataBit + 132
        0x01000a9a:    2001        .       MOVS     r0,#1
        0x01000a9c:    bd70        p.      POP      {r4-r6,pc}
    GPIO_ResetBits
        0x01000a9e:    b5f8        ..      PUSH     {r3-r7,lr}
        0x01000aa0:    460c        .F      MOV      r4,r1
        0x01000aa2:    4605        .F      MOV      r5,r0
        0x01000aa4:    2803        .(      CMP      r0,#3
        0x01000aa6:    d305        ..      BCC      0x1000ab4 ; GPIO_ResetBits + 22
        0x01000aa8:    4a21        !J      LDR      r2,[pc,#132] ; [0x1000b30] = 0x1004018
        0x01000aaa:    2196        .!      MOVS     r1,#0x96
        0x01000aac:    3279        y2      ADDS     r2,r2,#0x79
        0x01000aae:    a021        !.      ADR      r0,{pc}+0x86 ; 0x1000b34
        0x01000ab0:    f7fffe24    ..$.    BL       _assert_handler ; 0x10006fc
        0x01000ab4:    2c01        .,      CMP      r4,#1
        0x01000ab6:    d02d        -.      BEQ      0x1000b14 ; GPIO_ResetBits + 118
        0x01000ab8:    2c02        .,      CMP      r4,#2
        0x01000aba:    d02b        +.      BEQ      0x1000b14 ; GPIO_ResetBits + 118
        0x01000abc:    2c04        .,      CMP      r4,#4
        0x01000abe:    d029        ).      BEQ      0x1000b14 ; GPIO_ResetBits + 118
        0x01000ac0:    2c08        .,      CMP      r4,#8
        0x01000ac2:    d027        '.      BEQ      0x1000b14 ; GPIO_ResetBits + 118
        0x01000ac4:    2c10        .,      CMP      r4,#0x10
        0x01000ac6:    d025        %.      BEQ      0x1000b14 ; GPIO_ResetBits + 118
        0x01000ac8:    2c20         ,      CMP      r4,#0x20
        0x01000aca:    d023        #.      BEQ      0x1000b14 ; GPIO_ResetBits + 118
        0x01000acc:    2c40        @,      CMP      r4,#0x40
        0x01000ace:    d021        !.      BEQ      0x1000b14 ; GPIO_ResetBits + 118
        0x01000ad0:    2c80        .,      CMP      r4,#0x80
        0x01000ad2:    d01f        ..      BEQ      0x1000b14 ; GPIO_ResetBits + 118
        0x01000ad4:    1fe0        ..      SUBS     r0,r4,#7
        0x01000ad6:    38f9        .8      SUBS     r0,r0,#0xf9
        0x01000ad8:    d01c        ..      BEQ      0x1000b14 ; GPIO_ResetBits + 118
        0x01000ada:    1fe0        ..      SUBS     r0,r4,#7
        0x01000adc:    38ff        .8      SUBS     r0,r0,#0xff
        0x01000ade:    38fa        .8      SUBS     r0,r0,#0xfa
        0x01000ae0:    d018        ..      BEQ      0x1000b14 ; GPIO_ResetBits + 118
        0x01000ae2:    2001        .       MOVS     r0,#1
        0x01000ae4:    0280        ..      LSLS     r0,r0,#10
        0x01000ae6:    4284        .B      CMP      r4,r0
        0x01000ae8:    d014        ..      BEQ      0x1000b14 ; GPIO_ResetBits + 118
        0x01000aea:    0040        @.      LSLS     r0,r0,#1
        0x01000aec:    4284        .B      CMP      r4,r0
        0x01000aee:    d011        ..      BEQ      0x1000b14 ; GPIO_ResetBits + 118
        0x01000af0:    0040        @.      LSLS     r0,r0,#1
        0x01000af2:    4284        .B      CMP      r4,r0
        0x01000af4:    d00e        ..      BEQ      0x1000b14 ; GPIO_ResetBits + 118
        0x01000af6:    0040        @.      LSLS     r0,r0,#1
        0x01000af8:    4284        .B      CMP      r4,r0
        0x01000afa:    d00b        ..      BEQ      0x1000b14 ; GPIO_ResetBits + 118
        0x01000afc:    0040        @.      LSLS     r0,r0,#1
        0x01000afe:    4284        .B      CMP      r4,r0
        0x01000b00:    d008        ..      BEQ      0x1000b14 ; GPIO_ResetBits + 118
        0x01000b02:    0040        @.      LSLS     r0,r0,#1
        0x01000b04:    4284        .B      CMP      r4,r0
        0x01000b06:    d005        ..      BEQ      0x1000b14 ; GPIO_ResetBits + 118
        0x01000b08:    4a09        .J      LDR      r2,[pc,#36] ; [0x1000b30] = 0x1004018
        0x01000b0a:    2197        .!      MOVS     r1,#0x97
        0x01000b0c:    3279        y2      ADDS     r2,r2,#0x79
        0x01000b0e:    a009        ..      ADR      r0,{pc}+0x26 ; 0x1000b34
        0x01000b10:    f7fffdf4    ....    BL       _assert_handler ; 0x10006fc
        0x01000b14:    2100        .!      MOVS     r1,#0
        0x01000b16:    2301        .#      MOVS     r3,#1
        0x01000b18:    4e10        .N      LDR      r6,[pc,#64] ; [0x1000b5c] = 0xf8700
        0x01000b1a:    273f        ?'      MOVS     r7,#0x3f
        0x01000b1c:    012d        -.      LSLS     r5,r5,#4
        0x01000b1e:    4618        .F      MOV      r0,r3
        0x01000b20:    4088        .@      LSLS     r0,r0,r1
        0x01000b22:    4220         B      TST      r0,r4
        0x01000b24:    d01f        ..      BEQ      0x1000b66 ; GPIO_ResetBits + 200
        0x01000b26:    1868        h.      ADDS     r0,r5,r1
        0x01000b28:    1980        ..      ADDS     r0,r0,r6
        0x01000b2a:    7802        .x      LDRB     r2,[r0,#0]
        0x01000b2c:    433a        :C      ORRS     r2,r2,r7
        0x01000b2e:    e017        ..      B        0x1000b60 ; GPIO_ResetBits + 194
    $d
        0x01000b30:    01004018    .@..    DCD    16793624
        0x01000b34:    2e5c2e2e    ..\.    DCD    777793070
        0x01000b38:    61685c2e    .\ha    DCD    1634229294
        0x01000b3c:    61776472    rdwa    DCD    1635214450
        0x01000b40:    4c5c6572    re\L    DCD    1281123698
        0x01000b44:    61726269    ibra    DCD    1634886249
        0x01000b48:    72656972    rier    DCD    1919248754
        0x01000b4c:    6b64735c    \sdk    DCD    1801745244
        0x01000b50:    5f63795c    \yc_    DCD    1600354652
        0x01000b54:    6f697067    gpio    DCD    1869181031
        0x01000b58:    0000632e    .c..    DCD    25390
        0x01000b5c:    000f8700    ....    DCD    1017600
    $t
        0x01000b60:    0852        R.      LSRS     r2,r2,#1
        0x01000b62:    0052        R.      LSLS     r2,r2,#1
        0x01000b64:    7002        .p      STRB     r2,[r0,#0]
        0x01000b66:    1c49        I.      ADDS     r1,r1,#1
        0x01000b68:    2910        .)      CMP      r1,#0x10
        0x01000b6a:    dbd8        ..      BLT      0x1000b1e ; GPIO_ResetBits + 128
        0x01000b6c:    bdf8        ..      POP      {r3-r7,pc}
    GPIO_SetBits
        0x01000b6e:    b5f8        ..      PUSH     {r3-r7,lr}
        0x01000b70:    460c        .F      MOV      r4,r1
        0x01000b72:    4605        .F      MOV      r5,r0
        0x01000b74:    2803        .(      CMP      r0,#3
        0x01000b76:    d304        ..      BCC      0x1000b82 ; GPIO_SetBits + 20
        0x01000b78:    4a5a        ZJ      LDR      r2,[pc,#360] ; [0x1000ce4] = 0x10040a0
        0x01000b7a:    21aa        .!      MOVS     r1,#0xaa
        0x01000b7c:    485a        ZH      LDR      r0,[pc,#360] ; [0x1000ce8] = 0x1000b34
        0x01000b7e:    f7fffdbd    ....    BL       _assert_handler ; 0x10006fc
        0x01000b82:    2c01        .,      CMP      r4,#1
        0x01000b84:    d02c        ,.      BEQ      0x1000be0 ; GPIO_SetBits + 114
        0x01000b86:    2c02        .,      CMP      r4,#2
        0x01000b88:    d02a        *.      BEQ      0x1000be0 ; GPIO_SetBits + 114
        0x01000b8a:    2c04        .,      CMP      r4,#4
        0x01000b8c:    d028        (.      BEQ      0x1000be0 ; GPIO_SetBits + 114
        0x01000b8e:    2c08        .,      CMP      r4,#8
        0x01000b90:    d026        &.      BEQ      0x1000be0 ; GPIO_SetBits + 114
        0x01000b92:    2c10        .,      CMP      r4,#0x10
        0x01000b94:    d024        $.      BEQ      0x1000be0 ; GPIO_SetBits + 114
        0x01000b96:    2c20         ,      CMP      r4,#0x20
        0x01000b98:    d022        ".      BEQ      0x1000be0 ; GPIO_SetBits + 114
        0x01000b9a:    2c40        @,      CMP      r4,#0x40
        0x01000b9c:    d020         .      BEQ      0x1000be0 ; GPIO_SetBits + 114
        0x01000b9e:    2c80        .,      CMP      r4,#0x80
        0x01000ba0:    d01e        ..      BEQ      0x1000be0 ; GPIO_SetBits + 114
        0x01000ba2:    1fe0        ..      SUBS     r0,r4,#7
        0x01000ba4:    38f9        .8      SUBS     r0,r0,#0xf9
        0x01000ba6:    d01b        ..      BEQ      0x1000be0 ; GPIO_SetBits + 114
        0x01000ba8:    1fe0        ..      SUBS     r0,r4,#7
        0x01000baa:    38ff        .8      SUBS     r0,r0,#0xff
        0x01000bac:    38fa        .8      SUBS     r0,r0,#0xfa
        0x01000bae:    d017        ..      BEQ      0x1000be0 ; GPIO_SetBits + 114
        0x01000bb0:    2001        .       MOVS     r0,#1
        0x01000bb2:    0280        ..      LSLS     r0,r0,#10
        0x01000bb4:    4284        .B      CMP      r4,r0
        0x01000bb6:    d013        ..      BEQ      0x1000be0 ; GPIO_SetBits + 114
        0x01000bb8:    0040        @.      LSLS     r0,r0,#1
        0x01000bba:    4284        .B      CMP      r4,r0
        0x01000bbc:    d010        ..      BEQ      0x1000be0 ; GPIO_SetBits + 114
        0x01000bbe:    0040        @.      LSLS     r0,r0,#1
        0x01000bc0:    4284        .B      CMP      r4,r0
        0x01000bc2:    d00d        ..      BEQ      0x1000be0 ; GPIO_SetBits + 114
        0x01000bc4:    0040        @.      LSLS     r0,r0,#1
        0x01000bc6:    4284        .B      CMP      r4,r0
        0x01000bc8:    d00a        ..      BEQ      0x1000be0 ; GPIO_SetBits + 114
        0x01000bca:    0040        @.      LSLS     r0,r0,#1
        0x01000bcc:    4284        .B      CMP      r4,r0
        0x01000bce:    d007        ..      BEQ      0x1000be0 ; GPIO_SetBits + 114
        0x01000bd0:    0040        @.      LSLS     r0,r0,#1
        0x01000bd2:    4284        .B      CMP      r4,r0
        0x01000bd4:    d004        ..      BEQ      0x1000be0 ; GPIO_SetBits + 114
        0x01000bd6:    4a43        CJ      LDR      r2,[pc,#268] ; [0x1000ce4] = 0x10040a0
        0x01000bd8:    21ab        .!      MOVS     r1,#0xab
        0x01000bda:    4843        CH      LDR      r0,[pc,#268] ; [0x1000ce8] = 0x1000b34
        0x01000bdc:    f7fffd8e    ....    BL       _assert_handler ; 0x10006fc
        0x01000be0:    2100        .!      MOVS     r1,#0
        0x01000be2:    2301        .#      MOVS     r3,#1
        0x01000be4:    4e41        AN      LDR      r6,[pc,#260] ; [0x1000cec] = 0xf8700
        0x01000be6:    273f        ?'      MOVS     r7,#0x3f
        0x01000be8:    012d        -.      LSLS     r5,r5,#4
        0x01000bea:    4618        .F      MOV      r0,r3
        0x01000bec:    4088        .@      LSLS     r0,r0,r1
        0x01000bee:    4220         B      TST      r0,r4
        0x01000bf0:    d004        ..      BEQ      0x1000bfc ; GPIO_SetBits + 142
        0x01000bf2:    1868        h.      ADDS     r0,r5,r1
        0x01000bf4:    1980        ..      ADDS     r0,r0,r6
        0x01000bf6:    7802        .x      LDRB     r2,[r0,#0]
        0x01000bf8:    433a        :C      ORRS     r2,r2,r7
        0x01000bfa:    7002        .p      STRB     r2,[r0,#0]
        0x01000bfc:    1c49        I.      ADDS     r1,r1,#1
        0x01000bfe:    2910        .)      CMP      r1,#0x10
        0x01000c00:    dbf3        ..      BLT      0x1000bea ; GPIO_SetBits + 124
        0x01000c02:    bdf8        ..      POP      {r3-r7,pc}
    GPIO_StructInit
        0x01000c04:    2100        .!      MOVS     r1,#0
        0x01000c06:    43c9        .C      MVNS     r1,r1
        0x01000c08:    8001        ..      STRH     r1,[r0,#0]
        0x01000c0a:    2101        .!      MOVS     r1,#1
        0x01000c0c:    7081        .p      STRB     r1,[r0,#2]
        0x01000c0e:    4770        pG      BX       lr
    GPIO_Write
        0x01000c10:    b5f8        ..      PUSH     {r3-r7,lr}
        0x01000c12:    460d        .F      MOV      r5,r1
        0x01000c14:    4607        .F      MOV      r7,r0
        0x01000c16:    2803        .(      CMP      r0,#3
        0x01000c18:    d305        ..      BCC      0x1000c26 ; GPIO_Write + 22
        0x01000c1a:    4a32        2J      LDR      r2,[pc,#200] ; [0x1000ce4] = 0x10040a0
        0x01000c1c:    21be        .!      MOVS     r1,#0xbe
        0x01000c1e:    320d        .2      ADDS     r2,r2,#0xd
        0x01000c20:    4831        1H      LDR      r0,[pc,#196] ; [0x1000ce8] = 0x1000b34
        0x01000c22:    f7fffd6b    ..k.    BL       _assert_handler ; 0x10006fc
        0x01000c26:    2400        .$      MOVS     r4,#0
        0x01000c28:    2601        .&      MOVS     r6,#1
        0x01000c2a:    4630        0F      MOV      r0,r6
        0x01000c2c:    40a0        .@      LSLS     r0,r0,r4
        0x01000c2e:    4601        .F      MOV      r1,r0
        0x01000c30:    4029        )@      ANDS     r1,r1,r5
        0x01000c32:    40e1        .@      LSRS     r1,r1,r4
        0x01000c34:    d004        ..      BEQ      0x1000c40 ; GPIO_Write + 48
        0x01000c36:    b281        ..      UXTH     r1,r0
        0x01000c38:    4638        8F      MOV      r0,r7
        0x01000c3a:    f7ffff98    ....    BL       GPIO_SetBits ; 0x1000b6e
        0x01000c3e:    e003        ..      B        0x1000c48 ; GPIO_Write + 56
        0x01000c40:    b281        ..      UXTH     r1,r0
        0x01000c42:    4638        8F      MOV      r0,r7
        0x01000c44:    f7ffff2b    ..+.    BL       GPIO_ResetBits ; 0x1000a9e
        0x01000c48:    1c64        d.      ADDS     r4,r4,#1
        0x01000c4a:    2c10        .,      CMP      r4,#0x10
        0x01000c4c:    dbed        ..      BLT      0x1000c2a ; GPIO_Write + 26
        0x01000c4e:    bdf8        ..      POP      {r3-r7,pc}
    GPIO_WriteBit
        0x01000c50:    b570        p.      PUSH     {r4-r6,lr}
        0x01000c52:    4615        .F      MOV      r5,r2
        0x01000c54:    460c        .F      MOV      r4,r1
        0x01000c56:    4606        .F      MOV      r6,r0
        0x01000c58:    2803        .(      CMP      r0,#3
        0x01000c5a:    d305        ..      BCC      0x1000c68 ; GPIO_WriteBit + 24
        0x01000c5c:    4a21        !J      LDR      r2,[pc,#132] ; [0x1000ce4] = 0x10040a0
        0x01000c5e:    21cd        .!      MOVS     r1,#0xcd
        0x01000c60:    3218        .2      ADDS     r2,r2,#0x18
        0x01000c62:    4821        !H      LDR      r0,[pc,#132] ; [0x1000ce8] = 0x1000b34
        0x01000c64:    f7fffd4a    ..J.    BL       _assert_handler ; 0x10006fc
        0x01000c68:    2c01        .,      CMP      r4,#1
        0x01000c6a:    d02d        -.      BEQ      0x1000cc8 ; GPIO_WriteBit + 120
        0x01000c6c:    2c02        .,      CMP      r4,#2
        0x01000c6e:    d02b        +.      BEQ      0x1000cc8 ; GPIO_WriteBit + 120
        0x01000c70:    2c04        .,      CMP      r4,#4
        0x01000c72:    d029        ).      BEQ      0x1000cc8 ; GPIO_WriteBit + 120
        0x01000c74:    2c08        .,      CMP      r4,#8
        0x01000c76:    d027        '.      BEQ      0x1000cc8 ; GPIO_WriteBit + 120
        0x01000c78:    2c10        .,      CMP      r4,#0x10
        0x01000c7a:    d025        %.      BEQ      0x1000cc8 ; GPIO_WriteBit + 120
        0x01000c7c:    2c20         ,      CMP      r4,#0x20
        0x01000c7e:    d023        #.      BEQ      0x1000cc8 ; GPIO_WriteBit + 120
        0x01000c80:    2c40        @,      CMP      r4,#0x40
        0x01000c82:    d021        !.      BEQ      0x1000cc8 ; GPIO_WriteBit + 120
        0x01000c84:    2c80        .,      CMP      r4,#0x80
        0x01000c86:    d01f        ..      BEQ      0x1000cc8 ; GPIO_WriteBit + 120
        0x01000c88:    1fe0        ..      SUBS     r0,r4,#7
        0x01000c8a:    38f9        .8      SUBS     r0,r0,#0xf9
        0x01000c8c:    d01c        ..      BEQ      0x1000cc8 ; GPIO_WriteBit + 120
        0x01000c8e:    1fe0        ..      SUBS     r0,r4,#7
        0x01000c90:    38ff        .8      SUBS     r0,r0,#0xff
        0x01000c92:    38fa        .8      SUBS     r0,r0,#0xfa
        0x01000c94:    d018        ..      BEQ      0x1000cc8 ; GPIO_WriteBit + 120
        0x01000c96:    2001        .       MOVS     r0,#1
        0x01000c98:    0280        ..      LSLS     r0,r0,#10
        0x01000c9a:    4284        .B      CMP      r4,r0
        0x01000c9c:    d014        ..      BEQ      0x1000cc8 ; GPIO_WriteBit + 120
        0x01000c9e:    0040        @.      LSLS     r0,r0,#1
        0x01000ca0:    4284        .B      CMP      r4,r0
        0x01000ca2:    d011        ..      BEQ      0x1000cc8 ; GPIO_WriteBit + 120
        0x01000ca4:    0040        @.      LSLS     r0,r0,#1
        0x01000ca6:    4284        .B      CMP      r4,r0
        0x01000ca8:    d00e        ..      BEQ      0x1000cc8 ; GPIO_WriteBit + 120
        0x01000caa:    0040        @.      LSLS     r0,r0,#1
        0x01000cac:    4284        .B      CMP      r4,r0
        0x01000cae:    d00b        ..      BEQ      0x1000cc8 ; GPIO_WriteBit + 120
        0x01000cb0:    0040        @.      LSLS     r0,r0,#1
        0x01000cb2:    4284        .B      CMP      r4,r0
        0x01000cb4:    d008        ..      BEQ      0x1000cc8 ; GPIO_WriteBit + 120
        0x01000cb6:    0040        @.      LSLS     r0,r0,#1
        0x01000cb8:    4284        .B      CMP      r4,r0
        0x01000cba:    d005        ..      BEQ      0x1000cc8 ; GPIO_WriteBit + 120
        0x01000cbc:    4a09        .J      LDR      r2,[pc,#36] ; [0x1000ce4] = 0x10040a0
        0x01000cbe:    21ce        .!      MOVS     r1,#0xce
        0x01000cc0:    3218        .2      ADDS     r2,r2,#0x18
        0x01000cc2:    4809        .H      LDR      r0,[pc,#36] ; [0x1000ce8] = 0x1000b34
        0x01000cc4:    f7fffd1a    ....    BL       _assert_handler ; 0x10006fc
        0x01000cc8:    2d01        .-      CMP      r5,#1
        0x01000cca:    d006        ..      BEQ      0x1000cda ; GPIO_WriteBit + 138
        0x01000ccc:    2d00        .-      CMP      r5,#0
        0x01000cce:    d103        ..      BNE      0x1000cd8 ; GPIO_WriteBit + 136
        0x01000cd0:    4621        !F      MOV      r1,r4
        0x01000cd2:    4630        0F      MOV      r0,r6
        0x01000cd4:    f7fffee3    ....    BL       GPIO_ResetBits ; 0x1000a9e
        0x01000cd8:    bd70        p.      POP      {r4-r6,pc}
        0x01000cda:    4621        !F      MOV      r1,r4
        0x01000cdc:    4630        0F      MOV      r0,r6
        0x01000cde:    f7ffff46    ..F.    BL       GPIO_SetBits ; 0x1000b6e
        0x01000ce2:    bd70        p.      POP      {r4-r6,pc}
    $d
        0x01000ce4:    010040a0    .@..    DCD    16793760
        0x01000ce8:    01000b34    4...    DCD    16780084
        0x01000cec:    000f8700    ....    DCD    1017600
    $t
    .text
    EXTI_ClearITPendingBit
        0x01000cf0:    b570        p.      PUSH     {r4-r6,lr}
        0x01000cf2:    460c        .F      MOV      r4,r1
        0x01000cf4:    0005        ..      MOVS     r5,r0
        0x01000cf6:    d008        ..      BEQ      0x1000d0a ; EXTI_ClearITPendingBit + 26
        0x01000cf8:    2d01        .-      CMP      r5,#1
        0x01000cfa:    d006        ..      BEQ      0x1000d0a ; EXTI_ClearITPendingBit + 26
        0x01000cfc:    2d02        .-      CMP      r5,#2
        0x01000cfe:    d004        ..      BEQ      0x1000d0a ; EXTI_ClearITPendingBit + 26
        0x01000d00:    4a80        .J      LDR      r2,[pc,#512] ; [0x1000f04] = 0x10040c6
        0x01000d02:    210e        .!      MOVS     r1,#0xe
        0x01000d04:    a080        ..      ADR      r0,{pc}+0x204 ; 0x1000f08
        0x01000d06:    f7fffcf9    ....    BL       _assert_handler ; 0x10006fc
        0x01000d0a:    2c00        .,      CMP      r4,#0
        0x01000d0c:    d104        ..      BNE      0x1000d18 ; EXTI_ClearITPendingBit + 40
        0x01000d0e:    4a7d        }J      LDR      r2,[pc,#500] ; [0x1000f04] = 0x10040c6
        0x01000d10:    210f        .!      MOVS     r1,#0xf
        0x01000d12:    a07d        }.      ADR      r0,{pc}+0x1f6 ; 0x1000f08
        0x01000d14:    f7fffcf2    ....    BL       _assert_handler ; 0x10006fc
        0x01000d18:    4885        .H      LDR      r0,[pc,#532] ; [0x1000f30] = 0xf8700
        0x01000d1a:    0069        i.      LSLS     r1,r5,#1
        0x01000d1c:    180a        ..      ADDS     r2,r1,r0
        0x01000d1e:    8ed0        ..      LDRH     r0,[r2,#0x36]
        0x01000d20:    4220         B      TST      r0,r4
        0x01000d22:    d001        ..      BEQ      0x1000d28 ; EXTI_ClearITPendingBit + 56
        0x01000d24:    43a0        .C      BICS     r0,r0,r4
        0x01000d26:    e000        ..      B        0x1000d2a ; EXTI_ClearITPendingBit + 58
        0x01000d28:    4320         C      ORRS     r0,r0,r4
        0x01000d2a:    86d0        ..      STRH     r0,[r2,#0x36]
        0x01000d2c:    4881        .H      LDR      r0,[pc,#516] ; [0x1000f34] = 0x20012
        0x01000d2e:    5a42        BZ      LDRH     r2,[r0,r1]
        0x01000d30:    43a2        .C      BICS     r2,r2,r4
        0x01000d32:    5242        BR      STRH     r2,[r0,r1]
        0x01000d34:    bd70        p.      POP      {r4-r6,pc}
    EXTI_DeInit
        0x01000d36:    b5f0        ..      PUSH     {r4-r7,lr}
        0x01000d38:    4d7e        ~M      LDR      r5,[pc,#504] ; [0x1000f34] = 0x20012
        0x01000d3a:    2100        .!      MOVS     r1,#0
        0x01000d3c:    3d12        .=      SUBS     r5,r5,#0x12
        0x01000d3e:    4e7c        |N      LDR      r6,[pc,#496] ; [0x1000f30] = 0xf8700
        0x01000d40:    462f        /F      MOV      r7,r5
        0x01000d42:    460a        .F      MOV      r2,r1
        0x01000d44:    370c        .7      ADDS     r7,r7,#0xc
        0x01000d46:    0048        H.      LSLS     r0,r1,#1
        0x01000d48:    522a        *R      STRH     r2,[r5,r0]
        0x01000d4a:    1983        ..      ADDS     r3,r0,r6
        0x01000d4c:    861a        ..      STRH     r2,[r3,#0x30]
        0x01000d4e:    4c79        yL      LDR      r4,[pc,#484] ; [0x1000f34] = 0x20012
        0x01000d50:    3c0c        .<      SUBS     r4,r4,#0xc
        0x01000d52:    5222        "R      STRH     r2,[r4,r0]
        0x01000d54:    523a        :R      STRH     r2,[r7,r0]
        0x01000d56:    340c        .4      ADDS     r4,r4,#0xc
        0x01000d58:    5222        "R      STRH     r2,[r4,r0]
        0x01000d5a:    86da        ..      STRH     r2,[r3,#0x36]
        0x01000d5c:    1c49        I.      ADDS     r1,r1,#1
        0x01000d5e:    2903        .)      CMP      r1,#3
        0x01000d60:    d3f1        ..      BCC      0x1000d46 ; EXTI_DeInit + 16
        0x01000d62:    bdf0        ..      POP      {r4-r7,pc}
    EXTI_GetITLineStatus
        0x01000d64:    4973        sI      LDR      r1,[pc,#460] ; [0x1000f34] = 0x20012
        0x01000d66:    0040        @.      LSLS     r0,r0,#1
        0x01000d68:    5a08        .Z      LDRH     r0,[r1,r0]
        0x01000d6a:    4770        pG      BX       lr
    EXTI_LineConfig
        0x01000d6c:    b5f7        ..      PUSH     {r0-r2,r4-r7,lr}
        0x01000d6e:    b082        ..      SUB      sp,sp,#8
        0x01000d70:    9802        ..      LDR      r0,[sp,#8]
        0x01000d72:    460d        .F      MOV      r5,r1
        0x01000d74:    2800        .(      CMP      r0,#0
        0x01000d76:    d009        ..      BEQ      0x1000d8c ; EXTI_LineConfig + 32
        0x01000d78:    2801        .(      CMP      r0,#1
        0x01000d7a:    d007        ..      BEQ      0x1000d8c ; EXTI_LineConfig + 32
        0x01000d7c:    2802        .(      CMP      r0,#2
        0x01000d7e:    d005        ..      BEQ      0x1000d8c ; EXTI_LineConfig + 32
        0x01000d80:    4a60        `J      LDR      r2,[pc,#384] ; [0x1000f04] = 0x10040c6
        0x01000d82:    2134        4!      MOVS     r1,#0x34
        0x01000d84:    3217        .2      ADDS     r2,r2,#0x17
        0x01000d86:    a060        `.      ADR      r0,{pc}+0x182 ; 0x1000f08
        0x01000d88:    f7fffcb8    ....    BL       _assert_handler ; 0x10006fc
        0x01000d8c:    2d00        .-      CMP      r5,#0
        0x01000d8e:    d105        ..      BNE      0x1000d9c ; EXTI_LineConfig + 48
        0x01000d90:    4a5c        \J      LDR      r2,[pc,#368] ; [0x1000f04] = 0x10040c6
        0x01000d92:    2135        5!      MOVS     r1,#0x35
        0x01000d94:    3217        .2      ADDS     r2,r2,#0x17
        0x01000d96:    a05c        \.      ADR      r0,{pc}+0x172 ; 0x1000f08
        0x01000d98:    f7fffcb0    ....    BL       _assert_handler ; 0x10006fc
        0x01000d9c:    9802        ..      LDR      r0,[sp,#8]
        0x01000d9e:    4a64        dJ      LDR      r2,[pc,#400] ; [0x1000f30] = 0xf8700
        0x01000da0:    0044        D.      LSLS     r4,r0,#1
        0x01000da2:    18a0        ..      ADDS     r0,r4,r2
        0x01000da4:    9000        ..      STR      r0,[sp,#0]
        0x01000da6:    8ec6        ..      LDRH     r6,[r0,#0x36]
        0x01000da8:    2100        .!      MOVS     r1,#0
        0x01000daa:    4b62        bK      LDR      r3,[pc,#392] ; [0x1000f34] = 0x20012
        0x01000dac:    460a        .F      MOV      r2,r1
        0x01000dae:    3b0c        .;      SUBS     r3,r3,#0xc
        0x01000db0:    4f5f        _O      LDR      r7,[pc,#380] ; [0x1000f30] = 0xf8700
        0x01000db2:    0048        H.      LSLS     r0,r1,#1
        0x01000db4:    19c7        ..      ADDS     r7,r0,r7
        0x01000db6:    8e3f        ?.      LDRH     r7,[r7,#0x30]
        0x01000db8:    2f00        ./      CMP      r7,#0
        0x01000dba:    d107        ..      BNE      0x1000dcc ; EXTI_LineConfig + 96
        0x01000dbc:    4f5d        ]O      LDR      r7,[pc,#372] ; [0x1000f34] = 0x20012
        0x01000dbe:    3f12        .?      SUBS     r7,r7,#0x12
        0x01000dc0:    523a        :R      STRH     r2,[r7,r0]
        0x01000dc2:    521a        .R      STRH     r2,[r3,r0]
        0x01000dc4:    370c        .7      ADDS     r7,r7,#0xc
        0x01000dc6:    523a        :R      STRH     r2,[r7,r0]
        0x01000dc8:    1dbf        ..      ADDS     r7,r7,#6
        0x01000dca:    523a        :R      STRH     r2,[r7,r0]
        0x01000dcc:    1c49        I.      ADDS     r1,r1,#1
        0x01000dce:    2903        .)      CMP      r1,#3
        0x01000dd0:    dbee        ..      BLT      0x1000db0 ; EXTI_LineConfig + 68
        0x01000dd2:    9804        ..      LDR      r0,[sp,#0x10]
        0x01000dd4:    2800        .(      CMP      r0,#0
        0x01000dd6:    d01a        ..      BEQ      0x1000e0e ; EXTI_LineConfig + 162
        0x01000dd8:    2801        .(      CMP      r0,#1
        0x01000dda:    d01d        ..      BEQ      0x1000e18 ; EXTI_LineConfig + 172
        0x01000ddc:    2802        .(      CMP      r0,#2
        0x01000dde:    d025        %.      BEQ      0x1000e2c ; EXTI_LineConfig + 192
        0x01000de0:    2803        .(      CMP      r0,#3
        0x01000de2:    d13e        >.      BNE      0x1000e62 ; EXTI_LineConfig + 246
        0x01000de4:    5b18        .[      LDRH     r0,[r3,r4]
        0x01000de6:    43a8        .C      BICS     r0,r0,r5
        0x01000de8:    5318        .S      STRH     r0,[r3,r4]
        0x01000dea:    2700        .'      MOVS     r7,#0
        0x01000dec:    2001        .       MOVS     r0,#1
        0x01000dee:    40b8        .@      LSLS     r0,r0,r7
        0x01000df0:    4228        (B      TST      r0,r5
        0x01000df2:    9001        ..      STR      r0,[sp,#4]
        0x01000df4:    d024        $.      BEQ      0x1000e40 ; EXTI_LineConfig + 212
        0x01000df6:    9801        ..      LDR      r0,[sp,#4]
        0x01000df8:    b281        ..      UXTH     r1,r0
        0x01000dfa:    9802        ..      LDR      r0,[sp,#8]
        0x01000dfc:    b2c0        ..      UXTB     r0,r0
        0x01000dfe:    f7fffdb9    ....    BL       GPIO_ReadInputDataBit ; 0x1000974
        0x01000e02:    2800        .(      CMP      r0,#0
        0x01000e04:    9801        ..      LDR      r0,[sp,#4]
        0x01000e06:    d01a        ..      BEQ      0x1000e3e ; EXTI_LineConfig + 210
        0x01000e08:    4330        0C      ORRS     r0,r0,r6
        0x01000e0a:    b286        ..      UXTH     r6,r0
        0x01000e0c:    e018        ..      B        0x1000e40 ; EXTI_LineConfig + 212
        0x01000e0e:    4949        II      LDR      r1,[pc,#292] ; [0x1000f34] = 0x20012
        0x01000e10:    3912        .9      SUBS     r1,r1,#0x12
        0x01000e12:    5b08        .[      LDRH     r0,[r1,r4]
        0x01000e14:    43a8        .C      BICS     r0,r0,r5
        0x01000e16:    e021        !.      B        0x1000e5c ; EXTI_LineConfig + 240
        0x01000e18:    5b18        .[      LDRH     r0,[r3,r4]
        0x01000e1a:    43ae        .C      BICS     r6,r6,r5
        0x01000e1c:    43a8        .C      BICS     r0,r0,r5
        0x01000e1e:    5318        .S      STRH     r0,[r3,r4]
        0x01000e20:    4844        DH      LDR      r0,[pc,#272] ; [0x1000f34] = 0x20012
        0x01000e22:    1f80        ..      SUBS     r0,r0,#6
        0x01000e24:    5b01        .[      LDRH     r1,[r0,r4]
        0x01000e26:    43a9        .C      BICS     r1,r1,r5
        0x01000e28:    5301        .S      STRH     r1,[r0,r4]
        0x01000e2a:    e011        ..      B        0x1000e50 ; EXTI_LineConfig + 228
        0x01000e2c:    5b18        .[      LDRH     r0,[r3,r4]
        0x01000e2e:    4941        AI      LDR      r1,[pc,#260] ; [0x1000f34] = 0x20012
        0x01000e30:    4328        (C      ORRS     r0,r0,r5
        0x01000e32:    5318        .S      STRH     r0,[r3,r4]
        0x01000e34:    1f89        ..      SUBS     r1,r1,#6
        0x01000e36:    5b08        .[      LDRH     r0,[r1,r4]
        0x01000e38:    432e        .C      ORRS     r6,r6,r5
        0x01000e3a:    43a8        .C      BICS     r0,r0,r5
        0x01000e3c:    e007        ..      B        0x1000e4e ; EXTI_LineConfig + 226
        0x01000e3e:    4386        .C      BICS     r6,r6,r0
        0x01000e40:    1c7f        ..      ADDS     r7,r7,#1
        0x01000e42:    2f10        ./      CMP      r7,#0x10
        0x01000e44:    dbd2        ..      BLT      0x1000dec ; EXTI_LineConfig + 128
        0x01000e46:    493b        ;I      LDR      r1,[pc,#236] ; [0x1000f34] = 0x20012
        0x01000e48:    1f89        ..      SUBS     r1,r1,#6
        0x01000e4a:    5b08        .[      LDRH     r0,[r1,r4]
        0x01000e4c:    4328        (C      ORRS     r0,r0,r5
        0x01000e4e:    5308        .S      STRH     r0,[r1,r4]
        0x01000e50:    9800        ..      LDR      r0,[sp,#0]
        0x01000e52:    86c6        ..      STRH     r6,[r0,#0x36]
        0x01000e54:    4937        7I      LDR      r1,[pc,#220] ; [0x1000f34] = 0x20012
        0x01000e56:    3912        .9      SUBS     r1,r1,#0x12
        0x01000e58:    5b08        .[      LDRH     r0,[r1,r4]
        0x01000e5a:    4328        (C      ORRS     r0,r0,r5
        0x01000e5c:    5308        .S      STRH     r0,[r1,r4]
        0x01000e5e:    9900        ..      LDR      r1,[sp,#0]
        0x01000e60:    8608        ..      STRH     r0,[r1,#0x30]
        0x01000e62:    b005        ..      ADD      sp,sp,#0x14
        0x01000e64:    bdf0        ..      POP      {r4-r7,pc}
    GPIO_IRQHandler
        0x01000e66:    b5f8        ..      PUSH     {r3-r7,lr}
        0x01000e68:    2001        .       MOVS     r0,#1
        0x01000e6a:    4933        3I      LDR      r1,[pc,#204] ; [0x1000f38] = 0xe000e180
        0x01000e6c:    0300        ..      LSLS     r0,r0,#12
        0x01000e6e:    6008        .`      STR      r0,[r1,#0]
        0x01000e70:    2600        .&      MOVS     r6,#0
        0x01000e72:    2700        .'      MOVS     r7,#0
        0x01000e74:    0075        u.      LSLS     r5,r6,#1
        0x01000e76:    482f        /H      LDR      r0,[pc,#188] ; [0x1000f34] = 0x20012
        0x01000e78:    2401        .$      MOVS     r4,#1
        0x01000e7a:    3812        .8      SUBS     r0,r0,#0x12
        0x01000e7c:    5b40        @[      LDRH     r0,[r0,r5]
        0x01000e7e:    40bc        .@      LSLS     r4,r4,r7
        0x01000e80:    4220         B      TST      r0,r4
        0x01000e82:    d027        '.      BEQ      0x1000ed4 ; GPIO_IRQHandler + 110
        0x01000e84:    b2a1        ..      UXTH     r1,r4
        0x01000e86:    b2f0        ..      UXTB     r0,r6
        0x01000e88:    f7fffd74    ..t.    BL       GPIO_ReadInputDataBit ; 0x1000974
        0x01000e8c:    4601        .F      MOV      r1,r0
        0x01000e8e:    4828        (H      LDR      r0,[pc,#160] ; [0x1000f30] = 0xf8700
        0x01000e90:    1828        (.      ADDS     r0,r5,r0
        0x01000e92:    8ec2        ..      LDRH     r2,[r0,#0x36]
        0x01000e94:    4623        #F      MOV      r3,r4
        0x01000e96:    4393        .C      BICS     r3,r3,r2
        0x01000e98:    413b        ;A      ASRS     r3,r3,r7
        0x01000e9a:    4299        .B      CMP      r1,r3
        0x01000e9c:    d11a        ..      BNE      0x1000ed4 ; GPIO_IRQHandler + 110
        0x01000e9e:    4925        %I      LDR      r1,[pc,#148] ; [0x1000f34] = 0x20012
        0x01000ea0:    1f89        ..      SUBS     r1,r1,#6
        0x01000ea2:    5b49        I[      LDRH     r1,[r1,r5]
        0x01000ea4:    4221        !B      TST      r1,r4
        0x01000ea6:    d107        ..      BNE      0x1000eb8 ; GPIO_IRQHandler + 82
        0x01000ea8:    4922        "I      LDR      r1,[pc,#136] ; [0x1000f34] = 0x20012
        0x01000eaa:    8ec0        ..      LDRH     r0,[r0,#0x36]
        0x01000eac:    390c        .9      SUBS     r1,r1,#0xc
        0x01000eae:    5b49        I[      LDRH     r1,[r1,r5]
        0x01000eb0:    4021        !@      ANDS     r1,r1,r4
        0x01000eb2:    4020         @      ANDS     r0,r0,r4
        0x01000eb4:    4281        .B      CMP      r1,r0
        0x01000eb6:    d109        ..      BNE      0x1000ecc ; GPIO_IRQHandler + 102
        0x01000eb8:    481e        .H      LDR      r0,[pc,#120] ; [0x1000f34] = 0x20012
        0x01000eba:    5b41        A[      LDRH     r1,[r0,r5]
        0x01000ebc:    4321        !C      ORRS     r1,r1,r4
        0x01000ebe:    5341        AS      STRH     r1,[r0,r5]
        0x01000ec0:    2e00        ..      CMP      r6,#0
        0x01000ec2:    d015        ..      BEQ      0x1000ef0 ; GPIO_IRQHandler + 138
        0x01000ec4:    2e01        ..      CMP      r6,#1
        0x01000ec6:    d016        ..      BEQ      0x1000ef6 ; GPIO_IRQHandler + 144
        0x01000ec8:    2e02        ..      CMP      r6,#2
        0x01000eca:    d017        ..      BEQ      0x1000efc ; GPIO_IRQHandler + 150
        0x01000ecc:    b2a1        ..      UXTH     r1,r4
        0x01000ece:    4630        0F      MOV      r0,r6
        0x01000ed0:    f7ffff0e    ....    BL       EXTI_ClearITPendingBit ; 0x1000cf0
        0x01000ed4:    1c7f        ..      ADDS     r7,r7,#1
        0x01000ed6:    2f10        ./      CMP      r7,#0x10
        0x01000ed8:    dbcd        ..      BLT      0x1000e76 ; GPIO_IRQHandler + 16
        0x01000eda:    1c76        v.      ADDS     r6,r6,#1
        0x01000edc:    2e03        ..      CMP      r6,#3
        0x01000ede:    dbc8        ..      BLT      0x1000e72 ; GPIO_IRQHandler + 12
        0x01000ee0:    4815        .H      LDR      r0,[pc,#84] ; [0x1000f38] = 0xe000e180
        0x01000ee2:    3880        .8      SUBS     r0,r0,#0x80
        0x01000ee4:    6801        .h      LDR      r1,[r0,#0]
        0x01000ee6:    2201        ."      MOVS     r2,#1
        0x01000ee8:    0312        ..      LSLS     r2,r2,#12
        0x01000eea:    4311        .C      ORRS     r1,r1,r2
        0x01000eec:    6001        .`      STR      r1,[r0,#0]
        0x01000eee:    bdf8        ..      POP      {r3-r7,pc}
        0x01000ef0:    f7fff9e1    ....    BL       EXTI0_IRQHandler ; 0x10002b6
        0x01000ef4:    e7ea        ..      B        0x1000ecc ; GPIO_IRQHandler + 102
        0x01000ef6:    f7fff9df    ....    BL       EXTI1_IRQHandler ; 0x10002b8
        0x01000efa:    e7e7        ..      B        0x1000ecc ; GPIO_IRQHandler + 102
        0x01000efc:    f7fff9dd    ....    BL       EXTI2_IRQHandler ; 0x10002ba
        0x01000f00:    e7e4        ..      B        0x1000ecc ; GPIO_IRQHandler + 102
    $d
        0x01000f02:    0000        ..      DCW    0
        0x01000f04:    010040c6    .@..    DCD    16793798
        0x01000f08:    2e5c2e2e    ..\.    DCD    777793070
        0x01000f0c:    61685c2e    .\ha    DCD    1634229294
        0x01000f10:    61776472    rdwa    DCD    1635214450
        0x01000f14:    4c5c6572    re\L    DCD    1281123698
        0x01000f18:    61726269    ibra    DCD    1634886249
        0x01000f1c:    72656972    rier    DCD    1919248754
        0x01000f20:    6b64735c    \sdk    DCD    1801745244
        0x01000f24:    5f63795c    \yc_    DCD    1600354652
        0x01000f28:    69747865    exti    DCD    1769240677
        0x01000f2c:    0000632e    .c..    DCD    25390
        0x01000f30:    000f8700    ....    DCD    1017600
        0x01000f34:    00020012    ....    DCD    131090
        0x01000f38:    e000e180    ....    DCD    3758154112
    $t
    .text
    UART_AutoFlowCtrlCmd
        0x01000f3c:    b570        p.      PUSH     {r4-r6,lr}
        0x01000f3e:    460d        .F      MOV      r5,r1
        0x01000f40:    0004        ..      MOVS     r4,r0
        0x01000f42:    d006        ..      BEQ      0x1000f52 ; UART_AutoFlowCtrlCmd + 22
        0x01000f44:    2c01        .,      CMP      r4,#1
        0x01000f46:    d004        ..      BEQ      0x1000f52 ; UART_AutoFlowCtrlCmd + 22
        0x01000f48:    4af1        .J      LDR      r2,[pc,#964] ; [0x1001310] = 0x10040ed
        0x01000f4a:    211c        .!      MOVS     r1,#0x1c
        0x01000f4c:    a0f1        ..      ADR      r0,{pc}+0x3c8 ; 0x1001314
        0x01000f4e:    f7fffbd5    ....    BL       _assert_handler ; 0x10006fc
        0x01000f52:    4afa        .J      LDR      r2,[pc,#1000] ; [0x100133c] = 0xf8b00
        0x01000f54:    2010        .       MOVS     r0,#0x10
        0x01000f56:    4bfa        .K      LDR      r3,[pc,#1000] ; [0x1001340] = 0xf8c00
        0x01000f58:    2d01        .-      CMP      r5,#1
        0x01000f5a:    d007        ..      BEQ      0x1000f6c ; UART_AutoFlowCtrlCmd + 48
        0x01000f5c:    2c00        .,      CMP      r4,#0
        0x01000f5e:    d00f        ..      BEQ      0x1000f80 ; UART_AutoFlowCtrlCmd + 68
        0x01000f60:    2c01        .,      CMP      r4,#1
        0x01000f62:    d102        ..      BNE      0x1000f6a ; UART_AutoFlowCtrlCmd + 46
        0x01000f64:    69d9        .i      LDR      r1,[r3,#0x1c]
        0x01000f66:    4381        .C      BICS     r1,r1,r0
        0x01000f68:    61d9        .a      STR      r1,[r3,#0x1c]
        0x01000f6a:    bd70        p.      POP      {r4-r6,pc}
        0x01000f6c:    2c00        .,      CMP      r4,#0
        0x01000f6e:    d004        ..      BEQ      0x1000f7a ; UART_AutoFlowCtrlCmd + 62
        0x01000f70:    2c01        .,      CMP      r4,#1
        0x01000f72:    d1fa        ..      BNE      0x1000f6a ; UART_AutoFlowCtrlCmd + 46
        0x01000f74:    69d9        .i      LDR      r1,[r3,#0x1c]
        0x01000f76:    4301        .C      ORRS     r1,r1,r0
        0x01000f78:    e7f6        ..      B        0x1000f68 ; UART_AutoFlowCtrlCmd + 44
        0x01000f7a:    69d1        .i      LDR      r1,[r2,#0x1c]
        0x01000f7c:    4301        .C      ORRS     r1,r1,r0
        0x01000f7e:    e001        ..      B        0x1000f84 ; UART_AutoFlowCtrlCmd + 72
        0x01000f80:    69d1        .i      LDR      r1,[r2,#0x1c]
        0x01000f82:    4381        .C      BICS     r1,r1,r0
        0x01000f84:    61d1        .a      STR      r1,[r2,#0x1c]
        0x01000f86:    bd70        p.      POP      {r4-r6,pc}
    UART_ITConfig
        0x01000f88:    b570        p.      PUSH     {r4-r6,lr}
        0x01000f8a:    4615        .F      MOV      r5,r2
        0x01000f8c:    460c        .F      MOV      r4,r1
        0x01000f8e:    0006        ..      MOVS     r6,r0
        0x01000f90:    d007        ..      BEQ      0x1000fa2 ; UART_ITConfig + 26
        0x01000f92:    2e01        ..      CMP      r6,#1
        0x01000f94:    d005        ..      BEQ      0x1000fa2 ; UART_ITConfig + 26
        0x01000f96:    4ade        .J      LDR      r2,[pc,#888] ; [0x1001310] = 0x10040ed
        0x01000f98:    21f3        .!      MOVS     r1,#0xf3
        0x01000f9a:    3273        s2      ADDS     r2,r2,#0x73
        0x01000f9c:    a0dd        ..      ADR      r0,{pc}+0x378 ; 0x1001314
        0x01000f9e:    f7fffbad    ....    BL       _assert_handler ; 0x10006fc
        0x01000fa2:    2c01        .,      CMP      r4,#1
        0x01000fa4:    d007        ..      BEQ      0x1000fb6 ; UART_ITConfig + 46
        0x01000fa6:    2c02        .,      CMP      r4,#2
        0x01000fa8:    d005        ..      BEQ      0x1000fb6 ; UART_ITConfig + 46
        0x01000faa:    4ad9        .J      LDR      r2,[pc,#868] ; [0x1001310] = 0x10040ed
        0x01000fac:    21f4        .!      MOVS     r1,#0xf4
        0x01000fae:    3273        s2      ADDS     r2,r2,#0x73
        0x01000fb0:    a0d8        ..      ADR      r0,{pc}+0x364 ; 0x1001314
        0x01000fb2:    f7fffba3    ....    BL       _assert_handler ; 0x10006fc
        0x01000fb6:    22ff        ."      MOVS     r2,#0xff
        0x01000fb8:    23ff        .#      MOVS     r3,#0xff
        0x01000fba:    3201        .2      ADDS     r2,#1
        0x01000fbc:    021b        ..      LSLS     r3,r3,#8
        0x01000fbe:    07e8        ..      LSLS     r0,r5,#31
        0x01000fc0:    2e00        ..      CMP      r6,#0
        0x01000fc2:    d00e        ..      BEQ      0x1000fe2 ; UART_ITConfig + 90
        0x01000fc4:    2e01        ..      CMP      r6,#1
        0x01000fc6:    d10b        ..      BNE      0x1000fe0 ; UART_ITConfig + 88
        0x01000fc8:    49dd        .I      LDR      r1,[pc,#884] ; [0x1001340] = 0xf8c00
        0x01000fca:    2c02        .,      CMP      r4,#2
        0x01000fcc:    d00b        ..      BEQ      0x1000fe6 ; UART_ITConfig + 94
        0x01000fce:    2c01        .,      CMP      r4,#1
        0x01000fd0:    d106        ..      BNE      0x1000fe0 ; UART_ITConfig + 88
        0x01000fd2:    69ca        .i      LDR      r2,[r1,#0x1c]
        0x01000fd4:    0052        R.      LSLS     r2,r2,#1
        0x01000fd6:    0852        R.      LSRS     r2,r2,#1
        0x01000fd8:    61ca        .a      STR      r2,[r1,#0x1c]
        0x01000fda:    69ca        .i      LDR      r2,[r1,#0x1c]
        0x01000fdc:    4302        .C      ORRS     r2,r2,r0
        0x01000fde:    61ca        .a      STR      r2,[r1,#0x1c]
        0x01000fe0:    bd70        p.      POP      {r4-r6,pc}
        0x01000fe2:    49d6        .I      LDR      r1,[pc,#856] ; [0x100133c] = 0xf8b00
        0x01000fe4:    e7f1        ..      B        0x1000fca ; UART_ITConfig + 66
        0x01000fe6:    69c8        .i      LDR      r0,[r1,#0x1c]
        0x01000fe8:    2d00        .-      CMP      r5,#0
        0x01000fea:    d002        ..      BEQ      0x1000ff2 ; UART_ITConfig + 106
        0x01000fec:    4310        .C      ORRS     r0,r0,r2
        0x01000fee:    61c8        .a      STR      r0,[r1,#0x1c]
        0x01000ff0:    bd70        p.      POP      {r4-r6,pc}
        0x01000ff2:    4398        .C      BICS     r0,r0,r3
        0x01000ff4:    e7fb        ..      B        0x1000fee ; UART_ITConfig + 102
    UART_GetITIdentity
        0x01000ff6:    4601        .F      MOV      r1,r0
        0x01000ff8:    2000        .       MOVS     r0,#0
        0x01000ffa:    2900        .)      CMP      r1,#0
        0x01000ffc:    d00c        ..      BEQ      0x1001018 ; UART_GetITIdentity + 34
        0x01000ffe:    2901        .)      CMP      r1,#1
        0x01001000:    d109        ..      BNE      0x1001016 ; UART_GetITIdentity + 32
        0x01001002:    49cf        .I      LDR      r1,[pc,#828] ; [0x1001340] = 0xf8c00
        0x01001004:    69ca        .i      LDR      r2,[r1,#0x1c]
        0x01001006:    0412        ..      LSLS     r2,r2,#16
        0x01001008:    0e12        ..      LSRS     r2,r2,#24
        0x0100100a:    d007        ..      BEQ      0x100101c ; UART_GetITIdentity + 38
        0x0100100c:    6a8a        .j      LDR      r2,[r1,#0x28]
        0x0100100e:    1412        ..      ASRS     r2,r2,#16
        0x01001010:    2a00        .*      CMP      r2,#0
        0x01001012:    dd03        ..      BLE      0x100101c ; UART_GetITIdentity + 38
        0x01001014:    2002        .       MOVS     r0,#2
        0x01001016:    4770        pG      BX       lr
        0x01001018:    49c8        .I      LDR      r1,[pc,#800] ; [0x100133c] = 0xf8b00
        0x0100101a:    e7f3        ..      B        0x1001004 ; UART_GetITIdentity + 14
        0x0100101c:    69c9        .i      LDR      r1,[r1,#0x1c]
        0x0100101e:    2900        .)      CMP      r1,#0
        0x01001020:    daf9        ..      BGE      0x1001016 ; UART_GetITIdentity + 32
        0x01001022:    2001        .       MOVS     r0,#1
        0x01001024:    4770        pG      BX       lr
    UART_ClearIT
        0x01001026:    b510        ..      PUSH     {r4,lr}
        0x01001028:    4603        .F      MOV      r3,r0
        0x0100102a:    f7ffffe4    ....    BL       UART_GetITIdentity ; 0x1000ff6
        0x0100102e:    4601        .F      MOV      r1,r0
        0x01001030:    2200        ."      MOVS     r2,#0
        0x01001032:    4618        .F      MOV      r0,r3
        0x01001034:    f7ffffa8    ....    BL       UART_ITConfig ; 0x1000f88
        0x01001038:    bd10        ..      POP      {r4,pc}
    UART_DeInit
        0x0100103a:    b510        ..      PUSH     {r4,lr}
        0x0100103c:    0004        ..      MOVS     r4,r0
        0x0100103e:    d007        ..      BEQ      0x1001050 ; UART_DeInit + 22
        0x01001040:    2c01        .,      CMP      r4,#1
        0x01001042:    d005        ..      BEQ      0x1001050 ; UART_DeInit + 22
        0x01001044:    4ab2        .J      LDR      r2,[pc,#712] ; [0x1001310] = 0x10040ed
        0x01001046:    2141        A!      MOVS     r1,#0x41
        0x01001048:    3215        .2      ADDS     r2,r2,#0x15
        0x0100104a:    a0b2        ..      ADR      r0,{pc}+0x2ca ; 0x1001314
        0x0100104c:    f7fffb56    ..V.    BL       _assert_handler ; 0x10006fc
        0x01001050:    2000        .       MOVS     r0,#0
        0x01001052:    2c00        .,      CMP      r4,#0
        0x01001054:    d004        ..      BEQ      0x1001060 ; UART_DeInit + 38
        0x01001056:    2c01        .,      CMP      r4,#1
        0x01001058:    d101        ..      BNE      0x100105e ; UART_DeInit + 36
        0x0100105a:    49b9        .I      LDR      r1,[pc,#740] ; [0x1001340] = 0xf8c00
        0x0100105c:    61c8        .a      STR      r0,[r1,#0x1c]
        0x0100105e:    bd10        ..      POP      {r4,pc}
        0x01001060:    49b6        .I      LDR      r1,[pc,#728] ; [0x100133c] = 0xf8b00
        0x01001062:    e7fb        ..      B        0x100105c ; UART_DeInit + 34
    UART_DMASendBuf
        0x01001064:    b570        p.      PUSH     {r4-r6,lr}
        0x01001066:    4616        .F      MOV      r6,r2
        0x01001068:    460c        .F      MOV      r4,r1
        0x0100106a:    0005        ..      MOVS     r5,r0
        0x0100106c:    d007        ..      BEQ      0x100107e ; UART_DMASendBuf + 26
        0x0100106e:    2d01        .-      CMP      r5,#1
        0x01001070:    d005        ..      BEQ      0x100107e ; UART_DMASendBuf + 26
        0x01001072:    4aa7        .J      LDR      r2,[pc,#668] ; [0x1001310] = 0x10040ed
        0x01001074:    2150        P!      MOVS     r1,#0x50
        0x01001076:    3221        !2      ADDS     r2,r2,#0x21
        0x01001078:    a0a6        ..      ADR      r0,{pc}+0x29c ; 0x1001314
        0x0100107a:    f7fffb3f    ..?.    BL       _assert_handler ; 0x10006fc
        0x0100107e:    2c00        .,      CMP      r4,#0
        0x01001080:    d105        ..      BNE      0x100108e ; UART_DMASendBuf + 42
        0x01001082:    4aa3        .J      LDR      r2,[pc,#652] ; [0x1001310] = 0x10040ed
        0x01001084:    2151        Q!      MOVS     r1,#0x51
        0x01001086:    3221        !2      ADDS     r2,r2,#0x21
        0x01001088:    a0a2        ..      ADR      r0,{pc}+0x28c ; 0x1001314
        0x0100108a:    f7fffb37    ..7.    BL       _assert_handler ; 0x10006fc
        0x0100108e:    48ad        .H      LDR      r0,[pc,#692] ; [0x1001344] = 0xffff
        0x01001090:    4286        .B      CMP      r6,r0
        0x01001092:    db05        ..      BLT      0x10010a0 ; UART_DMASendBuf + 60
        0x01001094:    4a9e        .J      LDR      r2,[pc,#632] ; [0x1001310] = 0x10040ed
        0x01001096:    2152        R!      MOVS     r1,#0x52
        0x01001098:    3221        !2      ADDS     r2,r2,#0x21
        0x0100109a:    a09e        ..      ADR      r0,{pc}+0x27a ; 0x1001314
        0x0100109c:    f7fffb2e    ....    BL       _assert_handler ; 0x10006fc
        0x010010a0:    49a6        .I      LDR      r1,[pc,#664] ; [0x100133c] = 0xf8b00
        0x010010a2:    0430        0.      LSLS     r0,r6,#16
        0x010010a4:    2380        .#      MOVS     r3,#0x80
        0x010010a6:    2d00        .-      CMP      r5,#0
        0x010010a8:    d007        ..      BEQ      0x10010ba ; UART_DMASendBuf + 86
        0x010010aa:    4aa5        .J      LDR      r2,[pc,#660] ; [0x1001340] = 0xf8c00
        0x010010ac:    6014        .`      STR      r4,[r2,#0]
        0x010010ae:    6894        .h      LDR      r4,[r2,#8]
        0x010010b0:    b2a4        ..      UXTH     r4,r4
        0x010010b2:    4304        .C      ORRS     r4,r4,r0
        0x010010b4:    6094        .`      STR      r4,[r2,#8]
        0x010010b6:    73cb        .s      STRB     r3,[r1,#0xf]
        0x010010b8:    bd70        p.      POP      {r4-r6,pc}
        0x010010ba:    600c        .`      STR      r4,[r1,#0]
        0x010010bc:    688a        .h      LDR      r2,[r1,#8]
        0x010010be:    b292        ..      UXTH     r2,r2
        0x010010c0:    4302        .C      ORRS     r2,r2,r0
        0x010010c2:    608a        .`      STR      r2,[r1,#8]
        0x010010c4:    e7f7        ..      B        0x10010b6 ; UART_DMASendBuf + 82
    UART_Init
        0x010010c6:    b5f8        ..      PUSH     {r3-r7,lr}
        0x010010c8:    460c        .F      MOV      r4,r1
        0x010010ca:    0005        ..      MOVS     r5,r0
        0x010010cc:    d007        ..      BEQ      0x10010de ; UART_Init + 24
        0x010010ce:    2d01        .-      CMP      r5,#1
        0x010010d0:    d005        ..      BEQ      0x10010de ; UART_Init + 24
        0x010010d2:    4a8f        .J      LDR      r2,[pc,#572] ; [0x1001310] = 0x10040ed
        0x010010d4:    219a        .!      MOVS     r1,#0x9a
        0x010010d6:    3231        12      ADDS     r2,r2,#0x31
        0x010010d8:    a08e        ..      ADR      r0,{pc}+0x23c ; 0x1001314
        0x010010da:    f7fffb0f    ....    BL       _assert_handler ; 0x10006fc
        0x010010de:    7820         x      LDRB     r0,[r4,#0]
        0x010010e0:    2840        @(      CMP      r0,#0x40
        0x010010e2:    d007        ..      BEQ      0x10010f4 ; UART_Init + 46
        0x010010e4:    2800        .(      CMP      r0,#0
        0x010010e6:    d005        ..      BEQ      0x10010f4 ; UART_Init + 46
        0x010010e8:    4a89        .J      LDR      r2,[pc,#548] ; [0x1001310] = 0x10040ed
        0x010010ea:    219b        .!      MOVS     r1,#0x9b
        0x010010ec:    3231        12      ADDS     r2,r2,#0x31
        0x010010ee:    a089        ..      ADR      r0,{pc}+0x226 ; 0x1001314
        0x010010f0:    f7fffb04    ....    BL       _assert_handler ; 0x10006fc
        0x010010f4:    21b7        .!      MOVS     r1,#0xb7
        0x010010f6:    6860        `h      LDR      r0,[r4,#4]
        0x010010f8:    00c9        ..      LSLS     r1,r1,#3
        0x010010fa:    4288        .B      CMP      r0,r1
        0x010010fc:    d902        ..      BLS      0x1001104 ; UART_Init + 62
        0x010010fe:    4992        .I      LDR      r1,[pc,#584] ; [0x1001348] = 0x44aa21
        0x01001100:    4288        .B      CMP      r0,r1
        0x01001102:    d305        ..      BCC      0x1001110 ; UART_Init + 74
        0x01001104:    4a82        .J      LDR      r2,[pc,#520] ; [0x1001310] = 0x10040ed
        0x01001106:    219c        .!      MOVS     r1,#0x9c
        0x01001108:    3231        12      ADDS     r2,r2,#0x31
        0x0100110a:    a082        ..      ADR      r0,{pc}+0x20a ; 0x1001314
        0x0100110c:    f7fffaf6    ....    BL       _assert_handler ; 0x10006fc
        0x01001110:    7aa0        .z      LDRB     r0,[r4,#0xa]
        0x01001112:    2800        .(      CMP      r0,#0
        0x01001114:    d007        ..      BEQ      0x1001126 ; UART_Init + 96
        0x01001116:    2802        .(      CMP      r0,#2
        0x01001118:    d005        ..      BEQ      0x1001126 ; UART_Init + 96
        0x0100111a:    4a7d        }J      LDR      r2,[pc,#500] ; [0x1001310] = 0x10040ed
        0x0100111c:    219d        .!      MOVS     r1,#0x9d
        0x0100111e:    3231        12      ADDS     r2,r2,#0x31
        0x01001120:    a07c        |.      ADR      r0,{pc}+0x1f4 ; 0x1001314
        0x01001122:    f7fffaeb    ....    BL       _assert_handler ; 0x10006fc
        0x01001126:    7ae0        .z      LDRB     r0,[r4,#0xb]
        0x01001128:    2800        .(      CMP      r0,#0
        0x0100112a:    d007        ..      BEQ      0x100113c ; UART_Init + 118
        0x0100112c:    2810        .(      CMP      r0,#0x10
        0x0100112e:    d005        ..      BEQ      0x100113c ; UART_Init + 118
        0x01001130:    4a77        wJ      LDR      r2,[pc,#476] ; [0x1001310] = 0x10040ed
        0x01001132:    219e        .!      MOVS     r1,#0x9e
        0x01001134:    3231        12      ADDS     r2,r2,#0x31
        0x01001136:    a077        w.      ADR      r0,{pc}+0x1de ; 0x1001314
        0x01001138:    f7fffae0    ....    BL       _assert_handler ; 0x10006fc
        0x0100113c:    7a60        `z      LDRB     r0,[r4,#9]
        0x0100113e:    2800        .(      CMP      r0,#0
        0x01001140:    d007        ..      BEQ      0x1001152 ; UART_Init + 140
        0x01001142:    2808        .(      CMP      r0,#8
        0x01001144:    d005        ..      BEQ      0x1001152 ; UART_Init + 140
        0x01001146:    4a72        rJ      LDR      r2,[pc,#456] ; [0x1001310] = 0x10040ed
        0x01001148:    219f        .!      MOVS     r1,#0x9f
        0x0100114a:    3231        12      ADDS     r2,r2,#0x31
        0x0100114c:    a071        q.      ADR      r0,{pc}+0x1c8 ; 0x1001314
        0x0100114e:    f7fffad5    ....    BL       _assert_handler ; 0x10006fc
        0x01001152:    487e        ~H      LDR      r0,[pc,#504] ; [0x100134c] = 0x2dc6c00
        0x01001154:    6861        ah      LDR      r1,[r4,#4]
        0x01001156:    f001ffa5    ....    BL       __aeabi_uidiv ; 0x10030a4
        0x0100115a:    7aa1        .z      LDRB     r1,[r4,#0xa]
        0x0100115c:    7a22        "z      LDRB     r2,[r4,#8]
        0x0100115e:    7ae3        .z      LDRB     r3,[r4,#0xb]
        0x01001160:    4311        .C      ORRS     r1,r1,r2
        0x01001162:    7a62        bz      LDRB     r2,[r4,#9]
        0x01001164:    0400        ..      LSLS     r0,r0,#16
        0x01001166:    431a        .C      ORRS     r2,r2,r3
        0x01001168:    4311        .C      ORRS     r1,r1,r2
        0x0100116a:    7822        "x      LDRB     r2,[r4,#0]
        0x0100116c:    2301        .#      MOVS     r3,#1
        0x0100116e:    4311        .C      ORRS     r1,r1,r2
        0x01001170:    4301        .C      ORRS     r1,r1,r0
        0x01001172:    2081        .       MOVS     r0,#0x81
        0x01001174:    4301        .C      ORRS     r1,r1,r0
        0x01001176:    2200        ."      MOVS     r2,#0
        0x01001178:    029c        ..      LSLS     r4,r3,#10
        0x0100117a:    2620         &      MOVS     r6,#0x20
        0x0100117c:    27df        .'      MOVS     r7,#0xdf
        0x0100117e:    2d00        .-      CMP      r5,#0
        0x01001180:    d00e        ..      BEQ      0x10011a0 ; UART_Init + 218
        0x01001182:    486f        oH      LDR      r0,[pc,#444] ; [0x1001340] = 0xf8c00
        0x01001184:    61c2        .a      STR      r2,[r0,#0x1c]
        0x01001186:    4d72        rM      LDR      r5,[pc,#456] ; [0x1001350] = 0x20448
        0x01001188:    6045        E`      STR      r5,[r0,#4]
        0x0100118a:    6084        .`      STR      r4,[r0,#8]
        0x0100118c:    7303        .s      STRB     r3,[r0,#0xc]
        0x0100118e:    7bc3        .{      LDRB     r3,[r0,#0xf]
        0x01001190:    4333        3C      ORRS     r3,r3,r6
        0x01001192:    73c3        .s      STRB     r3,[r0,#0xf]
        0x01001194:    7bc3        .{      LDRB     r3,[r0,#0xf]
        0x01001196:    403b        ;@      ANDS     r3,r3,r7
        0x01001198:    73c3        .s      STRB     r3,[r0,#0xf]
        0x0100119a:    61c2        .a      STR      r2,[r0,#0x1c]
        0x0100119c:    61c1        .a      STR      r1,[r0,#0x1c]
        0x0100119e:    bdf8        ..      POP      {r3-r7,pc}
        0x010011a0:    4866        fH      LDR      r0,[pc,#408] ; [0x100133c] = 0xf8b00
        0x010011a2:    61c2        .a      STR      r2,[r0,#0x1c]
        0x010011a4:    4d6b        kM      LDR      r5,[pc,#428] ; [0x1001354] = 0x20048
        0x010011a6:    e7ef        ..      B        0x1001188 ; UART_Init + 194
    UART_IsRXFIFOFull
        0x010011a8:    b510        ..      PUSH     {r4,lr}
        0x010011aa:    2402        .$      MOVS     r4,#2
        0x010011ac:    2800        .(      CMP      r0,#0
        0x010011ae:    d00b        ..      BEQ      0x10011c8 ; UART_IsRXFIFOFull + 32
        0x010011b0:    2801        .(      CMP      r0,#1
        0x010011b2:    d005        ..      BEQ      0x10011c0 ; UART_IsRXFIFOFull + 24
        0x010011b4:    4a56        VJ      LDR      r2,[pc,#344] ; [0x1001310] = 0x10040ed
        0x010011b6:    21c8        .!      MOVS     r1,#0xc8
        0x010011b8:    323b        ;2      ADDS     r2,r2,#0x3b
        0x010011ba:    a056        V.      ADR      r0,{pc}+0x15a ; 0x1001314
        0x010011bc:    f7fffa9e    ....    BL       _assert_handler ; 0x10006fc
        0x010011c0:    485f        _H      LDR      r0,[pc,#380] ; [0x1001340] = 0xf8c00
        0x010011c2:    6a80        .j      LDR      r0,[r0,#0x28]
        0x010011c4:    4020         @      ANDS     r0,r0,r4
        0x010011c6:    bd10        ..      POP      {r4,pc}
        0x010011c8:    485c        \H      LDR      r0,[pc,#368] ; [0x100133c] = 0xf8b00
        0x010011ca:    e7fa        ..      B        0x10011c2 ; UART_IsRXFIFOFull + 26
    UART_IsRXFIFONotEmpty
        0x010011cc:    b510        ..      PUSH     {r4,lr}
        0x010011ce:    2800        .(      CMP      r0,#0
        0x010011d0:    d00d        ..      BEQ      0x10011ee ; UART_IsRXFIFONotEmpty + 34
        0x010011d2:    2801        .(      CMP      r0,#1
        0x010011d4:    d005        ..      BEQ      0x10011e2 ; UART_IsRXFIFONotEmpty + 22
        0x010011d6:    4a4e        NJ      LDR      r2,[pc,#312] ; [0x1001310] = 0x10040ed
        0x010011d8:    21d7        .!      MOVS     r1,#0xd7
        0x010011da:    324d        M2      ADDS     r2,r2,#0x4d
        0x010011dc:    a04d        M.      ADR      r0,{pc}+0x138 ; 0x1001314
        0x010011de:    f7fffa8d    ....    BL       _assert_handler ; 0x10006fc
        0x010011e2:    4857        WH      LDR      r0,[pc,#348] ; [0x1001340] = 0xf8c00
        0x010011e4:    6a80        .j      LDR      r0,[r0,#0x28]
        0x010011e6:    1400        ..      ASRS     r0,r0,#16
        0x010011e8:    d000        ..      BEQ      0x10011ec ; UART_IsRXFIFONotEmpty + 32
        0x010011ea:    2001        .       MOVS     r0,#1
        0x010011ec:    bd10        ..      POP      {r4,pc}
        0x010011ee:    4853        SH      LDR      r0,[pc,#332] ; [0x100133c] = 0xf8b00
        0x010011f0:    e7f8        ..      B        0x10011e4 ; UART_IsRXFIFONotEmpty + 24
    UART_IsUARTBusy
        0x010011f2:    b510        ..      PUSH     {r4,lr}
        0x010011f4:    2800        .(      CMP      r0,#0
        0x010011f6:    d00d        ..      BEQ      0x1001214 ; UART_IsUARTBusy + 34
        0x010011f8:    2801        .(      CMP      r0,#1
        0x010011fa:    d005        ..      BEQ      0x1001208 ; UART_IsUARTBusy + 22
        0x010011fc:    4a44        DJ      LDR      r2,[pc,#272] ; [0x1001310] = 0x10040ed
        0x010011fe:    21e5        .!      MOVS     r1,#0xe5
        0x01001200:    3263        c2      ADDS     r2,r2,#0x63
        0x01001202:    a044        D.      ADR      r0,{pc}+0x112 ; 0x1001314
        0x01001204:    f7fffa7a    ..z.    BL       _assert_handler ; 0x10006fc
        0x01001208:    484d        MH      LDR      r0,[pc,#308] ; [0x1001340] = 0xf8c00
        0x0100120a:    6900        .i      LDR      r0,[r0,#0x10]
        0x0100120c:    07c0        ..      LSLS     r0,r0,#31
        0x0100120e:    17c0        ..      ASRS     r0,r0,#31
        0x01001210:    1c40        @.      ADDS     r0,r0,#1
        0x01001212:    bd10        ..      POP      {r4,pc}
        0x01001214:    4849        IH      LDR      r0,[pc,#292] ; [0x100133c] = 0xf8b00
        0x01001216:    e7f8        ..      B        0x100120a ; UART_IsUARTBusy + 24
    UART_ReceiveData
        0x01001218:    b510        ..      PUSH     {r4,lr}
        0x0100121a:    2800        .(      CMP      r0,#0
        0x0100121c:    d00c        ..      BEQ      0x1001238 ; UART_ReceiveData + 32
        0x0100121e:    2801        .(      CMP      r0,#1
        0x01001220:    d006        ..      BEQ      0x1001230 ; UART_ReceiveData + 24
        0x01001222:    4a3b        ;J      LDR      r2,[pc,#236] ; [0x1001310] = 0x10040ed
        0x01001224:    21ff        .!      MOVS     r1,#0xff
        0x01001226:    3281        .2      ADDS     r2,r2,#0x81
        0x01001228:    3128        (1      ADDS     r1,r1,#0x28
        0x0100122a:    a03a        :.      ADR      r0,{pc}+0xea ; 0x1001314
        0x0100122c:    f7fffa66    ..f.    BL       _assert_handler ; 0x10006fc
        0x01001230:    4843        CH      LDR      r0,[pc,#268] ; [0x1001340] = 0xf8c00
        0x01001232:    3020         0      ADDS     r0,r0,#0x20
        0x01001234:    7900        .y      LDRB     r0,[r0,#4]
        0x01001236:    bd10        ..      POP      {r4,pc}
        0x01001238:    4840        @H      LDR      r0,[pc,#256] ; [0x100133c] = 0xf8b00
        0x0100123a:    3020         0      ADDS     r0,r0,#0x20
        0x0100123c:    e7fa        ..      B        0x1001234 ; UART_ReceiveData + 28
    UART_RecvBuf
        0x0100123e:    b5f8        ..      PUSH     {r3-r7,lr}
        0x01001240:    2400        .$      MOVS     r4,#0
        0x01001242:    4616        .F      MOV      r6,r2
        0x01001244:    460d        .F      MOV      r5,r1
        0x01001246:    4607        .F      MOV      r7,r0
        0x01001248:    2800        .(      CMP      r0,#0
        0x0100124a:    d008        ..      BEQ      0x100125e ; UART_RecvBuf + 32
        0x0100124c:    2f01        ./      CMP      r7,#1
        0x0100124e:    d006        ..      BEQ      0x100125e ; UART_RecvBuf + 32
        0x01001250:    4a2f        /J      LDR      r2,[pc,#188] ; [0x1001310] = 0x10040ed
        0x01001252:    21ff        .!      MOVS     r1,#0xff
        0x01001254:    3292        .2      ADDS     r2,r2,#0x92
        0x01001256:    3139        91      ADDS     r1,r1,#0x39
        0x01001258:    a02e        ..      ADR      r0,{pc}+0xbc ; 0x1001314
        0x0100125a:    f7fffa4f    ..O.    BL       _assert_handler ; 0x10006fc
        0x0100125e:    2d00        .-      CMP      r5,#0
        0x01001260:    d106        ..      BNE      0x1001270 ; UART_RecvBuf + 50
        0x01001262:    4a2b        +J      LDR      r2,[pc,#172] ; [0x1001310] = 0x10040ed
        0x01001264:    21ff        .!      MOVS     r1,#0xff
        0x01001266:    3292        .2      ADDS     r2,r2,#0x92
        0x01001268:    313a        :1      ADDS     r1,r1,#0x3a
        0x0100126a:    a02a        *.      ADR      r0,{pc}+0xaa ; 0x1001314
        0x0100126c:    f7fffa46    ..F.    BL       _assert_handler ; 0x10006fc
        0x01001270:    2f00        ./      CMP      r7,#0
        0x01001272:    d003        ..      BEQ      0x100127c ; UART_RecvBuf + 62
        0x01001274:    4932        2I      LDR      r1,[pc,#200] ; [0x1001340] = 0xf8c00
        0x01001276:    3128        (1      ADDS     r1,r1,#0x28
        0x01001278:    1f08        ..      SUBS     r0,r1,#4
        0x0100127a:    e008        ..      B        0x100128e ; UART_RecvBuf + 80
        0x0100127c:    492f        /I      LDR      r1,[pc,#188] ; [0x100133c] = 0xf8b00
        0x0100127e:    3128        (1      ADDS     r1,r1,#0x28
        0x01001280:    1f08        ..      SUBS     r0,r1,#4
        0x01001282:    e004        ..      B        0x100128e ; UART_RecvBuf + 80
        0x01001284:    42b4        .B      CMP      r4,r6
        0x01001286:    d206        ..      BCS      0x1001296 ; UART_RecvBuf + 88
        0x01001288:    7802        .x      LDRB     r2,[r0,#0]
        0x0100128a:    552a        *U      STRB     r2,[r5,r4]
        0x0100128c:    1c64        d.      ADDS     r4,r4,#1
        0x0100128e:    680a        .h      LDR      r2,[r1,#0]
        0x01001290:    1412        ..      ASRS     r2,r2,#16
        0x01001292:    2a00        .*      CMP      r2,#0
        0x01001294:    dcf6        ..      BGT      0x1001284 ; UART_RecvBuf + 70
        0x01001296:    4620         F      MOV      r0,r4
        0x01001298:    bdf8        ..      POP      {r3-r7,pc}
    UART_SendBuf
        0x0100129a:    b570        p.      PUSH     {r4-r6,lr}
        0x0100129c:    4616        .F      MOV      r6,r2
        0x0100129e:    460c        .F      MOV      r4,r1
        0x010012a0:    0005        ..      MOVS     r5,r0
        0x010012a2:    d008        ..      BEQ      0x10012b6 ; UART_SendBuf + 28
        0x010012a4:    2d01        .-      CMP      r5,#1
        0x010012a6:    d006        ..      BEQ      0x10012b6 ; UART_SendBuf + 28
        0x010012a8:    4a19        .J      LDR      r2,[pc,#100] ; [0x1001310] = 0x10040ed
        0x010012aa:    21ff        .!      MOVS     r1,#0xff
        0x010012ac:    329f        .2      ADDS     r2,r2,#0x9f
        0x010012ae:    3159        Y1      ADDS     r1,r1,#0x59
        0x010012b0:    a018        ..      ADR      r0,{pc}+0x64 ; 0x1001314
        0x010012b2:    f7fffa23    ..#.    BL       _assert_handler ; 0x10006fc
        0x010012b6:    2c00        .,      CMP      r4,#0
        0x010012b8:    d106        ..      BNE      0x10012c8 ; UART_SendBuf + 46
        0x010012ba:    4a15        .J      LDR      r2,[pc,#84] ; [0x1001310] = 0x10040ed
        0x010012bc:    21ff        .!      MOVS     r1,#0xff
        0x010012be:    329f        .2      ADDS     r2,r2,#0x9f
        0x010012c0:    315a        Z1      ADDS     r1,r1,#0x5a
        0x010012c2:    a014        ..      ADR      r0,{pc}+0x52 ; 0x1001314
        0x010012c4:    f7fffa1a    ....    BL       _assert_handler ; 0x10006fc
        0x010012c8:    481e        .H      LDR      r0,[pc,#120] ; [0x1001344] = 0xffff
        0x010012ca:    4286        .B      CMP      r6,r0
        0x010012cc:    db06        ..      BLT      0x10012dc ; UART_SendBuf + 66
        0x010012ce:    4a10        .J      LDR      r2,[pc,#64] ; [0x1001310] = 0x10040ed
        0x010012d0:    21ff        .!      MOVS     r1,#0xff
        0x010012d2:    329f        .2      ADDS     r2,r2,#0x9f
        0x010012d4:    315b        [1      ADDS     r1,r1,#0x5b
        0x010012d6:    a00f        ..      ADR      r0,{pc}+0x3e ; 0x1001314
        0x010012d8:    f7fffa10    ....    BL       _assert_handler ; 0x10006fc
        0x010012dc:    0431        1.      LSLS     r1,r6,#16
        0x010012de:    2280        ."      MOVS     r2,#0x80
        0x010012e0:    2d00        .-      CMP      r5,#0
        0x010012e2:    d00a        ..      BEQ      0x10012fa ; UART_SendBuf + 96
        0x010012e4:    4816        .H      LDR      r0,[pc,#88] ; [0x1001340] = 0xf8c00
        0x010012e6:    6004        .`      STR      r4,[r0,#0]
        0x010012e8:    6883        .h      LDR      r3,[r0,#8]
        0x010012ea:    b29b        ..      UXTH     r3,r3
        0x010012ec:    430b        .C      ORRS     r3,r3,r1
        0x010012ee:    6083        .`      STR      r3,[r0,#8]
        0x010012f0:    73c2        .s      STRB     r2,[r0,#0xf]
        0x010012f2:    6901        .i      LDR      r1,[r0,#0x10]
        0x010012f4:    07c9        ..      LSLS     r1,r1,#31
        0x010012f6:    d0fc        ..      BEQ      0x10012f2 ; UART_SendBuf + 88
        0x010012f8:    bd70        p.      POP      {r4-r6,pc}
        0x010012fa:    4810        .H      LDR      r0,[pc,#64] ; [0x100133c] = 0xf8b00
        0x010012fc:    6004        .`      STR      r4,[r0,#0]
        0x010012fe:    6883        .h      LDR      r3,[r0,#8]
        0x01001300:    b29b        ..      UXTH     r3,r3
        0x01001302:    430b        .C      ORRS     r3,r3,r1
        0x01001304:    6083        .`      STR      r3,[r0,#8]
        0x01001306:    73c2        .s      STRB     r2,[r0,#0xf]
        0x01001308:    6901        .i      LDR      r1,[r0,#0x10]
        0x0100130a:    07c9        ..      LSLS     r1,r1,#31
        0x0100130c:    d0fc        ..      BEQ      0x1001308 ; UART_SendBuf + 110
        0x0100130e:    bd70        p.      POP      {r4-r6,pc}
    $d
        0x01001310:    010040ed    .@..    DCD    16793837
        0x01001314:    2e5c2e2e    ..\.    DCD    777793070
        0x01001318:    61685c2e    .\ha    DCD    1634229294
        0x0100131c:    61776472    rdwa    DCD    1635214450
        0x01001320:    4c5c6572    re\L    DCD    1281123698
        0x01001324:    61726269    ibra    DCD    1634886249
        0x01001328:    72656972    rier    DCD    1919248754
        0x0100132c:    6b64735c    \sdk    DCD    1801745244
        0x01001330:    5f63795c    \yc_    DCD    1600354652
        0x01001334:    74726175    uart    DCD    1953653109
        0x01001338:    0000632e    .c..    DCD    25390
        0x0100133c:    000f8b00    ....    DCD    1018624
        0x01001340:    000f8c00    ....    DCD    1018880
        0x01001344:    0000ffff    ....    DCD    65535
        0x01001348:    0044aa21    !.D.    DCD    4500001
        0x0100134c:    02dc6c00    .l..    DCD    48000000
        0x01001350:    00020448    H...    DCD    132168
        0x01001354:    00020048    H...    DCD    131144
    $t
    UART_SendData
        0x01001358:    b508        ..      PUSH     {r3,lr}
        0x0100135a:    466a        jF      MOV      r2,sp
        0x0100135c:    7011        .p      STRB     r1,[r2,#0]
        0x0100135e:    2201        ."      MOVS     r2,#1
        0x01001360:    0412        ..      LSLS     r2,r2,#16
        0x01001362:    2380        .#      MOVS     r3,#0x80
        0x01001364:    4669        iF      MOV      r1,sp
        0x01001366:    2800        .(      CMP      r0,#0
        0x01001368:    d00a        ..      BEQ      0x1001380 ; UART_SendData + 40
        0x0100136a:    4829        )H      LDR      r0,[pc,#164] ; [0x1001410] = 0xf8c00
        0x0100136c:    6001        .`      STR      r1,[r0,#0]
        0x0100136e:    6881        .h      LDR      r1,[r0,#8]
        0x01001370:    b289        ..      UXTH     r1,r1
        0x01001372:    1889        ..      ADDS     r1,r1,r2
        0x01001374:    6081        .`      STR      r1,[r0,#8]
        0x01001376:    73c3        .s      STRB     r3,[r0,#0xf]
        0x01001378:    6901        .i      LDR      r1,[r0,#0x10]
        0x0100137a:    07c9        ..      LSLS     r1,r1,#31
        0x0100137c:    d0fc        ..      BEQ      0x1001378 ; UART_SendData + 32
        0x0100137e:    bd08        ..      POP      {r3,pc}
        0x01001380:    4824        $H      LDR      r0,[pc,#144] ; [0x1001414] = 0xf8b00
        0x01001382:    6001        .`      STR      r1,[r0,#0]
        0x01001384:    6881        .h      LDR      r1,[r0,#8]
        0x01001386:    b289        ..      UXTH     r1,r1
        0x01001388:    1889        ..      ADDS     r1,r1,r2
        0x0100138a:    6081        .`      STR      r1,[r0,#8]
        0x0100138c:    73c3        .s      STRB     r3,[r0,#0xf]
        0x0100138e:    6901        .i      LDR      r1,[r0,#0x10]
        0x01001390:    07c9        ..      LSLS     r1,r1,#31
        0x01001392:    d0fc        ..      BEQ      0x100138e ; UART_SendData + 54
        0x01001394:    bd08        ..      POP      {r3,pc}
    UART_SetITTimeout
        0x01001396:    2800        .(      CMP      r0,#0
        0x01001398:    d002        ..      BEQ      0x10013a0 ; UART_SetITTimeout + 10
        0x0100139a:    481d        .H      LDR      r0,[pc,#116] ; [0x1001410] = 0xf8c00
        0x0100139c:    6201        .b      STR      r1,[r0,#0x20]
        0x0100139e:    4770        pG      BX       lr
        0x010013a0:    481c        .H      LDR      r0,[pc,#112] ; [0x1001414] = 0xf8b00
        0x010013a2:    e7fb        ..      B        0x100139c ; UART_SetITTimeout + 6
    UART_SetRxITNum
        0x010013a4:    b570        p.      PUSH     {r4-r6,lr}
        0x010013a6:    25ff        .%      MOVS     r5,#0xff
        0x010013a8:    022d        -.      LSLS     r5,r5,#8
        0x010013aa:    020c        ..      LSLS     r4,r1,#8
        0x010013ac:    2800        .(      CMP      r0,#0
        0x010013ae:    d00d        ..      BEQ      0x10013cc ; UART_SetRxITNum + 40
        0x010013b0:    2801        .(      CMP      r0,#1
        0x010013b2:    d005        ..      BEQ      0x10013c0 ; UART_SetRxITNum + 28
        0x010013b4:    21ff        .!      MOVS     r1,#0xff
        0x010013b6:    4a18        .J      LDR      r2,[pc,#96] ; [0x1001418] = 0x1004199
        0x010013b8:    318f        .1      ADDS     r1,r1,#0x8f
        0x010013ba:    4818        .H      LDR      r0,[pc,#96] ; [0x100141c] = 0x1001314
        0x010013bc:    f7fff99e    ....    BL       _assert_handler ; 0x10006fc
        0x010013c0:    4813        .H      LDR      r0,[pc,#76] ; [0x1001410] = 0xf8c00
        0x010013c2:    69c1        .i      LDR      r1,[r0,#0x1c]
        0x010013c4:    43a9        .C      BICS     r1,r1,r5
        0x010013c6:    4321        !C      ORRS     r1,r1,r4
        0x010013c8:    61c1        .a      STR      r1,[r0,#0x1c]
        0x010013ca:    bd70        p.      POP      {r4-r6,pc}
        0x010013cc:    4911        .I      LDR      r1,[pc,#68] ; [0x1001414] = 0xf8b00
        0x010013ce:    69c8        .i      LDR      r0,[r1,#0x1c]
        0x010013d0:    43a8        .C      BICS     r0,r0,r5
        0x010013d2:    4320         C      ORRS     r0,r0,r4
        0x010013d4:    61c8        .a      STR      r0,[r1,#0x1c]
        0x010013d6:    bd70        p.      POP      {r4-r6,pc}
    UART_StructInit
        0x010013d8:    214b        K!      MOVS     r1,#0x4b
        0x010013da:    01c9        ..      LSLS     r1,r1,#7
        0x010013dc:    6041        A`      STR      r1,[r0,#4]
        0x010013de:    2100        .!      MOVS     r1,#0
        0x010013e0:    7201        .r      STRB     r1,[r0,#8]
        0x010013e2:    72c1        .r      STRB     r1,[r0,#0xb]
        0x010013e4:    7001        .p      STRB     r1,[r0,#0]
        0x010013e6:    7241        Ar      STRB     r1,[r0,#9]
        0x010013e8:    7281        .r      STRB     r1,[r0,#0xa]
        0x010013ea:    4770        pG      BX       lr
    UART_ReceiveDataLen
        0x010013ec:    b510        ..      PUSH     {r4,lr}
        0x010013ee:    2800        .(      CMP      r0,#0
        0x010013f0:    d00c        ..      BEQ      0x100140c ; UART_ReceiveDataLen + 32
        0x010013f2:    2801        .(      CMP      r0,#1
        0x010013f4:    d006        ..      BEQ      0x1001404 ; UART_ReceiveDataLen + 24
        0x010013f6:    4a08        .J      LDR      r2,[pc,#32] ; [0x1001418] = 0x1004199
        0x010013f8:    21ff        .!      MOVS     r1,#0xff
        0x010013fa:    3210        .2      ADDS     r2,r2,#0x10
        0x010013fc:    31a8        .1      ADDS     r1,r1,#0xa8
        0x010013fe:    4807        .H      LDR      r0,[pc,#28] ; [0x100141c] = 0x1001314
        0x01001400:    f7fff97c    ..|.    BL       _assert_handler ; 0x10006fc
        0x01001404:    4802        .H      LDR      r0,[pc,#8] ; [0x1001410] = 0xf8c00
        0x01001406:    6a80        .j      LDR      r0,[r0,#0x28]
        0x01001408:    0c00        ..      LSRS     r0,r0,#16
        0x0100140a:    bd10        ..      POP      {r4,pc}
        0x0100140c:    4801        .H      LDR      r0,[pc,#4] ; [0x1001414] = 0xf8b00
        0x0100140e:    e7fa        ..      B        0x1001406 ; UART_ReceiveDataLen + 26
    $d
        0x01001410:    000f8c00    ....    DCD    1018880
        0x01001414:    000f8b00    ....    DCD    1018624
        0x01001418:    01004199    .A..    DCD    16794009
        0x0100141c:    01001314    ....    DCD    16782100
    $t
    .text
    sysTick_delay_ms
        0x01001420:    b510        ..      PUSH     {r4,lr}
        0x01001422:    4604        .F      MOV      r4,r0
        0x01001424:    20ff        .       MOVS     r0,#0xff
        0x01001426:    305e        ^0      ADDS     r0,r0,#0x5e
        0x01001428:    4284        .B      CMP      r4,r0
        0x0100142a:    d904        ..      BLS      0x1001436 ; sysTick_delay_ms + 22
        0x0100142c:    4a63        cJ      LDR      r2,[pc,#396] ; [0x10015bc] = 0x10041bd
        0x0100142e:    2112        .!      MOVS     r1,#0x12
        0x01001430:    a063        c.      ADR      r0,{pc}+0x190 ; 0x10015c0
        0x01001432:    f7fff963    ..c.    BL       _assert_handler ; 0x10006fc
        0x01001436:    486d        mH      LDR      r0,[pc,#436] ; [0x10015ec] = 0xf8540
        0x01001438:    6a00        .j      LDR      r0,[r0,#0x20]
        0x0100143a:    0701        ..      LSLS     r1,r0,#28
        0x0100143c:    0f09        ..      LSRS     r1,r1,#28
        0x0100143e:    486c        lH      LDR      r0,[pc,#432] ; [0x10015f0] = 0xb71b000
        0x01001440:    1c89        ..      ADDS     r1,r1,#2
        0x01001442:    f001fe2f    ../.    BL       __aeabi_uidiv ; 0x10030a4
        0x01001446:    217d        }!      MOVS     r1,#0x7d
        0x01001448:    00c9        ..      LSLS     r1,r1,#3
        0x0100144a:    f001fe2b    ..+.    BL       __aeabi_uidiv ; 0x10030a4
        0x0100144e:    4360        `C      MULS     r0,r4,r0
        0x01001450:    4968        hI      LDR      r1,[pc,#416] ; [0x10015f4] = 0xe000e000
        0x01001452:    1e40        @.      SUBS     r0,r0,#1
        0x01001454:    6148        Ha      STR      r0,[r1,#0x14]
        0x01001456:    2000        .       MOVS     r0,#0
        0x01001458:    6188        .a      STR      r0,[r1,#0x18]
        0x0100145a:    6908        .i      LDR      r0,[r1,#0x10]
        0x0100145c:    2202        ."      MOVS     r2,#2
        0x0100145e:    4390        .C      BICS     r0,r0,r2
        0x01001460:    6108        .a      STR      r0,[r1,#0x10]
        0x01001462:    6908        .i      LDR      r0,[r1,#0x10]
        0x01001464:    2205        ."      MOVS     r2,#5
        0x01001466:    4310        .C      ORRS     r0,r0,r2
        0x01001468:    6108        .a      STR      r0,[r1,#0x10]
        0x0100146a:    6908        .i      LDR      r0,[r1,#0x10]
        0x0100146c:    0c00        ..      LSRS     r0,r0,#16
        0x0100146e:    d0fc        ..      BEQ      0x100146a ; sysTick_delay_ms + 74
        0x01001470:    6908        .i      LDR      r0,[r1,#0x10]
        0x01001472:    6108        .a      STR      r0,[r1,#0x10]
        0x01001474:    bd10        ..      POP      {r4,pc}
    SysTick_Delay_Ms
        0x01001476:    b570        p.      PUSH     {r4-r6,lr}
        0x01001478:    26ff        .&      MOVS     r6,#0xff
        0x0100147a:    362d        -6      ADDS     r6,r6,#0x2d
        0x0100147c:    4631        1F      MOV      r1,r6
        0x0100147e:    f001fe11    ....    BL       __aeabi_uidiv ; 0x10030a4
        0x01001482:    4604        .F      MOV      r4,r0
        0x01001484:    460d        .F      MOV      r5,r1
        0x01001486:    e003        ..      B        0x1001490 ; SysTick_Delay_Ms + 26
        0x01001488:    4630        0F      MOV      r0,r6
        0x0100148a:    f7ffffc9    ....    BL       sysTick_delay_ms ; 0x1001420
        0x0100148e:    1e64        d.      SUBS     r4,r4,#1
        0x01001490:    2c00        .,      CMP      r4,#0
        0x01001492:    d1f9        ..      BNE      0x1001488 ; SysTick_Delay_Ms + 18
        0x01001494:    2d00        .-      CMP      r5,#0
        0x01001496:    d002        ..      BEQ      0x100149e ; SysTick_Delay_Ms + 40
        0x01001498:    4628        (F      MOV      r0,r5
        0x0100149a:    f7ffffc1    ....    BL       sysTick_delay_ms ; 0x1001420
        0x0100149e:    bd70        p.      POP      {r4-r6,pc}
    SysTick_Delay_Us
        0x010014a0:    b510        ..      PUSH     {r4,lr}
        0x010014a2:    4604        .F      MOV      r4,r0
        0x010014a4:    4854        TH      LDR      r0,[pc,#336] ; [0x10015f8] = 0x55348
        0x010014a6:    4284        .B      CMP      r4,r0
        0x010014a8:    d905        ..      BLS      0x10014b6 ; SysTick_Delay_Us + 22
        0x010014aa:    4a44        DJ      LDR      r2,[pc,#272] ; [0x10015bc] = 0x10041bd
        0x010014ac:    2130        0!      MOVS     r1,#0x30
        0x010014ae:    3211        .2      ADDS     r2,r2,#0x11
        0x010014b0:    a043        C.      ADR      r0,{pc}+0x110 ; 0x10015c0
        0x010014b2:    f7fff923    ..#.    BL       _assert_handler ; 0x10006fc
        0x010014b6:    484d        MH      LDR      r0,[pc,#308] ; [0x10015ec] = 0xf8540
        0x010014b8:    6a00        .j      LDR      r0,[r0,#0x20]
        0x010014ba:    0701        ..      LSLS     r1,r0,#28
        0x010014bc:    0f09        ..      LSRS     r1,r1,#28
        0x010014be:    484c        LH      LDR      r0,[pc,#304] ; [0x10015f0] = 0xb71b000
        0x010014c0:    1c89        ..      ADDS     r1,r1,#2
        0x010014c2:    f001fdef    ....    BL       __aeabi_uidiv ; 0x10030a4
        0x010014c6:    494d        MI      LDR      r1,[pc,#308] ; [0x10015fc] = 0xf4240
        0x010014c8:    f001fdec    ....    BL       __aeabi_uidiv ; 0x10030a4
        0x010014cc:    4360        `C      MULS     r0,r4,r0
        0x010014ce:    4949        II      LDR      r1,[pc,#292] ; [0x10015f4] = 0xe000e000
        0x010014d0:    1e40        @.      SUBS     r0,r0,#1
        0x010014d2:    6148        Ha      STR      r0,[r1,#0x14]
        0x010014d4:    2000        .       MOVS     r0,#0
        0x010014d6:    6188        .a      STR      r0,[r1,#0x18]
        0x010014d8:    6908        .i      LDR      r0,[r1,#0x10]
        0x010014da:    2202        ."      MOVS     r2,#2
        0x010014dc:    4390        .C      BICS     r0,r0,r2
        0x010014de:    6108        .a      STR      r0,[r1,#0x10]
        0x010014e0:    6908        .i      LDR      r0,[r1,#0x10]
        0x010014e2:    2205        ."      MOVS     r2,#5
        0x010014e4:    4310        .C      ORRS     r0,r0,r2
        0x010014e6:    6108        .a      STR      r0,[r1,#0x10]
        0x010014e8:    6908        .i      LDR      r0,[r1,#0x10]
        0x010014ea:    0c00        ..      LSRS     r0,r0,#16
        0x010014ec:    d0fc        ..      BEQ      0x10014e8 ; SysTick_Delay_Us + 72
        0x010014ee:    6908        .i      LDR      r0,[r1,#0x10]
        0x010014f0:    6108        .a      STR      r0,[r1,#0x10]
        0x010014f2:    bd10        ..      POP      {r4,pc}
    SysTick_Config
        0x010014f4:    b510        ..      PUSH     {r4,lr}
        0x010014f6:    4604        .F      MOV      r4,r0
        0x010014f8:    4841        AH      LDR      r0,[pc,#260] ; [0x1001600] = 0xffffff
        0x010014fa:    4284        .B      CMP      r4,r0
        0x010014fc:    d905        ..      BLS      0x100150a ; SysTick_Config + 22
        0x010014fe:    4a2f        /J      LDR      r2,[pc,#188] ; [0x10015bc] = 0x10041bd
        0x01001500:    2142        B!      MOVS     r1,#0x42
        0x01001502:    3222        "2      ADDS     r2,r2,#0x22
        0x01001504:    a02e        ..      ADR      r0,{pc}+0xbc ; 0x10015c0
        0x01001506:    f7fff8f9    ....    BL       _assert_handler ; 0x10006fc
        0x0100150a:    493a        :I      LDR      r1,[pc,#232] ; [0x10015f4] = 0xe000e000
        0x0100150c:    6908        .i      LDR      r0,[r1,#0x10]
        0x0100150e:    0840        @.      LSRS     r0,r0,#1
        0x01001510:    0040        @.      LSLS     r0,r0,#1
        0x01001512:    6108        .a      STR      r0,[r1,#0x10]
        0x01001514:    1e64        d.      SUBS     r4,r4,#1
        0x01001516:    614c        La      STR      r4,[r1,#0x14]
        0x01001518:    2000        .       MOVS     r0,#0
        0x0100151a:    6188        .a      STR      r0,[r1,#0x18]
        0x0100151c:    4a39        9J      LDR      r2,[pc,#228] ; [0x1001604] = 0x20018
        0x0100151e:    6010        .`      STR      r0,[r2,#0]
        0x01001520:    6908        .i      LDR      r0,[r1,#0x10]
        0x01001522:    2207        ."      MOVS     r2,#7
        0x01001524:    4310        .C      ORRS     r0,r0,r2
        0x01001526:    6108        .a      STR      r0,[r1,#0x10]
        0x01001528:    bd10        ..      POP      {r4,pc}
    SysTick_disable
        0x0100152a:    4832        2H      LDR      r0,[pc,#200] ; [0x10015f4] = 0xe000e000
        0x0100152c:    6901        .i      LDR      r1,[r0,#0x10]
        0x0100152e:    0849        I.      LSRS     r1,r1,#1
        0x01001530:    0049        I.      LSLS     r1,r1,#1
        0x01001532:    6101        .a      STR      r1,[r0,#0x10]
        0x01001534:    2100        .!      MOVS     r1,#0
        0x01001536:    6141        Aa      STR      r1,[r0,#0x14]
        0x01001538:    6181        .a      STR      r1,[r0,#0x18]
        0x0100153a:    4a32        2J      LDR      r2,[pc,#200] ; [0x1001604] = 0x20018
        0x0100153c:    6011        .`      STR      r1,[r2,#0]
        0x0100153e:    6101        .a      STR      r1,[r0,#0x10]
        0x01001540:    4770        pG      BX       lr
    SysTick_GetTick
        0x01001542:    4830        0H      LDR      r0,[pc,#192] ; [0x1001604] = 0x20018
        0x01001544:    6800        .h      LDR      r0,[r0,#0]
        0x01001546:    4770        pG      BX       lr
    SysTick_IsTimeOut
        0x01001548:    b570        p.      PUSH     {r4-r6,lr}
        0x0100154a:    460d        .F      MOV      r5,r1
        0x0100154c:    492d        -I      LDR      r1,[pc,#180] ; [0x1001604] = 0x20018
        0x0100154e:    6809        .h      LDR      r1,[r1,#0]
        0x01001550:    1a0c        ..      SUBS     r4,r1,r0
        0x01001552:    d501        ..      BPL      0x1001558 ; SysTick_IsTimeOut + 16
        0x01001554:    482c        ,H      LDR      r0,[pc,#176] ; [0x1001608] = 0x7fffffff
        0x01001556:    1824        $.      ADDS     r4,r4,r0
        0x01001558:    4824        $H      LDR      r0,[pc,#144] ; [0x10015ec] = 0xf8540
        0x0100155a:    6a00        .j      LDR      r0,[r0,#0x20]
        0x0100155c:    0701        ..      LSLS     r1,r0,#28
        0x0100155e:    0f09        ..      LSRS     r1,r1,#28
        0x01001560:    4823        #H      LDR      r0,[pc,#140] ; [0x10015f0] = 0xb71b000
        0x01001562:    1c89        ..      ADDS     r1,r1,#2
        0x01001564:    f001fd9e    ....    BL       __aeabi_uidiv ; 0x10030a4
        0x01001568:    217d        }!      MOVS     r1,#0x7d
        0x0100156a:    00c9        ..      LSLS     r1,r1,#3
        0x0100156c:    f001fd9a    ....    BL       __aeabi_uidiv ; 0x10030a4
        0x01001570:    4601        .F      MOV      r1,r0
        0x01001572:    4820         H      LDR      r0,[pc,#128] ; [0x10015f4] = 0xe000e000
        0x01001574:    6940        @i      LDR      r0,[r0,#0x14]
        0x01001576:    4360        `C      MULS     r0,r4,r0
        0x01001578:    f001fd94    ....    BL       __aeabi_uidiv ; 0x10030a4
        0x0100157c:    42a8        .B      CMP      r0,r5
        0x0100157e:    d301        ..      BCC      0x1001584 ; SysTick_IsTimeOut + 60
        0x01001580:    2001        .       MOVS     r0,#1
        0x01001582:    bd70        p.      POP      {r4-r6,pc}
        0x01001584:    2000        .       MOVS     r0,#0
        0x01001586:    bd70        p.      POP      {r4-r6,pc}
    SysTick_GetRelativeTime
        0x01001588:    b510        ..      PUSH     {r4,lr}
        0x0100158a:    491e        .I      LDR      r1,[pc,#120] ; [0x1001604] = 0x20018
        0x0100158c:    6809        .h      LDR      r1,[r1,#0]
        0x0100158e:    1a0c        ..      SUBS     r4,r1,r0
        0x01001590:    d501        ..      BPL      0x1001596 ; SysTick_GetRelativeTime + 14
        0x01001592:    481d        .H      LDR      r0,[pc,#116] ; [0x1001608] = 0x7fffffff
        0x01001594:    1824        $.      ADDS     r4,r4,r0
        0x01001596:    4815        .H      LDR      r0,[pc,#84] ; [0x10015ec] = 0xf8540
        0x01001598:    6a00        .j      LDR      r0,[r0,#0x20]
        0x0100159a:    0701        ..      LSLS     r1,r0,#28
        0x0100159c:    0f09        ..      LSRS     r1,r1,#28
        0x0100159e:    4814        .H      LDR      r0,[pc,#80] ; [0x10015f0] = 0xb71b000
        0x010015a0:    1c89        ..      ADDS     r1,r1,#2
        0x010015a2:    f001fd7f    ....    BL       __aeabi_uidiv ; 0x10030a4
        0x010015a6:    217d        }!      MOVS     r1,#0x7d
        0x010015a8:    00c9        ..      LSLS     r1,r1,#3
        0x010015aa:    f001fd7b    ..{.    BL       __aeabi_uidiv ; 0x10030a4
        0x010015ae:    4601        .F      MOV      r1,r0
        0x010015b0:    4810        .H      LDR      r0,[pc,#64] ; [0x10015f4] = 0xe000e000
        0x010015b2:    6940        @i      LDR      r0,[r0,#0x14]
        0x010015b4:    4360        `C      MULS     r0,r4,r0
        0x010015b6:    f001fd75    ..u.    BL       __aeabi_uidiv ; 0x10030a4
        0x010015ba:    bd10        ..      POP      {r4,pc}
    $d
        0x010015bc:    010041bd    .A..    DCD    16794045
        0x010015c0:    2e5c2e2e    ..\.    DCD    777793070
        0x010015c4:    61685c2e    .\ha    DCD    1634229294
        0x010015c8:    61776472    rdwa    DCD    1635214450
        0x010015cc:    4c5c6572    re\L    DCD    1281123698
        0x010015d0:    61726269    ibra    DCD    1634886249
        0x010015d4:    72656972    rier    DCD    1919248754
        0x010015d8:    6b64735c    \sdk    DCD    1801745244
        0x010015dc:    5f63795c    \yc_    DCD    1600354652
        0x010015e0:    74737973    syst    DCD    1953724787
        0x010015e4:    2e6b6369    ick.    DCD    778789737
        0x010015e8:    00000063    c...    DCD    99
        0x010015ec:    000f8540    @...    DCD    1017152
        0x010015f0:    0b71b000    ..q.    DCD    192000000
        0x010015f4:    e000e000    ....    DCD    3758153728
        0x010015f8:    00055348    HS..    DCD    349000
        0x010015fc:    000f4240    @B..    DCD    1000000
        0x01001600:    00ffffff    ....    DCD    16777215
        0x01001604:    00020018    ....    DCD    131096
        0x01001608:    7fffffff    ....    DCD    2147483647
    $t
    .text
    ADC_Init
        0x0100160c:    b510        ..      PUSH     {r4,lr}
        0x0100160e:    7801        .x      LDRB     r1,[r0,#0]
        0x01001610:    4604        .F      MOV      r4,r0
        0x01001612:    2900        .)      CMP      r1,#0
        0x01001614:    d012        ..      BEQ      0x100163c ; ADC_Init + 48
        0x01001616:    2901        .)      CMP      r1,#1
        0x01001618:    d010        ..      BEQ      0x100163c ; ADC_Init + 48
        0x0100161a:    2902        .)      CMP      r1,#2
        0x0100161c:    d00e        ..      BEQ      0x100163c ; ADC_Init + 48
        0x0100161e:    2903        .)      CMP      r1,#3
        0x01001620:    d00c        ..      BEQ      0x100163c ; ADC_Init + 48
        0x01001622:    2904        .)      CMP      r1,#4
        0x01001624:    d00a        ..      BEQ      0x100163c ; ADC_Init + 48
        0x01001626:    2905        .)      CMP      r1,#5
        0x01001628:    d008        ..      BEQ      0x100163c ; ADC_Init + 48
        0x0100162a:    2906        .)      CMP      r1,#6
        0x0100162c:    d006        ..      BEQ      0x100163c ; ADC_Init + 48
        0x0100162e:    2907        .)      CMP      r1,#7
        0x01001630:    d004        ..      BEQ      0x100163c ; ADC_Init + 48
        0x01001632:    4a89        .J      LDR      r2,[pc,#548] ; [0x1001858] = 0x10041ee
        0x01001634:    2111        .!      MOVS     r1,#0x11
        0x01001636:    a089        ..      ADR      r0,{pc}+0x226 ; 0x100185c
        0x01001638:    f7fff860    ..`.    BL       _assert_handler ; 0x10006fc
        0x0100163c:    7860        `x      LDRB     r0,[r4,#1]
        0x0100163e:    2800        .(      CMP      r0,#0
        0x01001640:    d00a        ..      BEQ      0x1001658 ; ADC_Init + 76
        0x01001642:    2801        .(      CMP      r0,#1
        0x01001644:    d008        ..      BEQ      0x1001658 ; ADC_Init + 76
        0x01001646:    2802        .(      CMP      r0,#2
        0x01001648:    d006        ..      BEQ      0x1001658 ; ADC_Init + 76
        0x0100164a:    2803        .(      CMP      r0,#3
        0x0100164c:    d004        ..      BEQ      0x1001658 ; ADC_Init + 76
        0x0100164e:    4a82        .J      LDR      r2,[pc,#520] ; [0x1001858] = 0x10041ee
        0x01001650:    2112        .!      MOVS     r1,#0x12
        0x01001652:    a082        ..      ADR      r0,{pc}+0x20a ; 0x100185c
        0x01001654:    f7fff852    ..R.    BL       _assert_handler ; 0x10006fc
        0x01001658:    f000fda3    ....    BL       IpcInit ; 0x10021a2
        0x0100165c:    7860        `x      LDRB     r0,[r4,#1]
        0x0100165e:    0101        ..      LSLS     r1,r0,#4
        0x01001660:    208f        .       MOVS     r0,#0x8f
        0x01001662:    4301        .C      ORRS     r1,r1,r0
        0x01001664:    4887        .H      LDR      r0,[pc,#540] ; [0x1001884] = 0xc8960
        0x01001666:    7441        At      STRB     r1,[r0,#0x11]
        0x01001668:    217f        .!      MOVS     r1,#0x7f
        0x0100166a:    7401        .t      STRB     r1,[r0,#0x10]
        0x0100166c:    21aa        .!      MOVS     r1,#0xaa
        0x0100166e:    7481        .t      STRB     r1,[r0,#0x12]
        0x01001670:    7821        !x      LDRB     r1,[r4,#0]
        0x01001672:    2230        0"      MOVS     r2,#0x30
        0x01001674:    4311        .C      ORRS     r1,r1,r2
        0x01001676:    74c1        .t      STRB     r1,[r0,#0x13]
        0x01001678:    bd10        ..      POP      {r4,pc}
    ADC_GetResult
        0x0100167a:    4983        .I      LDR      r1,[pc,#524] ; [0x1001888] = 0x2001c
        0x0100167c:    7809        .x      LDRB     r1,[r1,#0]
        0x0100167e:    2900        .)      CMP      r1,#0
        0x01001680:    d00f        ..      BEQ      0x10016a2 ; ADC_GetResult + 40
        0x01001682:    4a80        .J      LDR      r2,[pc,#512] ; [0x1001884] = 0xc8960
        0x01001684:    4981        .I      LDR      r1,[pc,#516] ; [0x100188c] = 0x1388
        0x01001686:    237f        .#      MOVS     r3,#0x7f
        0x01001688:    7413        .t      STRB     r3,[r2,#0x10]
        0x0100168a:    23aa        .#      MOVS     r3,#0xaa
        0x0100168c:    7493        .t      STRB     r3,[r2,#0x12]
        0x0100168e:    2330        0#      MOVS     r3,#0x30
        0x01001690:    4318        .C      ORRS     r0,r0,r3
        0x01001692:    74d0        .t      STRB     r0,[r2,#0x13]
        0x01001694:    1e49        I.      SUBS     r1,r1,#1
        0x01001696:    d2fd        ..      BCS      0x1001694 ; ADC_GetResult + 26
        0x01001698:    487d        }H      LDR      r0,[pc,#500] ; [0x1001890] = 0xf8500
        0x0100169a:    89c0        ..      LDRH     r0,[r0,#0xe]
        0x0100169c:    497d        }I      LDR      r1,[pc,#500] ; [0x1001894] = 0x7fe
        0x0100169e:    4008        .@      ANDS     r0,r0,r1
        0x010016a0:    4770        pG      BX       lr
        0x010016a2:    2000        .       MOVS     r0,#0
        0x010016a4:    4770        pG      BX       lr
    ADC_Filt
        0x010016a6:    b5f0        ..      PUSH     {r4-r7,lr}
        0x010016a8:    4604        .F      MOV      r4,r0
        0x010016aa:    4877        wH      LDR      r0,[pc,#476] ; [0x1001888] = 0x2001c
        0x010016ac:    4977        wI      LDR      r1,[pc,#476] ; [0x100188c] = 0x1388
        0x010016ae:    7802        .x      LDRB     r2,[r0,#0]
        0x010016b0:    2000        .       MOVS     r0,#0
        0x010016b2:    23c8        .#      MOVS     r3,#0xc8
        0x010016b4:    43c0        .C      MVNS     r0,r0
        0x010016b6:    b08a        ..      SUB      sp,sp,#0x28
        0x010016b8:    2a00        .*      CMP      r2,#0
        0x010016ba:    d03c        <.      BEQ      0x1001736 ; ADC_Filt + 144
        0x010016bc:    4a71        qJ      LDR      r2,[pc,#452] ; [0x1001884] = 0xc8960
        0x010016be:    257f        .%      MOVS     r5,#0x7f
        0x010016c0:    7415        .t      STRB     r5,[r2,#0x10]
        0x010016c2:    25aa        .%      MOVS     r5,#0xaa
        0x010016c4:    7495        .t      STRB     r5,[r2,#0x12]
        0x010016c6:    2530        0%      MOVS     r5,#0x30
        0x010016c8:    432c        ,C      ORRS     r4,r4,r5
        0x010016ca:    74d4        .t      STRB     r4,[r2,#0x13]
        0x010016cc:    1e49        I.      SUBS     r1,r1,#1
        0x010016ce:    d2fd        ..      BCS      0x10016cc ; ADC_Filt + 38
        0x010016d0:    4e6f        oN      LDR      r6,[pc,#444] ; [0x1001890] = 0xf8500
        0x010016d2:    4f70        pO      LDR      r7,[pc,#448] ; [0x1001894] = 0x7fe
        0x010016d4:    2100        .!      MOVS     r1,#0
        0x010016d6:    466c        lF      MOV      r4,sp
        0x010016d8:    89f2        ..      LDRH     r2,[r6,#0xe]
        0x010016da:    004d        M.      LSLS     r5,r1,#1
        0x010016dc:    403a        :@      ANDS     r2,r2,r7
        0x010016de:    5362        bS      STRH     r2,[r4,r5]
        0x010016e0:    2a00        .*      CMP      r2,#0
        0x010016e2:    d103        ..      BNE      0x10016ec ; ADC_Filt + 70
        0x010016e4:    1e49        I.      SUBS     r1,r1,#1
        0x010016e6:    b249        I.      SXTB     r1,r1
        0x010016e8:    1e5b        [.      SUBS     r3,r3,#1
        0x010016ea:    d324        $.      BCC      0x1001736 ; ADC_Filt + 144
        0x010016ec:    1c49        I.      ADDS     r1,r1,#1
        0x010016ee:    b249        I.      SXTB     r1,r1
        0x010016f0:    2914        .)      CMP      r1,#0x14
        0x010016f2:    dbf1        ..      BLT      0x10016d8 ; ADC_Filt + 50
        0x010016f4:    2101        .!      MOVS     r1,#1
        0x010016f6:    0048        H.      LSLS     r0,r1,#1
        0x010016f8:    5a23        #Z      LDRH     r3,[r4,r0]
        0x010016fa:    1e48        H.      SUBS     r0,r1,#1
        0x010016fc:    e002        ..      B        0x1001704 ; ADC_Filt + 94
        0x010016fe:    192d        -.      ADDS     r5,r5,r4
        0x01001700:    806a        j.      STRH     r2,[r5,#2]
        0x01001702:    1e40        @.      SUBS     r0,r0,#1
        0x01001704:    b240        @.      SXTB     r0,r0
        0x01001706:    2800        .(      CMP      r0,#0
        0x01001708:    db03        ..      BLT      0x1001712 ; ADC_Filt + 108
        0x0100170a:    0045        E.      LSLS     r5,r0,#1
        0x0100170c:    5b62        b[      LDRH     r2,[r4,r5]
        0x0100170e:    429a        .B      CMP      r2,r3
        0x01001710:    d8f5        ..      BHI      0x10016fe ; ADC_Filt + 88
        0x01001712:    0040        @.      LSLS     r0,r0,#1
        0x01001714:    1900        ..      ADDS     r0,r0,r4
        0x01001716:    1c49        I.      ADDS     r1,r1,#1
        0x01001718:    b249        I.      SXTB     r1,r1
        0x0100171a:    8043        C.      STRH     r3,[r0,#2]
        0x0100171c:    2914        .)      CMP      r1,#0x14
        0x0100171e:    dbea        ..      BLT      0x10016f6 ; ADC_Filt + 80
        0x01001720:    2100        .!      MOVS     r1,#0
        0x01001722:    2006        .       MOVS     r0,#6
        0x01001724:    0042        B.      LSLS     r2,r0,#1
        0x01001726:    5aa2        .Z      LDRH     r2,[r4,r2]
        0x01001728:    1c40        @.      ADDS     r0,r0,#1
        0x0100172a:    1851        Q.      ADDS     r1,r2,r1
        0x0100172c:    b240        @.      SXTB     r0,r0
        0x0100172e:    b289        ..      UXTH     r1,r1
        0x01001730:    280e        .(      CMP      r0,#0xe
        0x01001732:    dbf7        ..      BLT      0x1001724 ; ADC_Filt + 126
        0x01001734:    08c8        ..      LSRS     r0,r1,#3
        0x01001736:    b00a        ..      ADD      sp,sp,#0x28
        0x01001738:    bdf0        ..      POP      {r4-r7,pc}
    ADC_GetVoltage
        0x0100173a:    b5f1        ..      PUSH     {r0,r4-r7,lr}
        0x0100173c:    b09a        ..      SUB      sp,sp,#0x68
        0x0100173e:    4853        SH      LDR      r0,[pc,#332] ; [0x100188c] = 0x1388
        0x01001740:    2400        .$      MOVS     r4,#0
        0x01001742:    9018        ..      STR      r0,[sp,#0x60]
        0x01001744:    2150        P!      MOVS     r1,#0x50
        0x01001746:    9419        ..      STR      r4,[sp,#0x64]
        0x01001748:    a804        ..      ADD      r0,sp,#0x10
        0x0100174a:    f001fcee    ....    BL       __aeabi_memclr ; 0x100312a
        0x0100174e:    484d        MH      LDR      r0,[pc,#308] ; [0x1001884] = 0xc8960
        0x01001750:    7c40        @|      LDRB     r0,[r0,#0x11]
        0x01001752:    0640        @.      LSLS     r0,r0,#25
        0x01001754:    0f45        E.      LSRS     r5,r0,#29
        0x01001756:    2000        .       MOVS     r0,#0
        0x01001758:    9000        ..      STR      r0,[sp,#0]
        0x0100175a:    9001        ..      STR      r0,[sp,#4]
        0x0100175c:    9002        ..      STR      r0,[sp,#8]
        0x0100175e:    9003        ..      STR      r0,[sp,#0xc]
        0x01001760:    4849        IH      LDR      r0,[pc,#292] ; [0x1001888] = 0x2001c
        0x01001762:    7800        .x      LDRB     r0,[r0,#0]
        0x01001764:    2800        .(      CMP      r0,#0
        0x01001766:    d04e        N.      BEQ      0x1001806 ; ADC_GetVoltage + 204
        0x01001768:    20ff        .       MOVS     r0,#0xff
        0x0100176a:    2210        ."      MOVS     r2,#0x10
        0x0100176c:    4669        iF      MOV      r1,sp
        0x0100176e:    302d        -0      ADDS     r0,r0,#0x2d
        0x01001770:    f000fb42    ..B.    BL       read_otp ; 0x1001df8
        0x01001774:    2d00        .-      CMP      r5,#0
        0x01001776:    d004        ..      BEQ      0x1001782 ; ADC_GetVoltage + 72
        0x01001778:    2d02        .-      CMP      r5,#2
        0x0100177a:    d00e        ..      BEQ      0x100179a ; ADC_GetVoltage + 96
        0x0100177c:    2d03        .-      CMP      r5,#3
        0x0100177e:    d142        B.      BNE      0x1001806 ; ADC_GetVoltage + 204
        0x01001780:    e017        ..      B        0x10017b2 ; ADC_GetVoltage + 120
        0x01001782:    4668        hF      MOV      r0,sp
        0x01001784:    8845        E.      LDRH     r5,[r0,#2]
        0x01001786:    207d        }       MOVS     r0,#0x7d
        0x01001788:    00c0        ..      LSLS     r0,r0,#3
        0x0100178a:    4345        EC      MULS     r5,r0,r5
        0x0100178c:    4668        hF      MOV      r0,sp
        0x0100178e:    8906        ..      LDRH     r6,[r0,#8]
        0x01001790:    207d        }       MOVS     r0,#0x7d
        0x01001792:    00c0        ..      LSLS     r0,r0,#3
        0x01001794:    4346        FC      MULS     r6,r0,r6
        0x01001796:    1047        G.      ASRS     r7,r0,#1
        0x01001798:    e017        ..      B        0x10017ca ; ADC_GetVoltage + 144
        0x0100179a:    4668        hF      MOV      r0,sp
        0x0100179c:    8885        ..      LDRH     r5,[r0,#4]
        0x0100179e:    207d        }       MOVS     r0,#0x7d
        0x010017a0:    00c0        ..      LSLS     r0,r0,#3
        0x010017a2:    4345        EC      MULS     r5,r0,r5
        0x010017a4:    4668        hF      MOV      r0,sp
        0x010017a6:    8946        F.      LDRH     r6,[r0,#0xa]
        0x010017a8:    207d        }       MOVS     r0,#0x7d
        0x010017aa:    00c0        ..      LSLS     r0,r0,#3
        0x010017ac:    4346        FC      MULS     r6,r0,r6
        0x010017ae:    4f3a        :O      LDR      r7,[pc,#232] ; [0x1001898] = 0xce4
        0x010017b0:    e00c        ..      B        0x10017cc ; ADC_GetVoltage + 146
        0x010017b2:    4668        hF      MOV      r0,sp
        0x010017b4:    8885        ..      LDRH     r5,[r0,#4]
        0x010017b6:    207d        }       MOVS     r0,#0x7d
        0x010017b8:    00c0        ..      LSLS     r0,r0,#3
        0x010017ba:    4345        EC      MULS     r5,r0,r5
        0x010017bc:    4668        hF      MOV      r0,sp
        0x010017be:    8946        F.      LDRH     r6,[r0,#0xa]
        0x010017c0:    207d        }       MOVS     r0,#0x7d
        0x010017c2:    00c0        ..      LSLS     r0,r0,#3
        0x010017c4:    4346        FC      MULS     r6,r0,r6
        0x010017c6:    0047        G.      LSLS     r7,r0,#1
        0x010017c8:    4834        4H      LDR      r0,[pc,#208] ; [0x100189c] = 0xbb8
        0x010017ca:    9018        ..      STR      r0,[sp,#0x60]
        0x010017cc:    2d00        .-      CMP      r5,#0
        0x010017ce:    d01a        ..      BEQ      0x1001806 ; ADC_GetVoltage + 204
        0x010017d0:    2e00        ..      CMP      r6,#0
        0x010017d2:    d018        ..      BEQ      0x1001806 ; ADC_GetVoltage + 204
        0x010017d4:    981a        ..      LDR      r0,[sp,#0x68]
        0x010017d6:    f7ffff50    ..P.    BL       ADC_GetResult ; 0x100167a
        0x010017da:    2800        .(      CMP      r0,#0
        0x010017dc:    dd0e        ..      BLE      0x10017fc ; ADC_GetVoltage + 194
        0x010017de:    217d        }!      MOVS     r1,#0x7d
        0x010017e0:    00c9        ..      LSLS     r1,r1,#3
        0x010017e2:    4348        HC      MULS     r0,r1,r0
        0x010017e4:    9a18        ..      LDR      r2,[sp,#0x60]
        0x010017e6:    1b40        @.      SUBS     r0,r0,r5
        0x010017e8:    1bd2        ..      SUBS     r2,r2,r7
        0x010017ea:    1b71        q.      SUBS     r1,r6,r5
        0x010017ec:    4350        PC      MULS     r0,r2,r0
        0x010017ee:    f001fc6f    ..o.    BL       __aeabi_idiv ; 0x10030d0
        0x010017f2:    19c0        ..      ADDS     r0,r0,r7
        0x010017f4:    00a2        ..      LSLS     r2,r4,#2
        0x010017f6:    a904        ..      ADD      r1,sp,#0x10
        0x010017f8:    5088        .P      STR      r0,[r1,r2]
        0x010017fa:    1c64        d.      ADDS     r4,r4,#1
        0x010017fc:    9819        ..      LDR      r0,[sp,#0x64]
        0x010017fe:    1c40        @.      ADDS     r0,r0,#1
        0x01001800:    9019        ..      STR      r0,[sp,#0x64]
        0x01001802:    281e        .(      CMP      r0,#0x1e
        0x01001804:    dd03        ..      BLE      0x100180e ; ADC_GetVoltage + 212
        0x01001806:    2000        .       MOVS     r0,#0
        0x01001808:    43c0        .C      MVNS     r0,r0
        0x0100180a:    b01b        ..      ADD      sp,sp,#0x6c
        0x0100180c:    bdf0        ..      POP      {r4-r7,pc}
        0x0100180e:    2c14        .,      CMP      r4,#0x14
        0x01001810:    dbe0        ..      BLT      0x10017d4 ; ADC_GetVoltage + 154
        0x01001812:    2101        .!      MOVS     r1,#1
        0x01001814:    ad04        ..      ADD      r5,sp,#0x10
        0x01001816:    0088        ..      LSLS     r0,r1,#2
        0x01001818:    582b        +X      LDR      r3,[r5,r0]
        0x0100181a:    1e48        H.      SUBS     r0,r1,#1
        0x0100181c:    e002        ..      B        0x1001824 ; ADC_GetVoltage + 234
        0x0100181e:    1964        d.      ADDS     r4,r4,r5
        0x01001820:    1e40        @.      SUBS     r0,r0,#1
        0x01001822:    6062        b`      STR      r2,[r4,#4]
        0x01001824:    2800        .(      CMP      r0,#0
        0x01001826:    db03        ..      BLT      0x1001830 ; ADC_GetVoltage + 246
        0x01001828:    0084        ..      LSLS     r4,r0,#2
        0x0100182a:    592a        *Y      LDR      r2,[r5,r4]
        0x0100182c:    429a        .B      CMP      r2,r3
        0x0100182e:    dcf6        ..      BGT      0x100181e ; ADC_GetVoltage + 228
        0x01001830:    0080        ..      LSLS     r0,r0,#2
        0x01001832:    1940        @.      ADDS     r0,r0,r5
        0x01001834:    1c49        I.      ADDS     r1,r1,#1
        0x01001836:    6043        C`      STR      r3,[r0,#4]
        0x01001838:    2914        .)      CMP      r1,#0x14
        0x0100183a:    dbec        ..      BLT      0x1001816 ; ADC_GetVoltage + 220
        0x0100183c:    2100        .!      MOVS     r1,#0
        0x0100183e:    2006        .       MOVS     r0,#6
        0x01001840:    0082        ..      LSLS     r2,r0,#2
        0x01001842:    58aa        .X      LDR      r2,[r5,r2]
        0x01001844:    1c40        @.      ADDS     r0,r0,#1
        0x01001846:    1851        Q.      ADDS     r1,r2,r1
        0x01001848:    280e        .(      CMP      r0,#0xe
        0x0100184a:    dbf9        ..      BLT      0x1001840 ; ADC_GetVoltage + 262
        0x0100184c:    17c8        ..      ASRS     r0,r1,#31
        0x0100184e:    0f40        @.      LSRS     r0,r0,#29
        0x01001850:    1840        @.      ADDS     r0,r0,r1
        0x01001852:    10c0        ..      ASRS     r0,r0,#3
        0x01001854:    e7d9        ..      B        0x100180a ; ADC_GetVoltage + 208
    $d
        0x01001856:    0000        ..      DCW    0
        0x01001858:    010041ee    .A..    DCD    16794094
        0x0100185c:    2e5c2e2e    ..\.    DCD    777793070
        0x01001860:    61685c2e    .\ha    DCD    1634229294
        0x01001864:    61776472    rdwa    DCD    1635214450
        0x01001868:    4c5c6572    re\L    DCD    1281123698
        0x0100186c:    61726269    ibra    DCD    1634886249
        0x01001870:    72656972    rier    DCD    1919248754
        0x01001874:    6b64735c    \sdk    DCD    1801745244
        0x01001878:    5f63795c    \yc_    DCD    1600354652
        0x0100187c:    2e636461    adc.    DCD    778265697
        0x01001880:    00000063    c...    DCD    99
        0x01001884:    000c8960    `...    DCD    821600
        0x01001888:    0002001c    ....    DCD    131100
        0x0100188c:    00001388    ....    DCD    5000
        0x01001890:    000f8500    ....    DCD    1017088
        0x01001894:    000007fe    ....    DCD    2046
        0x01001898:    00000ce4    ....    DCD    3300
        0x0100189c:    00000bb8    ....    DCD    3000
    $t
    .text
    SYSCTRL_AHBPeriphClockCmd
        0x010018a0:    b570        p.      PUSH     {r4-r6,lr}
        0x010018a2:    4604        .F      MOV      r4,r0
        0x010018a4:    0340        @.      LSLS     r0,r0,#13
        0x010018a6:    460d        .F      MOV      r5,r1
        0x010018a8:    0b80        ..      LSRS     r0,r0,#14
        0x010018aa:    d104        ..      BNE      0x10018b6 ; SYSCTRL_AHBPeriphClockCmd + 22
        0x010018ac:    4a37        7J      LDR      r2,[pc,#220] ; [0x100198c] = 0x10041f7
        0x010018ae:    2105        .!      MOVS     r1,#5
        0x010018b0:    a037        7.      ADR      r0,{pc}+0xe0 ; 0x1001990
        0x010018b2:    f7feff23    ..#.    BL       _assert_handler ; 0x10006fc
        0x010018b6:    4841        AH      LDR      r0,[pc,#260] ; [0x10019bc] = 0xf8540
        0x010018b8:    2d00        .-      CMP      r5,#0
        0x010018ba:    6ac1        .j      LDR      r1,[r0,#0x2c]
        0x010018bc:    d002        ..      BEQ      0x10018c4 ; SYSCTRL_AHBPeriphClockCmd + 36
        0x010018be:    43a1        .C      BICS     r1,r1,r4
        0x010018c0:    62c1        .b      STR      r1,[r0,#0x2c]
        0x010018c2:    bd70        p.      POP      {r4-r6,pc}
        0x010018c4:    4321        !C      ORRS     r1,r1,r4
        0x010018c6:    e7fb        ..      B        0x10018c0 ; SYSCTRL_AHBPeriphClockCmd + 32
    SYSCTRL_EnterSleep
        0x010018c8:    b510        ..      PUSH     {r4,lr}
        0x010018ca:    2802        .(      CMP      r0,#2
        0x010018cc:    d005        ..      BEQ      0x10018da ; SYSCTRL_EnterSleep + 18
        0x010018ce:    4a2f        /J      LDR      r2,[pc,#188] ; [0x100198c] = 0x10041f7
        0x010018d0:    2112        .!      MOVS     r1,#0x12
        0x010018d2:    321a        .2      ADDS     r2,r2,#0x1a
        0x010018d4:    a02e        ..      ADR      r0,{pc}+0xbc ; 0x1001990
        0x010018d6:    f7feff11    ....    BL       _assert_handler ; 0x10006fc
        0x010018da:    4939        9I      LDR      r1,[pc,#228] ; [0x10019c0] = 0xf8400
        0x010018dc:    205a        Z       MOVS     r0,#0x5a
        0x010018de:    6208        .b      STR      r0,[r1,#0x20]
        0x010018e0:    bd10        ..      POP      {r4,pc}
    HCLKConfig_Div_None
    __tagsym$$noinline
        0x010018e2:    4938        8I      LDR      r1,[pc,#224] ; [0x10019c4] = 0xf8800
        0x010018e4:    69ca        .i      LDR      r2,[r1,#0x1c]
        0x010018e6:    2380        .#      MOVS     r3,#0x80
        0x010018e8:    431a        .C      ORRS     r2,r2,r3
        0x010018ea:    61ca        .a      STR      r2,[r1,#0x1c]
        0x010018ec:    4a33        3J      LDR      r2,[pc,#204] ; [0x10019bc] = 0xf8540
        0x010018ee:    6a11        .j      LDR      r1,[r2,#0x20]
        0x010018f0:    0909        ..      LSRS     r1,r1,#4
        0x010018f2:    0109        ..      LSLS     r1,r1,#4
        0x010018f4:    4301        .C      ORRS     r1,r1,r0
        0x010018f6:    6211        .b      STR      r1,[r2,#0x20]
        0x010018f8:    4770        pG      BX       lr
    SYSCTRL_HCLKConfig
        0x010018fa:    b510        ..      PUSH     {r4,lr}
        0x010018fc:    0004        ..      MOVS     r4,r0
        0x010018fe:    d012        ..      BEQ      0x1001926 ; SYSCTRL_HCLKConfig + 44
        0x01001900:    2c02        .,      CMP      r4,#2
        0x01001902:    d009        ..      BEQ      0x1001918 ; SYSCTRL_HCLKConfig + 30
        0x01001904:    2c06        .,      CMP      r4,#6
        0x01001906:    d007        ..      BEQ      0x1001918 ; SYSCTRL_HCLKConfig + 30
        0x01001908:    2c0e        .,      CMP      r4,#0xe
        0x0100190a:    d005        ..      BEQ      0x1001918 ; SYSCTRL_HCLKConfig + 30
        0x0100190c:    4a1f        .J      LDR      r2,[pc,#124] ; [0x100198c] = 0x10041f7
        0x0100190e:    211f        .!      MOVS     r1,#0x1f
        0x01001910:    322d        -2      ADDS     r2,r2,#0x2d
        0x01001912:    a01f        ..      ADR      r0,{pc}+0x7e ; 0x1001990
        0x01001914:    f7fefef2    ....    BL       _assert_handler ; 0x10006fc
        0x01001918:    4928        (I      LDR      r1,[pc,#160] ; [0x10019bc] = 0xf8540
        0x0100191a:    6a08        .j      LDR      r0,[r1,#0x20]
        0x0100191c:    0900        ..      LSRS     r0,r0,#4
        0x0100191e:    0100        ..      LSLS     r0,r0,#4
        0x01001920:    4320         C      ORRS     r0,r0,r4
        0x01001922:    6208        .b      STR      r0,[r1,#0x20]
        0x01001924:    bd10        ..      POP      {r4,pc}
        0x01001926:    4828        (H      LDR      r0,[pc,#160] ; [0x10019c8] = 0x10018e3
        0x01001928:    4a28        (J      LDR      r2,[pc,#160] ; [0x10019cc] = 0x4405
        0x0100192a:    4601        .F      MOV      r1,r0
        0x0100192c:    3140        @1      ADDS     r1,r1,#0x40
        0x0100192e:    4790        .G      BLX      r2
        0x01001930:    4620         F      MOV      r0,r4
        0x01001932:    f7ffffd6    ....    BL       HCLKConfig_Div_None ; 0x10018e2
        0x01001936:    bd10        ..      POP      {r4,pc}
    SYSCTRL_GetClocksFreq
        0x01001938:    b510        ..      PUSH     {r4,lr}
        0x0100193a:    4604        .F      MOV      r4,r0
        0x0100193c:    481f        .H      LDR      r0,[pc,#124] ; [0x10019bc] = 0xf8540
        0x0100193e:    6a00        .j      LDR      r0,[r0,#0x20]
        0x01001940:    0701        ..      LSLS     r1,r0,#28
        0x01001942:    0f09        ..      LSRS     r1,r1,#28
        0x01001944:    4822        "H      LDR      r0,[pc,#136] ; [0x10019d0] = 0xb71b000
        0x01001946:    1c89        ..      ADDS     r1,r1,#2
        0x01001948:    f001fbac    ....    BL       __aeabi_uidiv ; 0x10030a4
        0x0100194c:    6020         `      STR      r0,[r4,#0]
        0x0100194e:    bd10        ..      POP      {r4,pc}
    SYSCTRL_EnableDpllClk
        0x01001950:    b510        ..      PUSH     {r4,lr}
        0x01001952:    481a        .H      LDR      r0,[pc,#104] ; [0x10019bc] = 0xf8540
        0x01001954:    6ac1        .j      LDR      r1,[r0,#0x2c]
        0x01001956:    2201        ."      MOVS     r2,#1
        0x01001958:    0352        R.      LSLS     r2,r2,#13
        0x0100195a:    4391        .C      BICS     r1,r1,r2
        0x0100195c:    62c1        .b      STR      r1,[r0,#0x2c]
        0x0100195e:    4917        .I      LDR      r1,[pc,#92] ; [0x10019bc] = 0xf8540
        0x01001960:    2094        .       MOVS     r0,#0x94
        0x01001962:    3920         9      SUBS     r1,r1,#0x20
        0x01001964:    7708        .w      STRB     r0,[r1,#0x1c]
        0x01001966:    20ff        .       MOVS     r0,#0xff
        0x01001968:    30f5        .0      ADDS     r0,r0,#0xf5
        0x0100196a:    f001fe8f    ....    BL       $Ven$TT$L$$delay ; 0x100368c
        0x0100196e:    4919        .I      LDR      r1,[pc,#100] ; [0x10019d4] = 0xc4aa0
        0x01001970:    207f        .       MOVS     r0,#0x7f
        0x01001972:    7448        Ht      STRB     r0,[r1,#0x11]
        0x01001974:    20ff        .       MOVS     r0,#0xff
        0x01001976:    7488        .t      STRB     r0,[r1,#0x12]
        0x01001978:    74c8        .t      STRB     r0,[r1,#0x13]
        0x0100197a:    4917        .I      LDR      r1,[pc,#92] ; [0x10019d8] = 0xc40c0
        0x0100197c:    22b1        ."      MOVS     r2,#0xb1
        0x0100197e:    70ca        .p      STRB     r2,[r1,#3]
        0x01001980:    224a        J"      MOVS     r2,#0x4a
        0x01001982:    710a        .q      STRB     r2,[r1,#4]
        0x01001984:    4915        .I      LDR      r1,[pc,#84] ; [0x10019dc] = 0xc8900
        0x01001986:    7148        Hq      STRB     r0,[r1,#5]
        0x01001988:    bd10        ..      POP      {r4,pc}
    $d
        0x0100198a:    0000        ..      DCW    0
        0x0100198c:    010041f7    .A..    DCD    16794103
        0x01001990:    2e5c2e2e    ..\.    DCD    777793070
        0x01001994:    61685c2e    .\ha    DCD    1634229294
        0x01001998:    61776472    rdwa    DCD    1635214450
        0x0100199c:    4c5c6572    re\L    DCD    1281123698
        0x010019a0:    61726269    ibra    DCD    1634886249
        0x010019a4:    72656972    rier    DCD    1919248754
        0x010019a8:    6b64735c    \sdk    DCD    1801745244
        0x010019ac:    5f63795c    \yc_    DCD    1600354652
        0x010019b0:    63737973    sysc    DCD    1668512115
        0x010019b4:    2e6c7274    trl.    DCD    778859124
        0x010019b8:    00000063    c...    DCD    99
        0x010019bc:    000f8540    @...    DCD    1017152
        0x010019c0:    000f8400    ....    DCD    1016832
        0x010019c4:    000f8800    ....    DCD    1017856
        0x010019c8:    010018e3    ....    DCD    16783587
        0x010019cc:    00004405    .D..    DCD    17413
        0x010019d0:    0b71b000    ..q.    DCD    192000000
        0x010019d4:    000c4aa0    .J..    DCD    805536
        0x010019d8:    000c40c0    .@..    DCD    803008
        0x010019dc:    000c8900    ....    DCD    821504
    $t
    .text
    delay_us
        0x010019e0:    4998        .I      LDR      r1,[pc,#608] ; [0x1001c44] = 0x4239
        0x010019e2:    4708        .G      BX       r1
    delay_ms
        0x010019e4:    4997        .I      LDR      r1,[pc,#604] ; [0x1001c44] = 0x4239
        0x010019e6:    3124        $1      ADDS     r1,r1,#0x24
        0x010019e8:    4708        .G      BX       r1
    TIM_Cmd
        0x010019ea:    b570        p.      PUSH     {r4-r6,lr}
        0x010019ec:    460d        .F      MOV      r5,r1
        0x010019ee:    4604        .F      MOV      r4,r0
        0x010019f0:    2809        .(      CMP      r0,#9
        0x010019f2:    d304        ..      BCC      0x10019fe ; TIM_Cmd + 20
        0x010019f4:    4a94        .J      LDR      r2,[pc,#592] ; [0x1001c48] = 0x1004237
        0x010019f6:    2121        !!      MOVS     r1,#0x21
        0x010019f8:    a094        ..      ADR      r0,{pc}+0x254 ; 0x1001c4c
        0x010019fa:    f7fefe7f    ....    BL       _assert_handler ; 0x10006fc
        0x010019fe:    2301        .#      MOVS     r3,#1
        0x01001a00:    00a1        ..      LSLS     r1,r4,#2
        0x01001a02:    4618        .F      MOV      r0,r3
        0x01001a04:    4088        .@      LSLS     r0,r0,r1
        0x01001a06:    4a9b        .J      LDR      r2,[pc,#620] ; [0x1001c74] = 0xf0c40
        0x01001a08:    2d01        .-      CMP      r5,#1
        0x01001a0a:    d005        ..      BEQ      0x1001a18 ; TIM_Cmd + 46
        0x01001a0c:    2c08        .,      CMP      r4,#8
        0x01001a0e:    d20b        ..      BCS      0x1001a28 ; TIM_Cmd + 62
        0x01001a10:    6891        .h      LDR      r1,[r2,#8]
        0x01001a12:    4381        .C      BICS     r1,r1,r0
        0x01001a14:    6091        .`      STR      r1,[r2,#8]
        0x01001a16:    bd70        p.      POP      {r4-r6,pc}
        0x01001a18:    2c08        .,      CMP      r4,#8
        0x01001a1a:    d202        ..      BCS      0x1001a22 ; TIM_Cmd + 56
        0x01001a1c:    6891        .h      LDR      r1,[r2,#8]
        0x01001a1e:    4301        .C      ORRS     r1,r1,r0
        0x01001a20:    e7f8        ..      B        0x1001a14 ; TIM_Cmd + 42
        0x01001a22:    68d0        .h      LDR      r0,[r2,#0xc]
        0x01001a24:    4318        .C      ORRS     r0,r0,r3
        0x01001a26:    e002        ..      B        0x1001a2e ; TIM_Cmd + 68
        0x01001a28:    68d0        .h      LDR      r0,[r2,#0xc]
        0x01001a2a:    0840        @.      LSRS     r0,r0,#1
        0x01001a2c:    0040        @.      LSLS     r0,r0,#1
        0x01001a2e:    60d0        .`      STR      r0,[r2,#0xc]
        0x01001a30:    bd70        p.      POP      {r4-r6,pc}
    TIM_Init
        0x01001a32:    b510        ..      PUSH     {r4,lr}
        0x01001a34:    4604        .F      MOV      r4,r0
        0x01001a36:    7800        .x      LDRB     r0,[r0,#0]
        0x01001a38:    2809        .(      CMP      r0,#9
        0x01001a3a:    d305        ..      BCC      0x1001a48 ; TIM_Init + 22
        0x01001a3c:    4a82        .J      LDR      r2,[pc,#520] ; [0x1001c48] = 0x1004237
        0x01001a3e:    2110        .!      MOVS     r1,#0x10
        0x01001a40:    3208        .2      ADDS     r2,r2,#8
        0x01001a42:    a082        ..      ADR      r0,{pc}+0x20a ; 0x1001c4c
        0x01001a44:    f7fefe5a    ..Z.    BL       _assert_handler ; 0x10006fc
        0x01001a48:    7820         x      LDRB     r0,[r4,#0]
        0x01001a4a:    2100        .!      MOVS     r1,#0
        0x01001a4c:    f7ffffcd    ....    BL       TIM_Cmd ; 0x10019ea
        0x01001a50:    7821        !x      LDRB     r1,[r4,#0]
        0x01001a52:    4a88        .J      LDR      r2,[pc,#544] ; [0x1001c74] = 0xf0c40
        0x01001a54:    00c9        ..      LSLS     r1,r1,#3
        0x01001a56:    3a40        @:      SUBS     r2,r2,#0x40
        0x01001a58:    1889        ..      ADDS     r1,r1,r2
        0x01001a5a:    6860        `h      LDR      r0,[r4,#4]
        0x01001a5c:    6008        .`      STR      r0,[r1,#0]
        0x01001a5e:    7820         x      LDRB     r0,[r4,#0]
        0x01001a60:    4984        .I      LDR      r1,[pc,#528] ; [0x1001c74] = 0xf0c40
        0x01001a62:    220c        ."      MOVS     r2,#0xc
        0x01001a64:    2808        .(      CMP      r0,#8
        0x01001a66:    d205        ..      BCS      0x1001a74 ; TIM_Init + 66
        0x01001a68:    688b        .h      LDR      r3,[r1,#8]
        0x01001a6a:    0080        ..      LSLS     r0,r0,#2
        0x01001a6c:    4082        .@      LSLS     r2,r2,r0
        0x01001a6e:    4313        .C      ORRS     r3,r3,r2
        0x01001a70:    608b        .`      STR      r3,[r1,#8]
        0x01001a72:    bd10        ..      POP      {r4,pc}
        0x01001a74:    68c8        .h      LDR      r0,[r1,#0xc]
        0x01001a76:    4310        .C      ORRS     r0,r0,r2
        0x01001a78:    60c8        .`      STR      r0,[r1,#0xc]
        0x01001a7a:    bd10        ..      POP      {r4,pc}
    TIM_DeInit
        0x01001a7c:    487e        ~H      LDR      r0,[pc,#504] ; [0x1001c78] = 0xf8540
        0x01001a7e:    6ac1        .j      LDR      r1,[r0,#0x2c]
        0x01001a80:    2210        ."      MOVS     r2,#0x10
        0x01001a82:    4311        .C      ORRS     r1,r1,r2
        0x01001a84:    62c1        .b      STR      r1,[r0,#0x2c]
        0x01001a86:    4770        pG      BX       lr
    TIM_ModeConfig
        0x01001a88:    b5f3        ..      PUSH     {r0,r1,r4-r7,lr}
        0x01001a8a:    b081        ..      SUB      sp,sp,#4
        0x01001a8c:    4604        .F      MOV      r4,r0
        0x01001a8e:    2809        .(      CMP      r0,#9
        0x01001a90:    d305        ..      BCC      0x1001a9e ; TIM_ModeConfig + 22
        0x01001a92:    4a6d        mJ      LDR      r2,[pc,#436] ; [0x1001c48] = 0x1004237
        0x01001a94:    2135        5!      MOVS     r1,#0x35
        0x01001a96:    3211        .2      ADDS     r2,r2,#0x11
        0x01001a98:    a06c        l.      ADR      r0,{pc}+0x1b4 ; 0x1001c4c
        0x01001a9a:    f7fefe2f    ../.    BL       _assert_handler ; 0x10006fc
        0x01001a9e:    2704        .'      MOVS     r7,#4
        0x01001aa0:    00a0        ..      LSLS     r0,r4,#2
        0x01001aa2:    463d        =F      MOV      r5,r7
        0x01001aa4:    9902        ..      LDR      r1,[sp,#8]
        0x01001aa6:    4085        .@      LSLS     r5,r5,r0
        0x01001aa8:    4e72        rN      LDR      r6,[pc,#456] ; [0x1001c74] = 0xf0c40
        0x01001aaa:    2901        .)      CMP      r1,#1
        0x01001aac:    d00d        ..      BEQ      0x1001aca ; TIM_ModeConfig + 66
        0x01001aae:    2900        .)      CMP      r1,#0
        0x01001ab0:    d005        ..      BEQ      0x1001abe ; TIM_ModeConfig + 54
        0x01001ab2:    4a65        eJ      LDR      r2,[pc,#404] ; [0x1001c48] = 0x1004237
        0x01001ab4:    2136        6!      MOVS     r1,#0x36
        0x01001ab6:    3211        .2      ADDS     r2,r2,#0x11
        0x01001ab8:    a064        d.      ADR      r0,{pc}+0x194 ; 0x1001c4c
        0x01001aba:    f7fefe1f    ....    BL       _assert_handler ; 0x10006fc
        0x01001abe:    2c08        .,      CMP      r4,#8
        0x01001ac0:    d20b        ..      BCS      0x1001ada ; TIM_ModeConfig + 82
        0x01001ac2:    68b0        .h      LDR      r0,[r6,#8]
        0x01001ac4:    43a8        .C      BICS     r0,r0,r5
        0x01001ac6:    60b0        .`      STR      r0,[r6,#8]
        0x01001ac8:    bdfe        ..      POP      {r1-r7,pc}
        0x01001aca:    2c08        .,      CMP      r4,#8
        0x01001acc:    d202        ..      BCS      0x1001ad4 ; TIM_ModeConfig + 76
        0x01001ace:    68b0        .h      LDR      r0,[r6,#8]
        0x01001ad0:    4328        (C      ORRS     r0,r0,r5
        0x01001ad2:    e7f8        ..      B        0x1001ac6 ; TIM_ModeConfig + 62
        0x01001ad4:    68f0        .h      LDR      r0,[r6,#0xc]
        0x01001ad6:    4338        8C      ORRS     r0,r0,r7
        0x01001ad8:    e001        ..      B        0x1001ade ; TIM_ModeConfig + 86
        0x01001ada:    68f0        .h      LDR      r0,[r6,#0xc]
        0x01001adc:    43b8        .C      BICS     r0,r0,r7
        0x01001ade:    60f0        .`      STR      r0,[r6,#0xc]
        0x01001ae0:    bdfe        ..      POP      {r1-r7,pc}
    TIM_SetPeriod
        0x01001ae2:    b570        p.      PUSH     {r4-r6,lr}
        0x01001ae4:    460d        .F      MOV      r5,r1
        0x01001ae6:    4604        .F      MOV      r4,r0
        0x01001ae8:    2809        .(      CMP      r0,#9
        0x01001aea:    d305        ..      BCC      0x1001af8 ; TIM_SetPeriod + 22
        0x01001aec:    4a56        VJ      LDR      r2,[pc,#344] ; [0x1001c48] = 0x1004237
        0x01001aee:    214a        J!      MOVS     r1,#0x4a
        0x01001af0:    3220         2      ADDS     r2,r2,#0x20
        0x01001af2:    a056        V.      ADR      r0,{pc}+0x15a ; 0x1001c4c
        0x01001af4:    f7fefe02    ....    BL       _assert_handler ; 0x10006fc
        0x01001af8:    495e        ^I      LDR      r1,[pc,#376] ; [0x1001c74] = 0xf0c40
        0x01001afa:    00e0        ..      LSLS     r0,r4,#3
        0x01001afc:    3940        @9      SUBS     r1,r1,#0x40
        0x01001afe:    1840        @.      ADDS     r0,r0,r1
        0x01001b00:    6005        .`      STR      r5,[r0,#0]
        0x01001b02:    bd70        p.      POP      {r4-r6,pc}
    TIM_PWMInit
        0x01001b04:    b510        ..      PUSH     {r4,lr}
        0x01001b06:    4604        .F      MOV      r4,r0
        0x01001b08:    7800        .x      LDRB     r0,[r0,#0]
        0x01001b0a:    2809        .(      CMP      r0,#9
        0x01001b0c:    d305        ..      BCC      0x1001b1a ; TIM_PWMInit + 22
        0x01001b0e:    4a4e        NJ      LDR      r2,[pc,#312] ; [0x1001c48] = 0x1004237
        0x01001b10:    2151        Q!      MOVS     r1,#0x51
        0x01001b12:    322e        .2      ADDS     r2,r2,#0x2e
        0x01001b14:    a04d        M.      ADR      r0,{pc}+0x138 ; 0x1001c4c
        0x01001b16:    f7fefdf1    ....    BL       _assert_handler ; 0x10006fc
        0x01001b1a:    7820         x      LDRB     r0,[r4,#0]
        0x01001b1c:    2100        .!      MOVS     r1,#0
        0x01001b1e:    f7ffff64    ..d.    BL       TIM_Cmd ; 0x10019ea
        0x01001b22:    7820         x      LDRB     r0,[r4,#0]
        0x01001b24:    68a1        .h      LDR      r1,[r4,#8]
        0x01001b26:    00c2        ..      LSLS     r2,r0,#3
        0x01001b28:    4852        RH      LDR      r0,[pc,#328] ; [0x1001c74] = 0xf0c40
        0x01001b2a:    3840        @8      SUBS     r0,r0,#0x40
        0x01001b2c:    1812        ..      ADDS     r2,r2,r0
        0x01001b2e:    6011        .`      STR      r1,[r2,#0]
        0x01001b30:    7822        "x      LDRB     r2,[r4,#0]
        0x01001b32:    6861        ah      LDR      r1,[r4,#4]
        0x01001b34:    00d2        ..      LSLS     r2,r2,#3
        0x01001b36:    1810        ..      ADDS     r0,r2,r0
        0x01001b38:    6041        A`      STR      r1,[r0,#4]
        0x01001b3a:    7b21        !{      LDRB     r1,[r4,#0xc]
        0x01001b3c:    2202        ."      MOVS     r2,#2
        0x01001b3e:    2901        .)      CMP      r1,#1
        0x01001b40:    484c        LH      LDR      r0,[pc,#304] ; [0x1001c74] = 0xf0c40
        0x01001b42:    7821        !x      LDRB     r1,[r4,#0]
        0x01001b44:    d007        ..      BEQ      0x1001b56 ; TIM_PWMInit + 82
        0x01001b46:    2908        .)      CMP      r1,#8
        0x01001b48:    d20f        ..      BCS      0x1001b6a ; TIM_PWMInit + 102
        0x01001b4a:    6883        .h      LDR      r3,[r0,#8]
        0x01001b4c:    0089        ..      LSLS     r1,r1,#2
        0x01001b4e:    408a        .@      LSLS     r2,r2,r1
        0x01001b50:    4393        .C      BICS     r3,r3,r2
        0x01001b52:    6083        .`      STR      r3,[r0,#8]
        0x01001b54:    e00c        ..      B        0x1001b70 ; TIM_PWMInit + 108
        0x01001b56:    2908        .)      CMP      r1,#8
        0x01001b58:    d204        ..      BCS      0x1001b64 ; TIM_PWMInit + 96
        0x01001b5a:    6883        .h      LDR      r3,[r0,#8]
        0x01001b5c:    0089        ..      LSLS     r1,r1,#2
        0x01001b5e:    408a        .@      LSLS     r2,r2,r1
        0x01001b60:    4313        .C      ORRS     r3,r3,r2
        0x01001b62:    e7f6        ..      B        0x1001b52 ; TIM_PWMInit + 78
        0x01001b64:    68c1        .h      LDR      r1,[r0,#0xc]
        0x01001b66:    4311        .C      ORRS     r1,r1,r2
        0x01001b68:    e001        ..      B        0x1001b6e ; TIM_PWMInit + 106
        0x01001b6a:    68c1        .h      LDR      r1,[r0,#0xc]
        0x01001b6c:    4391        .C      BICS     r1,r1,r2
        0x01001b6e:    60c1        .`      STR      r1,[r0,#0xc]
        0x01001b70:    7821        !x      LDRB     r1,[r4,#0]
        0x01001b72:    2204        ."      MOVS     r2,#4
        0x01001b74:    2908        .)      CMP      r1,#8
        0x01001b76:    d205        ..      BCS      0x1001b84 ; TIM_PWMInit + 128
        0x01001b78:    6883        .h      LDR      r3,[r0,#8]
        0x01001b7a:    0089        ..      LSLS     r1,r1,#2
        0x01001b7c:    408a        .@      LSLS     r2,r2,r1
        0x01001b7e:    4393        .C      BICS     r3,r3,r2
        0x01001b80:    6083        .`      STR      r3,[r0,#8]
        0x01001b82:    bd10        ..      POP      {r4,pc}
        0x01001b84:    68c1        .h      LDR      r1,[r0,#0xc]
        0x01001b86:    4391        .C      BICS     r1,r1,r2
        0x01001b88:    60c1        .`      STR      r1,[r0,#0xc]
        0x01001b8a:    bd10        ..      POP      {r4,pc}
    TIM_SetPWMPeriod
        0x01001b8c:    b570        p.      PUSH     {r4-r6,lr}
        0x01001b8e:    4615        .F      MOV      r5,r2
        0x01001b90:    460e        .F      MOV      r6,r1
        0x01001b92:    4604        .F      MOV      r4,r0
        0x01001b94:    2809        .(      CMP      r0,#9
        0x01001b96:    d305        ..      BCC      0x1001ba4 ; TIM_SetPWMPeriod + 24
        0x01001b98:    4a2b        +J      LDR      r2,[pc,#172] ; [0x1001c48] = 0x1004237
        0x01001b9a:    216c        l!      MOVS     r1,#0x6c
        0x01001b9c:    323a        :2      ADDS     r2,r2,#0x3a
        0x01001b9e:    a02b        +.      ADR      r0,{pc}+0xae ; 0x1001c4c
        0x01001ba0:    f7fefdac    ....    BL       _assert_handler ; 0x10006fc
        0x01001ba4:    4833        3H      LDR      r0,[pc,#204] ; [0x1001c74] = 0xf0c40
        0x01001ba6:    00e1        ..      LSLS     r1,r4,#3
        0x01001ba8:    3840        @8      SUBS     r0,r0,#0x40
        0x01001baa:    1808        ..      ADDS     r0,r1,r0
        0x01001bac:    6005        .`      STR      r5,[r0,#0]
        0x01001bae:    6046        F`      STR      r6,[r0,#4]
        0x01001bb0:    bd70        p.      POP      {r4-r6,pc}
    TIM_PWMDifferential
        0x01001bb2:    b5ff        ..      PUSH     {r0-r7,lr}
        0x01001bb4:    b081        ..      SUB      sp,sp,#4
        0x01001bb6:    4615        .F      MOV      r5,r2
        0x01001bb8:    460e        .F      MOV      r6,r1
        0x01001bba:    4607        .F      MOV      r7,r0
        0x01001bbc:    2809        .(      CMP      r0,#9
        0x01001bbe:    d305        ..      BCC      0x1001bcc ; TIM_PWMDifferential + 26
        0x01001bc0:    4a21        !J      LDR      r2,[pc,#132] ; [0x1001c48] = 0x1004237
        0x01001bc2:    2174        t!      MOVS     r1,#0x74
        0x01001bc4:    324b        K2      ADDS     r2,r2,#0x4b
        0x01001bc6:    a021        !.      ADR      r0,{pc}+0x86 ; 0x1001c4c
        0x01001bc8:    f7fefd98    ....    BL       _assert_handler ; 0x10006fc
        0x01001bcc:    2e09        ..      CMP      r6,#9
        0x01001bce:    d305        ..      BCC      0x1001bdc ; TIM_PWMDifferential + 42
        0x01001bd0:    4a1d        .J      LDR      r2,[pc,#116] ; [0x1001c48] = 0x1004237
        0x01001bd2:    2175        u!      MOVS     r1,#0x75
        0x01001bd4:    324b        K2      ADDS     r2,r2,#0x4b
        0x01001bd6:    a01d        ..      ADR      r0,{pc}+0x76 ; 0x1001c4c
        0x01001bd8:    f7fefd90    ....    BL       _assert_handler ; 0x10006fc
        0x01001bdc:    2101        .!      MOVS     r1,#1
        0x01001bde:    00b0        ..      LSLS     r0,r6,#2
        0x01001be0:    460a        .F      MOV      r2,r1
        0x01001be2:    4082        .@      LSLS     r2,r2,r0
        0x01001be4:    00bc        ..      LSLS     r4,r7,#2
        0x01001be6:    460b        .F      MOV      r3,r1
        0x01001be8:    40a3        .@      LSLS     r3,r3,r4
        0x01001bea:    46a4        .F      MOV      r12,r4
        0x01001bec:    4c21        !L      LDR      r4,[pc,#132] ; [0x1001c74] = 0xf0c40
        0x01001bee:    469e        .F      MOV      lr,r3
        0x01001bf0:    431a        .C      ORRS     r2,r2,r3
        0x01001bf2:    68a3        .h      LDR      r3,[r4,#8]
        0x01001bf4:    4393        .C      BICS     r3,r3,r2
        0x01001bf6:    60a3        .`      STR      r3,[r4,#8]
        0x01001bf8:    4a1e        .J      LDR      r2,[pc,#120] ; [0x1001c74] = 0xf0c40
        0x01001bfa:    00ff        ..      LSLS     r7,r7,#3
        0x01001bfc:    3a40        @:      SUBS     r2,r2,#0x40
        0x01001bfe:    18bf        ..      ADDS     r7,r7,r2
        0x01001c00:    9b04        ..      LDR      r3,[sp,#0x10]
        0x01001c02:    603b        ;`      STR      r3,[r7,#0]
        0x01001c04:    607d        }`      STR      r5,[r7,#4]
        0x01001c06:    00f3        ..      LSLS     r3,r6,#3
        0x01001c08:    189a        ..      ADDS     r2,r3,r2
        0x01001c0a:    6015        .`      STR      r5,[r2,#0]
        0x01001c0c:    9b04        ..      LDR      r3,[sp,#0x10]
        0x01001c0e:    6053        S`      STR      r3,[r2,#4]
        0x01001c10:    68a3        .h      LDR      r3,[r4,#8]
        0x01001c12:    4662        bF      MOV      r2,r12
        0x01001c14:    460e        .F      MOV      r6,r1
        0x01001c16:    1c52        R.      ADDS     r2,r2,#1
        0x01001c18:    4096        .@      LSLS     r6,r6,r2
        0x01001c1a:    43b3        .C      BICS     r3,r3,r6
        0x01001c1c:    60a3        .`      STR      r3,[r4,#8]
        0x01001c1e:    68a2        .h      LDR      r2,[r4,#8]
        0x01001c20:    2603        .&      MOVS     r6,#3
        0x01001c22:    4086        .@      LSLS     r6,r6,r0
        0x01001c24:    4673        sF      MOV      r3,lr
        0x01001c26:    431e        .C      ORRS     r6,r6,r3
        0x01001c28:    4316        .C      ORRS     r6,r6,r2
        0x01001c2a:    68a2        .h      LDR      r2,[r4,#8]
        0x01001c2c:    1c40        @.      ADDS     r0,r0,#1
        0x01001c2e:    4081        .@      LSLS     r1,r1,r0
        0x01001c30:    430a        .C      ORRS     r2,r2,r1
        0x01001c32:    60a2        .`      STR      r2,[r4,#8]
        0x01001c34:    3d08        .=      SUBS     r5,r5,#8
        0x01001c36:    08a8        ..      LSRS     r0,r5,#2
        0x01001c38:    f001fd28    ..(.    BL       $Ven$TT$L$$delay ; 0x100368c
        0x01001c3c:    60a6        .`      STR      r6,[r4,#8]
        0x01001c3e:    b005        ..      ADD      sp,sp,#0x14
        0x01001c40:    bdf0        ..      POP      {r4-r7,pc}
    $d
        0x01001c42:    0000        ..      DCW    0
        0x01001c44:    00004239    9B..    DCD    16953
        0x01001c48:    01004237    7B..    DCD    16794167
        0x01001c4c:    2e5c2e2e    ..\.    DCD    777793070
        0x01001c50:    61685c2e    .\ha    DCD    1634229294
        0x01001c54:    61776472    rdwa    DCD    1635214450
        0x01001c58:    4c5c6572    re\L    DCD    1281123698
        0x01001c5c:    61726269    ibra    DCD    1634886249
        0x01001c60:    72656972    rier    DCD    1919248754
        0x01001c64:    6b64735c    \sdk    DCD    1801745244
        0x01001c68:    5f63795c    \yc_    DCD    1600354652
        0x01001c6c:    656d6974    time    DCD    1701669236
        0x01001c70:    00632e72    r.c.    DCD    6499954
        0x01001c74:    000f0c40    @...    DCD    986176
        0x01001c78:    000f8540    @...    DCD    1017152
    $t
    .text
    SPI_Init
        0x01001c7c:    b570        p.      PUSH     {r4-r6,lr}
        0x01001c7e:    4605        .F      MOV      r5,r0
        0x01001c80:    7808        .x      LDRB     r0,[r1,#0]
        0x01001c82:    460c        .F      MOV      r4,r1
        0x01001c84:    2800        .(      CMP      r0,#0
        0x01001c86:    d006        ..      BEQ      0x1001c96 ; SPI_Init + 26
        0x01001c88:    2808        .(      CMP      r0,#8
        0x01001c8a:    d004        ..      BEQ      0x1001c96 ; SPI_Init + 26
        0x01001c8c:    4a3e        >J      LDR      r2,[pc,#248] ; [0x1001d88] = 0x1004296
        0x01001c8e:    210f        .!      MOVS     r1,#0xf
        0x01001c90:    a03e        >.      ADR      r0,{pc}+0xfc ; 0x1001d8c
        0x01001c92:    f7fefd33    ..3.    BL       _assert_handler ; 0x10006fc
        0x01001c96:    78e1        .x      LDRB     r1,[r4,#3]
        0x01001c98:    2900        .)      CMP      r1,#0
        0x01001c9a:    d012        ..      BEQ      0x1001cc2 ; SPI_Init + 70
        0x01001c9c:    2901        .)      CMP      r1,#1
        0x01001c9e:    d010        ..      BEQ      0x1001cc2 ; SPI_Init + 70
        0x01001ca0:    2902        .)      CMP      r1,#2
        0x01001ca2:    d00e        ..      BEQ      0x1001cc2 ; SPI_Init + 70
        0x01001ca4:    2903        .)      CMP      r1,#3
        0x01001ca6:    d00c        ..      BEQ      0x1001cc2 ; SPI_Init + 70
        0x01001ca8:    2904        .)      CMP      r1,#4
        0x01001caa:    d00a        ..      BEQ      0x1001cc2 ; SPI_Init + 70
        0x01001cac:    2905        .)      CMP      r1,#5
        0x01001cae:    d008        ..      BEQ      0x1001cc2 ; SPI_Init + 70
        0x01001cb0:    2906        .)      CMP      r1,#6
        0x01001cb2:    d006        ..      BEQ      0x1001cc2 ; SPI_Init + 70
        0x01001cb4:    2907        .)      CMP      r1,#7
        0x01001cb6:    d004        ..      BEQ      0x1001cc2 ; SPI_Init + 70
        0x01001cb8:    4a33        3J      LDR      r2,[pc,#204] ; [0x1001d88] = 0x1004296
        0x01001cba:    2110        .!      MOVS     r1,#0x10
        0x01001cbc:    a033        3.      ADR      r0,{pc}+0xd0 ; 0x1001d8c
        0x01001cbe:    f7fefd1d    ....    BL       _assert_handler ; 0x10006fc
        0x01001cc2:    7860        `x      LDRB     r0,[r4,#1]
        0x01001cc4:    2820         (      CMP      r0,#0x20
        0x01001cc6:    d006        ..      BEQ      0x1001cd6 ; SPI_Init + 90
        0x01001cc8:    2800        .(      CMP      r0,#0
        0x01001cca:    d004        ..      BEQ      0x1001cd6 ; SPI_Init + 90
        0x01001ccc:    4a2e        .J      LDR      r2,[pc,#184] ; [0x1001d88] = 0x1004296
        0x01001cce:    2111        .!      MOVS     r1,#0x11
        0x01001cd0:    a02e        ..      ADR      r0,{pc}+0xbc ; 0x1001d8c
        0x01001cd2:    f7fefd13    ....    BL       _assert_handler ; 0x10006fc
        0x01001cd6:    78a0        .x      LDRB     r0,[r4,#2]
        0x01001cd8:    2800        .(      CMP      r0,#0
        0x01001cda:    d006        ..      BEQ      0x1001cea ; SPI_Init + 110
        0x01001cdc:    2810        .(      CMP      r0,#0x10
        0x01001cde:    d004        ..      BEQ      0x1001cea ; SPI_Init + 110
        0x01001ce0:    4a29        )J      LDR      r2,[pc,#164] ; [0x1001d88] = 0x1004296
        0x01001ce2:    2112        .!      MOVS     r1,#0x12
        0x01001ce4:    a029        ).      ADR      r0,{pc}+0xa8 ; 0x1001d8c
        0x01001ce6:    f7fefd09    ....    BL       _assert_handler ; 0x10006fc
        0x01001cea:    7920         y      LDRB     r0,[r4,#4]
        0x01001cec:    2800        .(      CMP      r0,#0
        0x01001cee:    d001        ..      BEQ      0x1001cf4 ; SPI_Init + 120
        0x01001cf0:    287f        .(      CMP      r0,#0x7f
        0x01001cf2:    d304        ..      BCC      0x1001cfe ; SPI_Init + 130
        0x01001cf4:    4a24        $J      LDR      r2,[pc,#144] ; [0x1001d88] = 0x1004296
        0x01001cf6:    2113        .!      MOVS     r1,#0x13
        0x01001cf8:    a024        $.      ADR      r0,{pc}+0x94 ; 0x1001d8c
        0x01001cfa:    f7fefcff    ....    BL       _assert_handler ; 0x10006fc
        0x01001cfe:    7821        !x      LDRB     r1,[r4,#0]
        0x01001d00:    78e0        .x      LDRB     r0,[r4,#3]
        0x01001d02:    78a2        .x      LDRB     r2,[r4,#2]
        0x01001d04:    4301        .C      ORRS     r1,r1,r0
        0x01001d06:    7860        `x      LDRB     r0,[r4,#1]
        0x01001d08:    4310        .C      ORRS     r0,r0,r2
        0x01001d0a:    4301        .C      ORRS     r1,r1,r0
        0x01001d0c:    7920         y      LDRB     r0,[r4,#4]
        0x01001d0e:    0200        ..      LSLS     r0,r0,#8
        0x01001d10:    4301        .C      ORRS     r1,r1,r0
        0x01001d12:    2d01        .-      CMP      r5,#1
        0x01001d14:    d004        ..      BEQ      0x1001d20 ; SPI_Init + 164
        0x01001d16:    2d02        .-      CMP      r5,#2
        0x01001d18:    d101        ..      BNE      0x1001d1e ; SPI_Init + 162
        0x01001d1a:    4826        &H      LDR      r0,[pc,#152] ; [0x1001db4] = 0xf8a00
        0x01001d1c:    61c1        .a      STR      r1,[r0,#0x1c]
        0x01001d1e:    bd70        p.      POP      {r4-r6,pc}
        0x01001d20:    4825        %H      LDR      r0,[pc,#148] ; [0x1001db8] = 0xf8900
        0x01001d22:    e7fb        ..      B        0x1001d1c ; SPI_Init + 160
    SPI_SendData
        0x01001d24:    b508        ..      PUSH     {r3,lr}
        0x01001d26:    466a        jF      MOV      r2,sp
        0x01001d28:    7011        .p      STRB     r1,[r2,#0]
        0x01001d2a:    0202        ..      LSLS     r2,r0,#8
        0x01001d2c:    4823        #H      LDR      r0,[pc,#140] ; [0x1001dbc] = 0xf8800
        0x01001d2e:    4669        iF      MOV      r1,sp
        0x01001d30:    1810        ..      ADDS     r0,r2,r0
        0x01001d32:    6001        .`      STR      r1,[r0,#0]
        0x01001d34:    2101        .!      MOVS     r1,#1
        0x01001d36:    0409        ..      LSLS     r1,r1,#16
        0x01001d38:    6081        .`      STR      r1,[r0,#8]
        0x01001d3a:    2180        .!      MOVS     r1,#0x80
        0x01001d3c:    73c1        .s      STRB     r1,[r0,#0xf]
        0x01001d3e:    6901        .i      LDR      r1,[r0,#0x10]
        0x01001d40:    07c9        ..      LSLS     r1,r1,#31
        0x01001d42:    d0fc        ..      BEQ      0x1001d3e ; SPI_SendData + 26
        0x01001d44:    bd08        ..      POP      {r3,pc}
    SPI_SendBuff
        0x01001d46:    2a01        .*      CMP      r2,#1
        0x01001d48:    db0a        ..      BLT      0x1001d60 ; SPI_SendBuff + 26
        0x01001d4a:    0203        ..      LSLS     r3,r0,#8
        0x01001d4c:    481b        .H      LDR      r0,[pc,#108] ; [0x1001dbc] = 0xf8800
        0x01001d4e:    1818        ..      ADDS     r0,r3,r0
        0x01001d50:    6001        .`      STR      r1,[r0,#0]
        0x01001d52:    0411        ..      LSLS     r1,r2,#16
        0x01001d54:    6081        .`      STR      r1,[r0,#8]
        0x01001d56:    2180        .!      MOVS     r1,#0x80
        0x01001d58:    73c1        .s      STRB     r1,[r0,#0xf]
        0x01001d5a:    6901        .i      LDR      r1,[r0,#0x10]
        0x01001d5c:    07c9        ..      LSLS     r1,r1,#31
        0x01001d5e:    d0fc        ..      BEQ      0x1001d5a ; SPI_SendBuff + 20
        0x01001d60:    4770        pG      BX       lr
    SPI_SendAndReceiveData
        0x01001d62:    b530        0.      PUSH     {r4,r5,lr}
        0x01001d64:    9c03        ..      LDR      r4,[sp,#0xc]
        0x01001d66:    2a00        .*      CMP      r2,#0
        0x01001d68:    d00c        ..      BEQ      0x1001d84 ; SPI_SendAndReceiveData + 34
        0x01001d6a:    0205        ..      LSLS     r5,r0,#8
        0x01001d6c:    4813        .H      LDR      r0,[pc,#76] ; [0x1001dbc] = 0xf8800
        0x01001d6e:    1828        (.      ADDS     r0,r5,r0
        0x01001d70:    6001        .`      STR      r1,[r0,#0]
        0x01001d72:    6043        C`      STR      r3,[r0,#4]
        0x01001d74:    0411        ..      LSLS     r1,r2,#16
        0x01001d76:    4321        !C      ORRS     r1,r1,r4
        0x01001d78:    6081        .`      STR      r1,[r0,#8]
        0x01001d7a:    2180        .!      MOVS     r1,#0x80
        0x01001d7c:    73c1        .s      STRB     r1,[r0,#0xf]
        0x01001d7e:    6901        .i      LDR      r1,[r0,#0x10]
        0x01001d80:    07c9        ..      LSLS     r1,r1,#31
        0x01001d82:    d0fc        ..      BEQ      0x1001d7e ; SPI_SendAndReceiveData + 28
        0x01001d84:    bd30        0.      POP      {r4,r5,pc}
    $d
        0x01001d86:    0000        ..      DCW    0
        0x01001d88:    01004296    .B..    DCD    16794262
        0x01001d8c:    2e5c2e2e    ..\.    DCD    777793070
        0x01001d90:    61685c2e    .\ha    DCD    1634229294
        0x01001d94:    61776472    rdwa    DCD    1635214450
        0x01001d98:    4c5c6572    re\L    DCD    1281123698
        0x01001d9c:    61726269    ibra    DCD    1634886249
        0x01001da0:    72656972    rier    DCD    1919248754
        0x01001da4:    6b64735c    \sdk    DCD    1801745244
        0x01001da8:    5f63795c    \yc_    DCD    1600354652
        0x01001dac:    2e697073    spi.    DCD    778662003
        0x01001db0:    00000063    c...    DCD    99
        0x01001db4:    000f8a00    ....    DCD    1018368
        0x01001db8:    000f8900    ....    DCD    1018112
        0x01001dbc:    000f8800    ....    DCD    1017856
    $t
    .text
    deinit_otp
        0x01001dc0:    4817        .H      LDR      r0,[pc,#92] ; [0x1001e20] = 0x4481
        0x01001dc2:    4700        .G      BX       r0
    init_otp
        0x01001dc4:    4816        .H      LDR      r0,[pc,#88] ; [0x1001e20] = 0x4481
        0x01001dc6:    3854        T8      SUBS     r0,r0,#0x54
        0x01001dc8:    4700        .G      BX       r0
    read_chip_life
        0x01001dca:    4815        .H      LDR      r0,[pc,#84] ; [0x1001e20] = 0x4481
        0x01001dcc:    b510        ..      PUSH     {r4,lr}
        0x01001dce:    3854        T8      SUBS     r0,r0,#0x54
        0x01001dd0:    4780        .G      BLX      r0
        0x01001dd2:    4814        .H      LDR      r0,[pc,#80] ; [0x1001e24] = 0x45e7
        0x01001dd4:    4780        .G      BLX      r0
        0x01001dd6:    4912        .I      LDR      r1,[pc,#72] ; [0x1001e20] = 0x4481
        0x01001dd8:    4604        .F      MOV      r4,r0
        0x01001dda:    4788        .G      BLX      r1
        0x01001ddc:    4620         F      MOV      r0,r4
        0x01001dde:    bd10        ..      POP      {r4,pc}
    read_chipid
        0x01001de0:    b510        ..      PUSH     {r4,lr}
        0x01001de2:    490f        .I      LDR      r1,[pc,#60] ; [0x1001e20] = 0x4481
        0x01001de4:    4604        .F      MOV      r4,r0
        0x01001de6:    3954        T9      SUBS     r1,r1,#0x54
        0x01001de8:    4788        .G      BLX      r1
        0x01001dea:    490e        .I      LDR      r1,[pc,#56] ; [0x1001e24] = 0x45e7
        0x01001dec:    4620         F      MOV      r0,r4
        0x01001dee:    390e        .9      SUBS     r1,r1,#0xe
        0x01001df0:    4788        .G      BLX      r1
        0x01001df2:    480b        .H      LDR      r0,[pc,#44] ; [0x1001e20] = 0x4481
        0x01001df4:    4780        .G      BLX      r0
        0x01001df6:    bd10        ..      POP      {r4,pc}
    read_otp
        0x01001df8:    b570        p.      PUSH     {r4-r6,lr}
        0x01001dfa:    4b09        .K      LDR      r3,[pc,#36] ; [0x1001e20] = 0x4481
        0x01001dfc:    4614        .F      MOV      r4,r2
        0x01001dfe:    460d        .F      MOV      r5,r1
        0x01001e00:    4606        .F      MOV      r6,r0
        0x01001e02:    3b54        T;      SUBS     r3,r3,#0x54
        0x01001e04:    4798        .G      BLX      r3
        0x01001e06:    4b06        .K      LDR      r3,[pc,#24] ; [0x1001e20] = 0x4481
        0x01001e08:    4622        "F      MOV      r2,r4
        0x01001e0a:    4629        )F      MOV      r1,r5
        0x01001e0c:    4630        0F      MOV      r0,r6
        0x01001e0e:    331c        .3      ADDS     r3,r3,#0x1c
        0x01001e10:    4798        .G      BLX      r3
        0x01001e12:    4803        .H      LDR      r0,[pc,#12] ; [0x1001e20] = 0x4481
        0x01001e14:    4780        .G      BLX      r0
        0x01001e16:    2001        .       MOVS     r0,#1
        0x01001e18:    bd70        p.      POP      {r4-r6,pc}
    write_otp
        0x01001e1a:    4b02        .K      LDR      r3,[pc,#8] ; [0x1001e24] = 0x45e7
        0x01001e1c:    3b52        R;      SUBS     r3,r3,#0x52
        0x01001e1e:    4718        .G      BX       r3
    $d
        0x01001e20:    00004481    .D..    DCD    17537
        0x01001e24:    000045e7    .E..    DCD    17895
    $t
    .text
    IPC_have_data
        0x01001e28:    48fa        .H      LDR      r0,[pc,#1000] ; [0x1002214] = 0x2001c
        0x01001e2a:    6840        @h      LDR      r0,[r0,#4]
        0x01001e2c:    7901        .y      LDRB     r1,[r0,#4]
        0x01001e2e:    7942        By      LDRB     r2,[r0,#5]
        0x01001e30:    0212        ..      LSLS     r2,r2,#8
        0x01001e32:    4311        .C      ORRS     r1,r1,r2
        0x01001e34:    7982        .y      LDRB     r2,[r0,#6]
        0x01001e36:    79c0        .y      LDRB     r0,[r0,#7]
        0x01001e38:    0200        ..      LSLS     r0,r0,#8
        0x01001e3a:    4302        .C      ORRS     r2,r2,r0
        0x01001e3c:    4291        .B      CMP      r1,r2
        0x01001e3e:    d001        ..      BEQ      0x1001e44 ; IPC_have_data + 28
        0x01001e40:    2001        .       MOVS     r0,#1
        0x01001e42:    4770        pG      BX       lr
        0x01001e44:    2000        .       MOVS     r0,#0
        0x01001e46:    4770        pG      BX       lr
    IPC_get_available_size
        0x01001e48:    b510        ..      PUSH     {r4,lr}
        0x01001e4a:    48f2        .H      LDR      r0,[pc,#968] ; [0x1002214] = 0x2001c
        0x01001e4c:    6880        .h      LDR      r0,[r0,#8]
        0x01001e4e:    7902        .y      LDRB     r2,[r0,#4]
        0x01001e50:    7941        Ay      LDRB     r1,[r0,#5]
        0x01001e52:    0209        ..      LSLS     r1,r1,#8
        0x01001e54:    430a        .C      ORRS     r2,r2,r1
        0x01001e56:    7981        .y      LDRB     r1,[r0,#6]
        0x01001e58:    79c3        .y      LDRB     r3,[r0,#7]
        0x01001e5a:    021b        ..      LSLS     r3,r3,#8
        0x01001e5c:    4319        .C      ORRS     r1,r1,r3
        0x01001e5e:    7883        .x      LDRB     r3,[r0,#2]
        0x01001e60:    78c4        .x      LDRB     r4,[r0,#3]
        0x01001e62:    0224        $.      LSLS     r4,r4,#8
        0x01001e64:    4323        #C      ORRS     r3,r3,r4
        0x01001e66:    7804        .x      LDRB     r4,[r0,#0]
        0x01001e68:    7840        @x      LDRB     r0,[r0,#1]
        0x01001e6a:    0200        ..      LSLS     r0,r0,#8
        0x01001e6c:    4304        .C      ORRS     r4,r4,r0
        0x01001e6e:    428a        .B      CMP      r2,r1
        0x01001e70:    d901        ..      BLS      0x1001e76 ; IPC_get_available_size + 46
        0x01001e72:    1a50        P.      SUBS     r0,r2,r1
        0x01001e74:    e003        ..      B        0x1001e7e ; IPC_get_available_size + 54
        0x01001e76:    1b18        ..      SUBS     r0,r3,r4
        0x01001e78:    1a51        Q.      SUBS     r1,r2,r1
        0x01001e7a:    1a40        @.      SUBS     r0,r0,r1
        0x01001e7c:    1c40        @.      ADDS     r0,r0,#1
        0x01001e7e:    b280        ..      UXTH     r0,r0
        0x01001e80:    bd10        ..      POP      {r4,pc}
    IPC_TxData
        0x01001e82:    b5f8        ..      PUSH     {r3-r7,lr}
        0x01001e84:    4607        .F      MOV      r7,r0
        0x01001e86:    48e4        .H      LDR      r0,[pc,#912] ; [0x1002218] = 0xf8520
        0x01001e88:    7f01        ..      LDRB     r1,[r0,#0x1c]
        0x01001e8a:    2204        ."      MOVS     r2,#4
        0x01001e8c:    4311        .C      ORRS     r1,r1,r2
        0x01001e8e:    7701        .w      STRB     r1,[r0,#0x1c]
        0x01001e90:    48e2        .H      LDR      r0,[pc,#904] ; [0x100221c] = 0xc4fe0
        0x01001e92:    2101        .!      MOVS     r1,#1
        0x01001e94:    73c1        .s      STRB     r1,[r0,#0xf]
        0x01001e96:    200a        .       MOVS     r0,#0xa
        0x01001e98:    f7fffda4    ....    BL       delay_ms ; 0x10019e4
        0x01001e9c:    48dd        .H      LDR      r0,[pc,#884] ; [0x1002214] = 0x2001c
        0x01001e9e:    6885        .h      LDR      r5,[r0,#8]
        0x01001ea0:    79ac        .y      LDRB     r4,[r5,#6]
        0x01001ea2:    79e8        .y      LDRB     r0,[r5,#7]
        0x01001ea4:    78be        .x      LDRB     r6,[r7,#2]
        0x01001ea6:    0200        ..      LSLS     r0,r0,#8
        0x01001ea8:    4304        .C      ORRS     r4,r4,r0
        0x01001eaa:    4638        8F      MOV      r0,r7
        0x01001eac:    1cf6        ..      ADDS     r6,r6,#3
        0x01001eae:    e018        ..      B        0x1001ee2 ; IPC_TxData + 96
        0x01001eb0:    2103        .!      MOVS     r1,#3
        0x01001eb2:    0489        ..      LSLS     r1,r1,#18
        0x01001eb4:    7802        .x      LDRB     r2,[r0,#0]
        0x01001eb6:    1861        a.      ADDS     r1,r4,r1
        0x01001eb8:    700a        .p      STRB     r2,[r1,#0]
        0x01001eba:    78a9        .x      LDRB     r1,[r5,#2]
        0x01001ebc:    78ea        .x      LDRB     r2,[r5,#3]
        0x01001ebe:    1c40        @.      ADDS     r0,r0,#1
        0x01001ec0:    0212        ..      LSLS     r2,r2,#8
        0x01001ec2:    4311        .C      ORRS     r1,r1,r2
        0x01001ec4:    42a1        .B      CMP      r1,r4
        0x01001ec6:    d104        ..      BNE      0x1001ed2 ; IPC_TxData + 80
        0x01001ec8:    782c        ,x      LDRB     r4,[r5,#0]
        0x01001eca:    7869        ix      LDRB     r1,[r5,#1]
        0x01001ecc:    0209        ..      LSLS     r1,r1,#8
        0x01001ece:    430c        .C      ORRS     r4,r4,r1
        0x01001ed0:    e001        ..      B        0x1001ed6 ; IPC_TxData + 84
        0x01001ed2:    1c64        d.      ADDS     r4,r4,#1
        0x01001ed4:    b2a4        ..      UXTH     r4,r4
        0x01001ed6:    78b9        .x      LDRB     r1,[r7,#2]
        0x01001ed8:    42b1        .B      CMP      r1,r6
        0x01001eda:    d102        ..      BNE      0x1001ee2 ; IPC_TxData + 96
        0x01001edc:    1cf8        ..      ADDS     r0,r7,#3
        0x01001ede:    f001f92f    ../.    BL       __aeabi_uread4 ; 0x1003140
        0x01001ee2:    4631        1F      MOV      r1,r6
        0x01001ee4:    1e76        v.      SUBS     r6,r6,#1
        0x01001ee6:    b2b6        ..      UXTH     r6,r6
        0x01001ee8:    2900        .)      CMP      r1,#0
        0x01001eea:    d1e1        ..      BNE      0x1001eb0 ; IPC_TxData + 46
        0x01001eec:    71ac        .q      STRB     r4,[r5,#6]
        0x01001eee:    0a20         .      LSRS     r0,r4,#8
        0x01001ef0:    71e8        .q      STRB     r0,[r5,#7]
        0x01001ef2:    48ca        .H      LDR      r0,[pc,#808] ; [0x100221c] = 0xc4fe0
        0x01001ef4:    73c1        .s      STRB     r1,[r0,#0xf]
        0x01001ef6:    48c8        .H      LDR      r0,[pc,#800] ; [0x1002218] = 0xf8520
        0x01001ef8:    7f01        ..      LDRB     r1,[r0,#0x1c]
        0x01001efa:    22fb        ."      MOVS     r2,#0xfb
        0x01001efc:    4011        .@      ANDS     r1,r1,r2
        0x01001efe:    7701        .w      STRB     r1,[r0,#0x1c]
        0x01001f00:    bdf8        ..      POP      {r3-r7,pc}
    IPC_PutBtData
        0x01001f02:    b5f8        ..      PUSH     {r3-r7,lr}
        0x01001f04:    000c        ..      MOVS     r4,r1
        0x01001f06:    4607        .F      MOV      r7,r0
        0x01001f08:    d003        ..      BEQ      0x1001f12 ; IPC_PutBtData + 16
        0x01001f0a:    20ff        .       MOVS     r0,#0xff
        0x01001f0c:    3003        .0      ADDS     r0,#3
        0x01001f0e:    4284        .B      CMP      r4,r0
        0x01001f10:    d901        ..      BLS      0x1001f16 ; IPC_PutBtData + 20
        0x01001f12:    2000        .       MOVS     r0,#0
        0x01001f14:    bdf8        ..      POP      {r3-r7,pc}
        0x01001f16:    4dc0        .M      LDR      r5,[pc,#768] ; [0x1002218] = 0xf8520
        0x01001f18:    7f28        (.      LDRB     r0,[r5,#0x1c]
        0x01001f1a:    2104        .!      MOVS     r1,#4
        0x01001f1c:    4308        .C      ORRS     r0,r0,r1
        0x01001f1e:    7728        (w      STRB     r0,[r5,#0x1c]
        0x01001f20:    4ebe        .N      LDR      r6,[pc,#760] ; [0x100221c] = 0xc4fe0
        0x01001f22:    2001        .       MOVS     r0,#1
        0x01001f24:    73f0        .s      STRB     r0,[r6,#0xf]
        0x01001f26:    200a        .       MOVS     r0,#0xa
        0x01001f28:    f7fffd5c    ..\.    BL       delay_ms ; 0x10019e4
        0x01001f2c:    48b9        .H      LDR      r0,[pc,#740] ; [0x1002214] = 0x2001c
        0x01001f2e:    6881        .h      LDR      r1,[r0,#8]
        0x01001f30:    7988        .y      LDRB     r0,[r1,#6]
        0x01001f32:    79ca        .y      LDRB     r2,[r1,#7]
        0x01001f34:    e00d        ..      B        0x1001f52 ; IPC_PutBtData + 80
        0x01001f36:    2203        ."      MOVS     r2,#3
        0x01001f38:    0492        ..      LSLS     r2,r2,#18
        0x01001f3a:    783b        ;x      LDRB     r3,[r7,#0]
        0x01001f3c:    1882        ..      ADDS     r2,r0,r2
        0x01001f3e:    7013        .p      STRB     r3,[r2,#0]
        0x01001f40:    788a        .x      LDRB     r2,[r1,#2]
        0x01001f42:    78cb        .x      LDRB     r3,[r1,#3]
        0x01001f44:    1c7f        ..      ADDS     r7,r7,#1
        0x01001f46:    021b        ..      LSLS     r3,r3,#8
        0x01001f48:    431a        .C      ORRS     r2,r2,r3
        0x01001f4a:    4282        .B      CMP      r2,r0
        0x01001f4c:    d104        ..      BNE      0x1001f58 ; IPC_PutBtData + 86
        0x01001f4e:    7808        .x      LDRB     r0,[r1,#0]
        0x01001f50:    784a        Jx      LDRB     r2,[r1,#1]
        0x01001f52:    0212        ..      LSLS     r2,r2,#8
        0x01001f54:    4310        .C      ORRS     r0,r0,r2
        0x01001f56:    e001        ..      B        0x1001f5c ; IPC_PutBtData + 90
        0x01001f58:    1c40        @.      ADDS     r0,r0,#1
        0x01001f5a:    b280        ..      UXTH     r0,r0
        0x01001f5c:    1e64        d.      SUBS     r4,r4,#1
        0x01001f5e:    d2ea        ..      BCS      0x1001f36 ; IPC_PutBtData + 52
        0x01001f60:    7188        .q      STRB     r0,[r1,#6]
        0x01001f62:    0a00        ..      LSRS     r0,r0,#8
        0x01001f64:    71c8        .q      STRB     r0,[r1,#7]
        0x01001f66:    2000        .       MOVS     r0,#0
        0x01001f68:    73f0        .s      STRB     r0,[r6,#0xf]
        0x01001f6a:    7f28        (.      LDRB     r0,[r5,#0x1c]
        0x01001f6c:    21fb        .!      MOVS     r1,#0xfb
        0x01001f6e:    4008        .@      ANDS     r0,r0,r1
        0x01001f70:    7728        (w      STRB     r0,[r5,#0x1c]
        0x01001f72:    2001        .       MOVS     r0,#1
        0x01001f74:    bdf8        ..      POP      {r3-r7,pc}
    IPC_ReadBtData
        0x01001f76:    b5f8        ..      PUSH     {r3-r7,lr}
        0x01001f78:    4fa6        .O      LDR      r7,[pc,#664] ; [0x1002214] = 0x2001c
        0x01001f7a:    4606        .F      MOV      r6,r0
        0x01001f7c:    6878        xh      LDR      r0,[r7,#4]
        0x01001f7e:    7901        .y      LDRB     r1,[r0,#4]
        0x01001f80:    7942        By      LDRB     r2,[r0,#5]
        0x01001f82:    0212        ..      LSLS     r2,r2,#8
        0x01001f84:    4311        .C      ORRS     r1,r1,r2
        0x01001f86:    7982        .y      LDRB     r2,[r0,#6]
        0x01001f88:    79c3        .y      LDRB     r3,[r0,#7]
        0x01001f8a:    021b        ..      LSLS     r3,r3,#8
        0x01001f8c:    431a        .C      ORRS     r2,r2,r3
        0x01001f8e:    4291        .B      CMP      r1,r2
        0x01001f90:    d05b        [.      BEQ      0x100204a ; IPC_ReadBtData + 212
        0x01001f92:    7902        .y      LDRB     r2,[r0,#4]
        0x01001f94:    7940        @y      LDRB     r0,[r0,#5]
        0x01001f96:    2103        .!      MOVS     r1,#3
        0x01001f98:    0200        ..      LSLS     r0,r0,#8
        0x01001f9a:    4302        .C      ORRS     r2,r2,r0
        0x01001f9c:    0489        ..      LSLS     r1,r1,#18
        0x01001f9e:    1850        P.      ADDS     r0,r2,r1
        0x01001fa0:    7800        .x      LDRB     r0,[r0,#0]
        0x01001fa2:    7030        0p      STRB     r0,[r6,#0]
        0x01001fa4:    687b        {h      LDR      r3,[r7,#4]
        0x01001fa6:    7898        .x      LDRB     r0,[r3,#2]
        0x01001fa8:    78dc        .x      LDRB     r4,[r3,#3]
        0x01001faa:    0224        $.      LSLS     r4,r4,#8
        0x01001fac:    4320         C      ORRS     r0,r0,r4
        0x01001fae:    4290        .B      CMP      r0,r2
        0x01001fb0:    d104        ..      BNE      0x1001fbc ; IPC_ReadBtData + 70
        0x01001fb2:    7818        .x      LDRB     r0,[r3,#0]
        0x01001fb4:    785a        Zx      LDRB     r2,[r3,#1]
        0x01001fb6:    0212        ..      LSLS     r2,r2,#8
        0x01001fb8:    4310        .C      ORRS     r0,r0,r2
        0x01001fba:    e001        ..      B        0x1001fc0 ; IPC_ReadBtData + 74
        0x01001fbc:    1c52        R.      ADDS     r2,r2,#1
        0x01001fbe:    b290        ..      UXTH     r0,r2
        0x01001fc0:    1842        B.      ADDS     r2,r0,r1
        0x01001fc2:    7812        .x      LDRB     r2,[r2,#0]
        0x01001fc4:    7072        rp      STRB     r2,[r6,#1]
        0x01001fc6:    687a        zh      LDR      r2,[r7,#4]
        0x01001fc8:    7893        .x      LDRB     r3,[r2,#2]
        0x01001fca:    78d4        .x      LDRB     r4,[r2,#3]
        0x01001fcc:    0224        $.      LSLS     r4,r4,#8
        0x01001fce:    4323        #C      ORRS     r3,r3,r4
        0x01001fd0:    4283        .B      CMP      r3,r0
        0x01001fd2:    d104        ..      BNE      0x1001fde ; IPC_ReadBtData + 104
        0x01001fd4:    7810        .x      LDRB     r0,[r2,#0]
        0x01001fd6:    7852        Rx      LDRB     r2,[r2,#1]
        0x01001fd8:    0212        ..      LSLS     r2,r2,#8
        0x01001fda:    4310        .C      ORRS     r0,r0,r2
        0x01001fdc:    e001        ..      B        0x1001fe2 ; IPC_ReadBtData + 108
        0x01001fde:    1c40        @.      ADDS     r0,r0,#1
        0x01001fe0:    b280        ..      UXTH     r0,r0
        0x01001fe2:    1842        B.      ADDS     r2,r0,r1
        0x01001fe4:    7812        .x      LDRB     r2,[r2,#0]
        0x01001fe6:    70b2        .p      STRB     r2,[r6,#2]
        0x01001fe8:    687a        zh      LDR      r2,[r7,#4]
        0x01001fea:    7893        .x      LDRB     r3,[r2,#2]
        0x01001fec:    78d4        .x      LDRB     r4,[r2,#3]
        0x01001fee:    0224        $.      LSLS     r4,r4,#8
        0x01001ff0:    4323        #C      ORRS     r3,r3,r4
        0x01001ff2:    4283        .B      CMP      r3,r0
        0x01001ff4:    d104        ..      BNE      0x1002000 ; IPC_ReadBtData + 138
        0x01001ff6:    7814        .x      LDRB     r4,[r2,#0]
        0x01001ff8:    7850        Px      LDRB     r0,[r2,#1]
        0x01001ffa:    0200        ..      LSLS     r0,r0,#8
        0x01001ffc:    4304        .C      ORRS     r4,r4,r0
        0x01001ffe:    e001        ..      B        0x1002004 ; IPC_ReadBtData + 142
        0x01002000:    1c40        @.      ADDS     r0,r0,#1
        0x01002002:    b284        ..      UXTH     r4,r0
        0x01002004:    2500        .%      MOVS     r5,#0
        0x01002006:    e017        ..      B        0x1002038 ; IPC_ReadBtData + 194
        0x01002008:    1cf0        ..      ADDS     r0,r6,#3
        0x0100200a:    f001f899    ....    BL       __aeabi_uread4 ; 0x1003140
        0x0100200e:    2103        .!      MOVS     r1,#3
        0x01002010:    0489        ..      LSLS     r1,r1,#18
        0x01002012:    1861        a.      ADDS     r1,r4,r1
        0x01002014:    7809        .x      LDRB     r1,[r1,#0]
        0x01002016:    5541        AU      STRB     r1,[r0,r5]
        0x01002018:    6878        xh      LDR      r0,[r7,#4]
        0x0100201a:    7881        .x      LDRB     r1,[r0,#2]
        0x0100201c:    78c2        .x      LDRB     r2,[r0,#3]
        0x0100201e:    0212        ..      LSLS     r2,r2,#8
        0x01002020:    4311        .C      ORRS     r1,r1,r2
        0x01002022:    42a1        .B      CMP      r1,r4
        0x01002024:    d104        ..      BNE      0x1002030 ; IPC_ReadBtData + 186
        0x01002026:    7804        .x      LDRB     r4,[r0,#0]
        0x01002028:    7840        @x      LDRB     r0,[r0,#1]
        0x0100202a:    0200        ..      LSLS     r0,r0,#8
        0x0100202c:    4304        .C      ORRS     r4,r4,r0
        0x0100202e:    e001        ..      B        0x1002034 ; IPC_ReadBtData + 190
        0x01002030:    1c64        d.      ADDS     r4,r4,#1
        0x01002032:    b2a4        ..      UXTH     r4,r4
        0x01002034:    1c6d        m.      ADDS     r5,r5,#1
        0x01002036:    b2ed        ..      UXTB     r5,r5
        0x01002038:    78b0        .x      LDRB     r0,[r6,#2]
        0x0100203a:    42a8        .B      CMP      r0,r5
        0x0100203c:    d8e4        ..      BHI      0x1002008 ; IPC_ReadBtData + 146
        0x0100203e:    6878        xh      LDR      r0,[r7,#4]
        0x01002040:    7104        .q      STRB     r4,[r0,#4]
        0x01002042:    0a21        !.      LSRS     r1,r4,#8
        0x01002044:    7141        Aq      STRB     r1,[r0,#5]
        0x01002046:    2001        .       MOVS     r0,#1
        0x01002048:    bdf8        ..      POP      {r3-r7,pc}
        0x0100204a:    2000        .       MOVS     r0,#0
        0x0100204c:    bdf8        ..      POP      {r3-r7,pc}
    IPC_GetBtData
        0x0100204e:    b5f0        ..      PUSH     {r4-r7,lr}
        0x01002050:    4e70        pN      LDR      r6,[pc,#448] ; [0x1002214] = 0x2001c
        0x01002052:    4607        .F      MOV      r7,r0
        0x01002054:    6870        ph      LDR      r0,[r6,#4]
        0x01002056:    460d        .F      MOV      r5,r1
        0x01002058:    7903        .y      LDRB     r3,[r0,#4]
        0x0100205a:    2400        .$      MOVS     r4,#0
        0x0100205c:    7940        @y      LDRB     r0,[r0,#5]
        0x0100205e:    0200        ..      LSLS     r0,r0,#8
        0x01002060:    4303        .C      ORRS     r3,r3,r0
        0x01002062:    6808        .h      LDR      r0,[r1,#0]
        0x01002064:    2800        .(      CMP      r0,#0
        0x01002066:    d005        ..      BEQ      0x1002074 ; IPC_GetBtData + 38
        0x01002068:    f7fffede    ....    BL       IPC_have_data ; 0x1001e28
        0x0100206c:    2801        .(      CMP      r0,#1
        0x0100206e:    d016        ..      BEQ      0x100209e ; IPC_GetBtData + 80
        0x01002070:    2000        .       MOVS     r0,#0
        0x01002072:    6028        (`      STR      r0,[r5,#0]
        0x01002074:    bdf0        ..      POP      {r4-r7,pc}
        0x01002076:    2003        .       MOVS     r0,#3
        0x01002078:    0480        ..      LSLS     r0,r0,#18
        0x0100207a:    1818        ..      ADDS     r0,r3,r0
        0x0100207c:    7800        .x      LDRB     r0,[r0,#0]
        0x0100207e:    5538        8U      STRB     r0,[r7,r4]
        0x01002080:    6870        ph      LDR      r0,[r6,#4]
        0x01002082:    7881        .x      LDRB     r1,[r0,#2]
        0x01002084:    78c2        .x      LDRB     r2,[r0,#3]
        0x01002086:    1c64        d.      ADDS     r4,r4,#1
        0x01002088:    0212        ..      LSLS     r2,r2,#8
        0x0100208a:    4311        .C      ORRS     r1,r1,r2
        0x0100208c:    4299        .B      CMP      r1,r3
        0x0100208e:    d104        ..      BNE      0x100209a ; IPC_GetBtData + 76
        0x01002090:    7803        .x      LDRB     r3,[r0,#0]
        0x01002092:    7840        @x      LDRB     r0,[r0,#1]
        0x01002094:    0200        ..      LSLS     r0,r0,#8
        0x01002096:    4303        .C      ORRS     r3,r3,r0
        0x01002098:    e001        ..      B        0x100209e ; IPC_GetBtData + 80
        0x0100209a:    1c5b        [.      ADDS     r3,r3,#1
        0x0100209c:    b29b        ..      UXTH     r3,r3
        0x0100209e:    6870        ph      LDR      r0,[r6,#4]
        0x010020a0:    7981        .y      LDRB     r1,[r0,#6]
        0x010020a2:    79c0        .y      LDRB     r0,[r0,#7]
        0x010020a4:    0200        ..      LSLS     r0,r0,#8
        0x010020a6:    4301        .C      ORRS     r1,r1,r0
        0x010020a8:    4299        .B      CMP      r1,r3
        0x010020aa:    d002        ..      BEQ      0x10020b2 ; IPC_GetBtData + 100
        0x010020ac:    6828        (h      LDR      r0,[r5,#0]
        0x010020ae:    42a0        .B      CMP      r0,r4
        0x010020b0:    d8e1        ..      BHI      0x1002076 ; IPC_GetBtData + 40
        0x010020b2:    6870        ph      LDR      r0,[r6,#4]
        0x010020b4:    7103        .q      STRB     r3,[r0,#4]
        0x010020b6:    0a19        ..      LSRS     r1,r3,#8
        0x010020b8:    7141        Aq      STRB     r1,[r0,#5]
        0x010020ba:    2001        .       MOVS     r0,#1
        0x010020bc:    602c        ,`      STR      r4,[r5,#0]
        0x010020be:    bdf0        ..      POP      {r4-r7,pc}
    _dma_start
    __tagsym$$noinline
        0x010020c0:    b530        0.      PUSH     {r4,r5,lr}
        0x010020c2:    0205        ..      LSLS     r5,r0,#8
        0x010020c4:    4856        VH      LDR      r0,[pc,#344] ; [0x1002220] = 0xf8800
        0x010020c6:    9c03        ..      LDR      r4,[sp,#0xc]
        0x010020c8:    1828        (.      ADDS     r0,r5,r0
        0x010020ca:    6001        .`      STR      r1,[r0,#0]
        0x010020cc:    6043        C`      STR      r3,[r0,#4]
        0x010020ce:    0411        ..      LSLS     r1,r2,#16
        0x010020d0:    4321        !C      ORRS     r1,r1,r4
        0x010020d2:    6081        .`      STR      r1,[r0,#8]
        0x010020d4:    2180        .!      MOVS     r1,#0x80
        0x010020d6:    73c1        .s      STRB     r1,[r0,#0xf]
        0x010020d8:    bd30        0.      POP      {r4,r5,pc}
    _dma_wait
    __tagsym$$noinline
        0x010020da:    4951        QI      LDR      r1,[pc,#324] ; [0x1002220] = 0xf8800
        0x010020dc:    0200        ..      LSLS     r0,r0,#8
        0x010020de:    1840        @.      ADDS     r0,r0,r1
        0x010020e0:    6901        .i      LDR      r1,[r0,#0x10]
        0x010020e2:    07c9        ..      LSLS     r1,r1,#31
        0x010020e4:    d0fc        ..      BEQ      0x10020e0 ; _dma_wait + 6
        0x010020e6:    4770        pG      BX       lr
    _dmacopy
        0x010020e8:    b508        ..      PUSH     {r3,lr}
        0x010020ea:    4603        .F      MOV      r3,r0
        0x010020ec:    2006        .       MOVS     r0,#6
        0x010020ee:    9200        ..      STR      r2,[sp,#0]
        0x010020f0:    f7ffffe6    ....    BL       _dma_start ; 0x10020c0
        0x010020f4:    2006        .       MOVS     r0,#6
        0x010020f6:    f7fffff0    ....    BL       _dma_wait ; 0x10020da
        0x010020fa:    bd08        ..      POP      {r3,pc}
    _download_btcode
        0x010020fc:    b5f8        ..      PUSH     {r3-r7,lr}
        0x010020fe:    7881        .x      LDRB     r1,[r0,#2]
        0x01002100:    78c2        .x      LDRB     r2,[r0,#3]
        0x01002102:    1c80        ..      ADDS     r0,r0,#2
        0x01002104:    0212        ..      LSLS     r2,r2,#8
        0x01002106:    4311        .C      ORRS     r1,r1,r2
        0x01002108:    4a46        FJ      LDR      r2,[pc,#280] ; [0x1002224] = 0x55aa
        0x0100210a:    4291        .B      CMP      r1,r2
        0x0100210c:    d137        7.      BNE      0x100217e ; _download_btcode + 130
        0x0100210e:    4942        BI      LDR      r1,[pc,#264] ; [0x1002218] = 0xf8520
        0x01002110:    1c84        ..      ADDS     r4,r0,#2
        0x01002112:    3120         1      ADDS     r1,r1,#0x20
        0x01002114:    6ac8        .j      LDR      r0,[r1,#0x2c]
        0x01002116:    2201        ."      MOVS     r2,#1
        0x01002118:    0352        R.      LSLS     r2,r2,#13
        0x0100211a:    4390        .C      BICS     r0,r0,r2
        0x0100211c:    62c8        .b      STR      r0,[r1,#0x2c]
        0x0100211e:    7826        &x      LDRB     r6,[r4,#0]
        0x01002120:    7860        `x      LDRB     r0,[r4,#1]
        0x01002122:    4f41        AO      LDR      r7,[pc,#260] ; [0x1002228] = 0xc8020
        0x01002124:    0200        ..      LSLS     r0,r0,#8
        0x01002126:    4306        .C      ORRS     r6,r6,r0
        0x01002128:    2500        .%      MOVS     r5,#0
        0x0100212a:    713d        =q      STRB     r5,[r7,#4]
        0x0100212c:    70bd        .p      STRB     r5,[r7,#2]
        0x0100212e:    2080        .       MOVS     r0,#0x80
        0x01002130:    70f8        .p      STRB     r0,[r7,#3]
        0x01002132:    483e        >H      LDR      r0,[pc,#248] ; [0x100222c] = 0xf8e00
        0x01002134:    2108        .!      MOVS     r1,#8
        0x01002136:    7301        .s      STRB     r1,[r0,#0xc]
        0x01002138:    1ca4        ..      ADDS     r4,r4,#2
        0x0100213a:    4632        2F      MOV      r2,r6
        0x0100213c:    4621        !F      MOV      r1,r4
        0x0100213e:    1d78        x.      ADDS     r0,r7,#5
        0x01002140:    f7ffffd2    ....    BL       _dmacopy ; 0x10020e8
        0x01002144:    70fd        .p      STRB     r5,[r7,#3]
        0x01002146:    4839        9H      LDR      r0,[pc,#228] ; [0x100222c] = 0xf8e00
        0x01002148:    19a4        ..      ADDS     r4,r4,r6
        0x0100214a:    7305        .s      STRB     r5,[r0,#0xc]
        0x0100214c:    2703        .'      MOVS     r7,#3
        0x0100214e:    04bf        ..      LSLS     r7,r7,#18
        0x01002150:    4e34        4N      LDR      r6,[pc,#208] ; [0x1002224] = 0x55aa
        0x01002152:    e00e        ..      B        0x1002172 ; _download_btcode + 118
        0x01002154:    78a5        .x      LDRB     r5,[r4,#2]
        0x01002156:    78e0        .x      LDRB     r0,[r4,#3]
        0x01002158:    0200        ..      LSLS     r0,r0,#8
        0x0100215a:    4305        .C      ORRS     r5,r5,r0
        0x0100215c:    7920         y      LDRB     r0,[r4,#4]
        0x0100215e:    7961        ay      LDRB     r1,[r4,#5]
        0x01002160:    1da4        ..      ADDS     r4,r4,#6
        0x01002162:    0209        ..      LSLS     r1,r1,#8
        0x01002164:    4308        .C      ORRS     r0,r0,r1
        0x01002166:    19c0        ..      ADDS     r0,r0,r7
        0x01002168:    462a        *F      MOV      r2,r5
        0x0100216a:    4621        !F      MOV      r1,r4
        0x0100216c:    f7ffffbc    ....    BL       _dmacopy ; 0x10020e8
        0x01002170:    1964        d.      ADDS     r4,r4,r5
        0x01002172:    7820         x      LDRB     r0,[r4,#0]
        0x01002174:    7861        ax      LDRB     r1,[r4,#1]
        0x01002176:    0209        ..      LSLS     r1,r1,#8
        0x01002178:    4308        .C      ORRS     r0,r0,r1
        0x0100217a:    42b0        .B      CMP      r0,r6
        0x0100217c:    d0ea        ..      BEQ      0x1002154 ; _download_btcode + 88
        0x0100217e:    bdf8        ..      POP      {r3-r7,pc}
    erase_memory
        0x01002180:    b530        0.      PUSH     {r4,r5,lr}
        0x01002182:    2000        .       MOVS     r0,#0
        0x01002184:    2203        ."      MOVS     r2,#3
        0x01002186:    2331        1#      MOVS     r3,#0x31
        0x01002188:    0492        ..      LSLS     r2,r2,#18
        0x0100218a:    039b        ..      LSLS     r3,r3,#14
        0x0100218c:    2401        .$      MOVS     r4,#1
        0x0100218e:    4601        .F      MOV      r1,r0
        0x01002190:    0324        $.      LSLS     r4,r4,#12
        0x01002192:    1885        ..      ADDS     r5,r0,r2
        0x01002194:    7029        )p      STRB     r1,[r5,#0]
        0x01002196:    18c5        ..      ADDS     r5,r0,r3
        0x01002198:    7029        )p      STRB     r1,[r5,#0]
        0x0100219a:    1c40        @.      ADDS     r0,r0,#1
        0x0100219c:    42a0        .B      CMP      r0,r4
        0x0100219e:    d3f8        ..      BCC      0x1002192 ; erase_memory + 18
        0x010021a0:    bd30        0.      POP      {r4,r5,pc}
    IpcInit
        0x010021a2:    b570        p.      PUSH     {r4-r6,lr}
        0x010021a4:    481b        .H      LDR      r0,[pc,#108] ; [0x1002214] = 0x2001c
        0x010021a6:    7801        .x      LDRB     r1,[r0,#0]
        0x010021a8:    2900        .)      CMP      r1,#0
        0x010021aa:    d124        $.      BNE      0x10021f6 ; IpcInit + 84
        0x010021ac:    2501        .%      MOVS     r5,#1
        0x010021ae:    4a20         J      LDR      r2,[pc,#128] ; [0x1002230] = 0xe000e180
        0x010021b0:    02e9        ..      LSLS     r1,r5,#11
        0x010021b2:    6011        .`      STR      r1,[r2,#0]
        0x010021b4:    7005        .p      STRB     r5,[r0,#0]
        0x010021b6:    4c18        .L      LDR      r4,[pc,#96] ; [0x1002218] = 0xf8520
        0x010021b8:    2094        .       MOVS     r0,#0x94
        0x010021ba:    7720         w      STRB     r0,[r4,#0x1c]
        0x010021bc:    4e1d        .N      LDR      r6,[pc,#116] ; [0x1002234] = 0x2710
        0x010021be:    4630        0F      MOV      r0,r6
        0x010021c0:    f001fa64    ..d.    BL       $Ven$TT$L$$delay ; 0x100368c
        0x010021c4:    2019        .       MOVS     r0,#0x19
        0x010021c6:    03c0        ..      LSLS     r0,r0,#15
        0x010021c8:    7405        .t      STRB     r5,[r0,#0x10]
        0x010021ca:    4630        0F      MOV      r0,r6
        0x010021cc:    f001fa5e    ..^.    BL       $Ven$TT$L$$delay ; 0x100368c
        0x010021d0:    4815        .H      LDR      r0,[pc,#84] ; [0x1002228] = 0xc8020
        0x010021d2:    3020         0      ADDS     r0,r0,#0x20
        0x010021d4:    78c1        .x      LDRB     r1,[r0,#3]
        0x010021d6:    0609        ..      LSLS     r1,r1,#24
        0x010021d8:    d5fc        ..      BPL      0x10021d4 ; IpcInit + 50
        0x010021da:    78c1        .x      LDRB     r1,[r0,#3]
        0x010021dc:    0649        I.      LSLS     r1,r1,#25
        0x010021de:    0e49        I.      LSRS     r1,r1,#25
        0x010021e0:    70c1        .p      STRB     r1,[r0,#3]
        0x010021e2:    f7ffffcd    ....    BL       erase_memory ; 0x1002180
        0x010021e6:    4814        .H      LDR      r0,[pc,#80] ; [0x1002238] = 0x100429f
        0x010021e8:    f7ffff88    ....    BL       _download_btcode ; 0x10020fc
        0x010021ec:    209c        .       MOVS     r0,#0x9c
        0x010021ee:    7720         w      STRB     r0,[r4,#0x1c]
        0x010021f0:    2064        d       MOVS     r0,#0x64
        0x010021f2:    f7fffbf7    ....    BL       delay_ms ; 0x10019e4
        0x010021f6:    bd70        p.      POP      {r4-r6,pc}
    PrintHCIPack
        0x010021f8:    b570        p.      PUSH     {r4-r6,lr}
        0x010021fa:    4605        .F      MOV      r5,r0
        0x010021fc:    460c        .F      MOV      r4,r1
        0x010021fe:    a00f        ..      ADR      r0,{pc}+0x3e ; 0x100223c
        0x01002200:    f7fef95f    .._.    BL       MyPrintf ; 0x10004c2
        0x01002204:    782a        *x      LDRB     r2,[r5,#0]
        0x01002206:    4621        !F      MOV      r1,r4
        0x01002208:    a00e        ..      ADR      r0,{pc}+0x3c ; 0x1002244
        0x0100220a:    f7fef95a    ..Z.    BL       MyPrintf ; 0x10004c2
        0x0100220e:    786a        jx      LDRB     r2,[r5,#1]
        0x01002210:    4621        !F      MOV      r1,r4
        0x01002212:    e01f        ..      B        0x1002254 ; PrintHCIPack + 92
    $d
        0x01002214:    0002001c    ....    DCD    131100
        0x01002218:    000f8520     ...    DCD    1017120
        0x0100221c:    000c4fe0    .O..    DCD    806880
        0x01002220:    000f8800    ....    DCD    1017856
        0x01002224:    000055aa    .U..    DCD    21930
        0x01002228:    000c8020     ...    DCD    819232
        0x0100222c:    000f8e00    ....    DCD    1019392
        0x01002230:    e000e180    ....    DCD    3758154112
        0x01002234:    00002710    .'..    DCD    10000
        0x01002238:    0100429f    .B..    DCD    16794271
        0x0100223c:    2520304d    M0 %    DCD    622866509
        0x01002240:    000a3a73    s:..    DCD    670323
        0x01002244:    54207325    %s T    DCD    1411412773
        0x01002248:    3a657079    ype:    DCD    979726457
        0x0100224c:    78323025    %02x    DCD    2016555045
        0x01002250:    0000000a    ....    DCD    10
    $t
        0x01002254:    a012        ..      ADR      r0,{pc}+0x4c ; 0x10022a0
        0x01002256:    f7fef934    ..4.    BL       MyPrintf ; 0x10004c2
        0x0100225a:    78aa        .x      LDRB     r2,[r5,#2]
        0x0100225c:    4621        !F      MOV      r1,r4
        0x0100225e:    a015        ..      ADR      r0,{pc}+0x56 ; 0x10022b4
        0x01002260:    f7fef92f    ../.    BL       MyPrintf ; 0x10004c2
        0x01002264:    4621        !F      MOV      r1,r4
        0x01002266:    a018        ..      ADR      r0,{pc}+0x62 ; 0x10022c8
        0x01002268:    f7fef92b    ..+.    BL       MyPrintf ; 0x10004c2
        0x0100226c:    2400        .$      MOVS     r4,#0
        0x0100226e:    e00f        ..      B        0x1002290 ; PrintHCIPack + 152
        0x01002270:    1ce8        ..      ADDS     r0,r5,#3
        0x01002272:    f000ff65    ..e.    BL       __aeabi_uread4 ; 0x1003140
        0x01002276:    5d01        .]      LDRB     r1,[r0,r4]
        0x01002278:    a016        ..      ADR      r0,{pc}+0x5c ; 0x10022d4
        0x0100227a:    f7fef922    ..".    BL       MyPrintf ; 0x10004c2
        0x0100227e:    0720         .      LSLS     r0,r4,#28
        0x01002280:    d104        ..      BNE      0x100228c ; PrintHCIPack + 148
        0x01002282:    2c00        .,      CMP      r4,#0
        0x01002284:    d002        ..      BEQ      0x100228c ; PrintHCIPack + 148
        0x01002286:    a012        ..      ADR      r0,{pc}+0x4a ; 0x10022d0
        0x01002288:    f7fef91b    ....    BL       MyPrintf ; 0x10004c2
        0x0100228c:    1c64        d.      ADDS     r4,r4,#1
        0x0100228e:    b2e4        ..      UXTB     r4,r4
        0x01002290:    78a8        .x      LDRB     r0,[r5,#2]
        0x01002292:    42a0        .B      CMP      r0,r4
        0x01002294:    d8ec        ..      BHI      0x1002270 ; PrintHCIPack + 120
        0x01002296:    a00e        ..      ADR      r0,{pc}+0x3a ; 0x10022d0
        0x01002298:    f7fef913    ....    BL       MyPrintf ; 0x10004c2
        0x0100229c:    bd70        p.      POP      {r4-r6,pc}
    $d
        0x0100229e:    0000        ..      DCW    0
        0x010022a0:    4f207325    %s O    DCD    1327526693
        0x010022a4:    646f4350    PCod    DCD    1685013328
        0x010022a8:    25203a65    e: %    DCD    622869093
        0x010022ac:    0a783230    02x.    DCD    175649328
        0x010022b0:    00000000    ....    DCD    0
        0x010022b4:    4c207325    %s L    DCD    1277195045
        0x010022b8:    74676e65    engt    DCD    1952935525
        0x010022bc:    25203a68    h: %    DCD    622869096
        0x010022c0:    0a783230    02x.    DCD    175649328
        0x010022c4:    00000000    ....    DCD    0
        0x010022c8:    44207325    %s D    DCD    1142977317
        0x010022cc:    3a617461    ata:    DCD    979465313
        0x010022d0:    0000000a    ....    DCD    10
        0x010022d4:    78323025    %02x    DCD    2016555045
        0x010022d8:    00000020     ...    DCD    32
    $t
    .text
    Power_Keyscan
        0x010022dc:    480d        .H      LDR      r0,[pc,#52] ; [0x1002314] = 0xf8500
        0x010022de:    6840        @h      LDR      r0,[r0,#4]
        0x010022e0:    2800        .(      CMP      r0,#0
        0x010022e2:    da01        ..      BGE      0x10022e8 ; Power_Keyscan + 12
        0x010022e4:    2001        .       MOVS     r0,#1
        0x010022e6:    4770        pG      BX       lr
        0x010022e8:    2000        .       MOVS     r0,#0
        0x010022ea:    4770        pG      BX       lr
    Power_off
        0x010022ec:    b510        ..      PUSH     {r4,lr}
        0x010022ee:    4809        .H      LDR      r0,[pc,#36] ; [0x1002314] = 0xf8500
        0x010022f0:    6840        @h      LDR      r0,[r0,#4]
        0x010022f2:    0040        @.      LSLS     r0,r0,#1
        0x010022f4:    d40c        ..      BMI      0x1002310 ; Power_off + 36
        0x010022f6:    f7fffff1    ....    BL       Power_Keyscan ; 0x10022dc
        0x010022fa:    2800        .(      CMP      r0,#0
        0x010022fc:    d1fb        ..      BNE      0x10022f6 ; Power_off + 10
        0x010022fe:    f000fa52    ..R.    BL       lpm_bt_read ; 0x10027a6
        0x01002302:    2101        .!      MOVS     r1,#1
        0x01002304:    0489        ..      LSLS     r1,r1,#18
        0x01002306:    4388        .C      BICS     r0,r0,r1
        0x01002308:    4601        .F      MOV      r1,r0
        0x0100230a:    2000        .       MOVS     r0,#0
        0x0100230c:    f000fa29    ..).    BL       lpm_bt_write ; 0x1002762
        0x01002310:    2000        .       MOVS     r0,#0
        0x01002312:    bd10        ..      POP      {r4,pc}
    $d
        0x01002314:    000f8500    ....    DCD    1017088
    $t
    .text
    hal_log_printf
        0x01002318:    b40f        ..      PUSH     {r0-r3}
        0x0100231a:    b510        ..      PUSH     {r4,lr}
        0x0100231c:    24ff        .$      MOVS     r4,#0xff
        0x0100231e:    b0c0        ..      SUB      sp,sp,#0x100
        0x01002320:    3401        .4      ADDS     r4,#1
        0x01002322:    4621        !F      MOV      r1,r4
        0x01002324:    4668        hF      MOV      r0,sp
        0x01002326:    f000ff00    ....    BL       __aeabi_memclr ; 0x100312a
        0x0100232a:    ab43        C.      ADD      r3,sp,#0x10c
        0x0100232c:    4621        !F      MOV      r1,r4
        0x0100232e:    4668        hF      MOV      r0,sp
        0x01002330:    9a42        B.      LDR      r2,[sp,#0x108]
        0x01002332:    f001f9c1    ....    BL       __0vsnprintf ; 0x10036b8
        0x01002336:    4602        .F      MOV      r2,r0
        0x01002338:    4669        iF      MOV      r1,sp
        0x0100233a:    2000        .       MOVS     r0,#0
        0x0100233c:    f7feffad    ....    BL       UART_SendBuf ; 0x100129a
        0x01002340:    b040        @.      ADD      sp,sp,#0x100
        0x01002342:    bc10        ..      POP      {r4}
        0x01002344:    bc08        ..      POP      {r3}
        0x01002346:    b004        ..      ADD      sp,sp,#0x10
        0x01002348:    4718        .G      BX       r3
    fputc
        0x0100234a:    b510        ..      PUSH     {r4,lr}
        0x0100234c:    4604        .F      MOV      r4,r0
        0x0100234e:    b2c1        ..      UXTB     r1,r0
        0x01002350:    2000        .       MOVS     r0,#0
        0x01002352:    f7fff801    ....    BL       UART_SendData ; 0x1001358
        0x01002356:    4620         F      MOV      r0,r4
        0x01002358:    bd10        ..      POP      {r4,pc}
    hal_log_init
        0x0100235a:    b51f        ..      PUSH     {r0-r4,lr}
        0x0100235c:    2208        ."      MOVS     r2,#8
        0x0100235e:    2102        .!      MOVS     r1,#2
        0x01002360:    2000        .       MOVS     r0,#0
        0x01002362:    f7fef9e1    ....    BL       GPIO_Config ; 0x1000728
        0x01002366:    2209        ."      MOVS     r2,#9
        0x01002368:    2101        .!      MOVS     r1,#1
        0x0100236a:    2000        .       MOVS     r0,#0
        0x0100236c:    f7fef9dc    ....    BL       GPIO_Config ; 0x1000728
        0x01002370:    20e1        .       MOVS     r0,#0xe1
        0x01002372:    0300        ..      LSLS     r0,r0,#12
        0x01002374:    9001        ..      STR      r0,[sp,#4]
        0x01002376:    2000        .       MOVS     r0,#0
        0x01002378:    4669        iF      MOV      r1,sp
        0x0100237a:    9002        ..      STR      r0,[sp,#8]
        0x0100237c:    7008        .p      STRB     r0,[r1,#0]
        0x0100237e:    f7fefea2    ....    BL       UART_Init ; 0x10010c6
        0x01002382:    2201        ."      MOVS     r2,#1
        0x01002384:    2102        .!      MOVS     r1,#2
        0x01002386:    2000        .       MOVS     r0,#0
        0x01002388:    f7fefdfe    ....    BL       UART_ITConfig ; 0x1000f88
        0x0100238c:    210a        .!      MOVS     r1,#0xa
        0x0100238e:    2000        .       MOVS     r0,#0
        0x01002390:    f7fff808    ....    BL       UART_SetRxITNum ; 0x10013a4
        0x01002394:    21ff        .!      MOVS     r1,#0xff
        0x01002396:    2000        .       MOVS     r0,#0
        0x01002398:    f7fefffd    ....    BL       UART_SetITTimeout ; 0x1001396
        0x0100239c:    2000        .       MOVS     r0,#0
        0x0100239e:    b004        ..      ADD      sp,sp,#0x10
        0x010023a0:    bd10        ..      POP      {r4,pc}
        0x010023a2:    0000        ..      MOVS     r0,r0
    .text
    hal_print_send_data
        0x010023a4:    b510        ..      PUSH     {r4,lr}
        0x010023a6:    4a95        .J      LDR      r2,[pc,#596] ; [0x10025fc] = 0xf8900
        0x010023a8:    6010        .`      STR      r0,[r2,#0]
        0x010023aa:    0408        ..      LSLS     r0,r1,#16
        0x010023ac:    6090        .`      STR      r0,[r2,#8]
        0x010023ae:    2080        .       MOVS     r0,#0x80
        0x010023b0:    73d0        .s      STRB     r0,[r2,#0xf]
        0x010023b2:    6910        .i      LDR      r0,[r2,#0x10]
        0x010023b4:    07c0        ..      LSLS     r0,r0,#31
        0x010023b6:    d0fc        ..      BEQ      0x10023b2 ; hal_print_send_data + 14
        0x010023b8:    f000fcbc    ....    BL       middle_print_latch_to_heat_handle ; 0x1002d34
        0x010023bc:    2000        .       MOVS     r0,#0
        0x010023be:    bd10        ..      POP      {r4,pc}
    hal_print_heat_time
        0x010023c0:    b510        ..      PUSH     {r4,lr}
        0x010023c2:    4604        .F      MOV      r4,r0
        0x010023c4:    2100        .!      MOVS     r1,#0
        0x010023c6:    2005        .       MOVS     r0,#5
        0x010023c8:    f7fffb0f    ....    BL       TIM_Cmd ; 0x10019ea
        0x010023cc:    2060        `       MOVS     r0,#0x60
        0x010023ce:    4621        !F      MOV      r1,r4
        0x010023d0:    4341        AC      MULS     r1,r0,r1
        0x010023d2:    2005        .       MOVS     r0,#5
        0x010023d4:    f7fffb85    ....    BL       TIM_SetPeriod ; 0x1001ae2
        0x010023d8:    2101        .!      MOVS     r1,#1
        0x010023da:    2005        .       MOVS     r0,#5
        0x010023dc:    f7fffb05    ....    BL       TIM_Cmd ; 0x10019ea
        0x010023e0:    2000        .       MOVS     r0,#0
        0x010023e2:    bd10        ..      POP      {r4,pc}
    hal_print_stop
        0x010023e4:    b510        ..      PUSH     {r4,lr}
        0x010023e6:    2104        .!      MOVS     r1,#4
        0x010023e8:    2001        .       MOVS     r0,#1
        0x010023ea:    f7fefb58    ..X.    BL       GPIO_ResetBits ; 0x1000a9e
        0x010023ee:    2101        .!      MOVS     r1,#1
        0x010023f0:    2005        .       MOVS     r0,#5
        0x010023f2:    f7fffafa    ....    BL       TIM_Cmd ; 0x10019ea
        0x010023f6:    2000        .       MOVS     r0,#0
        0x010023f8:    bd10        ..      POP      {r4,pc}
    hal_print_motor_speed_time
        0x010023fa:    b510        ..      PUSH     {r4,lr}
        0x010023fc:    4604        .F      MOV      r4,r0
        0x010023fe:    2100        .!      MOVS     r1,#0
        0x01002400:    2004        .       MOVS     r0,#4
        0x01002402:    f7fffaf2    ....    BL       TIM_Cmd ; 0x10019ea
        0x01002406:    2060        `       MOVS     r0,#0x60
        0x01002408:    4621        !F      MOV      r1,r4
        0x0100240a:    4341        AC      MULS     r1,r0,r1
        0x0100240c:    2004        .       MOVS     r0,#4
        0x0100240e:    f7fffb68    ..h.    BL       TIM_SetPeriod ; 0x1001ae2
        0x01002412:    2101        .!      MOVS     r1,#1
        0x01002414:    2004        .       MOVS     r0,#4
        0x01002416:    f7fffae8    ....    BL       TIM_Cmd ; 0x10019ea
        0x0100241a:    2000        .       MOVS     r0,#0
        0x0100241c:    bd10        ..      POP      {r4,pc}
    hal_print_motor_stop
        0x0100241e:    b510        ..      PUSH     {r4,lr}
        0x01002420:    2108        .!      MOVS     r1,#8
        0x01002422:    2000        .       MOVS     r0,#0
        0x01002424:    f7fefb3b    ..;.    BL       GPIO_ResetBits ; 0x1000a9e
        0x01002428:    2101        .!      MOVS     r1,#1
        0x0100242a:    2004        .       MOVS     r0,#4
        0x0100242c:    f7fffadd    ....    BL       TIM_Cmd ; 0x10019ea
        0x01002430:    4873        sH      LDR      r0,[pc,#460] ; [0x1002600] = 0xf0c00
        0x01002432:    2100        .!      MOVS     r1,#0
        0x01002434:    6001        .`      STR      r1,[r0,#0]
        0x01002436:    22ff        ."      MOVS     r2,#0xff
        0x01002438:    32e1        .2      ADDS     r2,r2,#0xe1
        0x0100243a:    6042        B`      STR      r2,[r0,#4]
        0x0100243c:    6081        .`      STR      r1,[r0,#8]
        0x0100243e:    60c2        .`      STR      r2,[r0,#0xc]
        0x01002440:    6101        .a      STR      r1,[r0,#0x10]
        0x01002442:    6142        Ba      STR      r2,[r0,#0x14]
        0x01002444:    6181        .a      STR      r1,[r0,#0x18]
        0x01002446:    61c2        .a      STR      r2,[r0,#0x1c]
        0x01002448:    4608        .F      MOV      r0,r1
        0x0100244a:    bd10        ..      POP      {r4,pc}
    hal_print_temprature
        0x0100244c:    2000        .       MOVS     r0,#0
        0x0100244e:    4770        pG      BX       lr
    hal_print_motor_spwm_init
        0x01002450:    b510        ..      PUSH     {r4,lr}
        0x01002452:    b086        ..      SUB      sp,sp,#0x18
        0x01002454:    2008        .       MOVS     r0,#8
        0x01002456:    4669        iF      MOV      r1,sp
        0x01002458:    8208        ..      STRH     r0,[r1,#0x10]
        0x0100245a:    2005        .       MOVS     r0,#5
        0x0100245c:    7488        .t      STRB     r0,[r1,#0x12]
        0x0100245e:    a904        ..      ADD      r1,sp,#0x10
        0x01002460:    2000        .       MOVS     r0,#0
        0x01002462:    f7fef9aa    ....    BL       GPIO_Init ; 0x10007ba
        0x01002466:    2108        .!      MOVS     r1,#8
        0x01002468:    2000        .       MOVS     r0,#0
        0x0100246a:    f7fefb18    ....    BL       GPIO_ResetBits ; 0x1000a9e
        0x0100246e:    20ff        .       MOVS     r0,#0xff
        0x01002470:    30e1        .0      ADDS     r0,r0,#0xe1
        0x01002472:    2400        .$      MOVS     r4,#0
        0x01002474:    9001        ..      STR      r0,[sp,#4]
        0x01002476:    4669        iF      MOV      r1,sp
        0x01002478:    9402        ..      STR      r4,[sp,#8]
        0x0100247a:    730c        .s      STRB     r4,[r1,#0xc]
        0x0100247c:    2210        ."      MOVS     r2,#0x10
        0x0100247e:    2120         !      MOVS     r1,#0x20
        0x01002480:    4620         F      MOV      r0,r4
        0x01002482:    f7fef951    ..Q.    BL       GPIO_Config ; 0x1000728
        0x01002486:    2211        ."      MOVS     r2,#0x11
        0x01002488:    2110        .!      MOVS     r1,#0x10
        0x0100248a:    2000        .       MOVS     r0,#0
        0x0100248c:    f7fef94c    ..L.    BL       GPIO_Config ; 0x1000728
        0x01002490:    2101        .!      MOVS     r1,#1
        0x01002492:    2212        ."      MOVS     r2,#0x12
        0x01002494:    02c9        ..      LSLS     r1,r1,#11
        0x01002496:    2000        .       MOVS     r0,#0
        0x01002498:    f7fef946    ..F.    BL       GPIO_Config ; 0x1000728
        0x0100249c:    2101        .!      MOVS     r1,#1
        0x0100249e:    2213        ."      MOVS     r2,#0x13
        0x010024a0:    0289        ..      LSLS     r1,r1,#10
        0x010024a2:    2000        .       MOVS     r0,#0
        0x010024a4:    f7fef940    ..@.    BL       GPIO_Config ; 0x1000728
        0x010024a8:    4669        iF      MOV      r1,sp
        0x010024aa:    700c        .p      STRB     r4,[r1,#0]
        0x010024ac:    4668        hF      MOV      r0,sp
        0x010024ae:    f7fffb29    ..).    BL       TIM_PWMInit ; 0x1001b04
        0x010024b2:    2100        .!      MOVS     r1,#0
        0x010024b4:    4608        .F      MOV      r0,r1
        0x010024b6:    f7fffae7    ....    BL       TIM_ModeConfig ; 0x1001a88
        0x010024ba:    2101        .!      MOVS     r1,#1
        0x010024bc:    2000        .       MOVS     r0,#0
        0x010024be:    f7fffa94    ....    BL       TIM_Cmd ; 0x10019ea
        0x010024c2:    2001        .       MOVS     r0,#1
        0x010024c4:    4669        iF      MOV      r1,sp
        0x010024c6:    7008        .p      STRB     r0,[r1,#0]
        0x010024c8:    4668        hF      MOV      r0,sp
        0x010024ca:    f7fffb1b    ....    BL       TIM_PWMInit ; 0x1001b04
        0x010024ce:    2100        .!      MOVS     r1,#0
        0x010024d0:    2001        .       MOVS     r0,#1
        0x010024d2:    f7fffad9    ....    BL       TIM_ModeConfig ; 0x1001a88
        0x010024d6:    2101        .!      MOVS     r1,#1
        0x010024d8:    4608        .F      MOV      r0,r1
        0x010024da:    f7fffa86    ....    BL       TIM_Cmd ; 0x10019ea
        0x010024de:    2002        .       MOVS     r0,#2
        0x010024e0:    4669        iF      MOV      r1,sp
        0x010024e2:    7008        .p      STRB     r0,[r1,#0]
        0x010024e4:    4668        hF      MOV      r0,sp
        0x010024e6:    f7fffb0d    ....    BL       TIM_PWMInit ; 0x1001b04
        0x010024ea:    2100        .!      MOVS     r1,#0
        0x010024ec:    2002        .       MOVS     r0,#2
        0x010024ee:    f7fffacb    ....    BL       TIM_ModeConfig ; 0x1001a88
        0x010024f2:    2101        .!      MOVS     r1,#1
        0x010024f4:    2002        .       MOVS     r0,#2
        0x010024f6:    f7fffa78    ..x.    BL       TIM_Cmd ; 0x10019ea
        0x010024fa:    2003        .       MOVS     r0,#3
        0x010024fc:    4669        iF      MOV      r1,sp
        0x010024fe:    7008        .p      STRB     r0,[r1,#0]
        0x01002500:    4668        hF      MOV      r0,sp
        0x01002502:    f7fffaff    ....    BL       TIM_PWMInit ; 0x1001b04
        0x01002506:    2100        .!      MOVS     r1,#0
        0x01002508:    2003        .       MOVS     r0,#3
        0x0100250a:    f7fffabd    ....    BL       TIM_ModeConfig ; 0x1001a88
        0x0100250e:    2101        .!      MOVS     r1,#1
        0x01002510:    2003        .       MOVS     r0,#3
        0x01002512:    f7fffa6a    ..j.    BL       TIM_Cmd ; 0x10019ea
        0x01002516:    b006        ..      ADD      sp,sp,#0x18
        0x01002518:    bd10        ..      POP      {r4,pc}
    hal_print_init
        0x0100251a:    b51c        ..      PUSH     {r2-r4,lr}
        0x0100251c:    f7ffff98    ....    BL       hal_print_motor_spwm_init ; 0x1002450
        0x01002520:    2060        `       MOVS     r0,#0x60
        0x01002522:    9001        ..      STR      r0,[sp,#4]
        0x01002524:    2004        .       MOVS     r0,#4
        0x01002526:    4669        iF      MOV      r1,sp
        0x01002528:    7008        .p      STRB     r0,[r1,#0]
        0x0100252a:    4668        hF      MOV      r0,sp
        0x0100252c:    f7fffa81    ....    BL       TIM_Init ; 0x1001a32
        0x01002530:    2101        .!      MOVS     r1,#1
        0x01002532:    2004        .       MOVS     r0,#4
        0x01002534:    f7fffaa8    ....    BL       TIM_ModeConfig ; 0x1001a88
        0x01002538:    2100        .!      MOVS     r1,#0
        0x0100253a:    2004        .       MOVS     r0,#4
        0x0100253c:    f7fffa55    ..U.    BL       TIM_Cmd ; 0x10019ea
        0x01002540:    2011        .       MOVS     r0,#0x11
        0x01002542:    f7fdff8d    ....    BL       NVIC_EnableIRQ ; 0x1000460
        0x01002546:    2101        .!      MOVS     r1,#1
        0x01002548:    2011        .       MOVS     r0,#0x11
        0x0100254a:    f7fdff63    ..c.    BL       NVIC_SetPriority ; 0x1000414
        0x0100254e:    f000f80a    ....    BL       hal_print_tp_init ; 0x1002566
        0x01002552:    2000        .       MOVS     r0,#0
        0x01002554:    bd1c        ..      POP      {r2-r4,pc}
    TIMER4_IRQHandler
        0x01002556:    b510        ..      PUSH     {r4,lr}
        0x01002558:    f000fb7a    ..z.    BL       middle_print_motor_spwm_handle ; 0x1002c50
        0x0100255c:    bd10        ..      POP      {r4,pc}
    TIMER5_IRQHandler
        0x0100255e:    b510        ..      PUSH     {r4,lr}
        0x01002560:    f000fbf6    ....    BL       middle_print_heat_haddle ; 0x1002d50
        0x01002564:    bd10        ..      POP      {r4,pc}
    hal_print_tp_init
        0x01002566:    b530        0.      PUSH     {r4,r5,lr}
        0x01002568:    b085        ..      SUB      sp,sp,#0x14
        0x0100256a:    2501        .%      MOVS     r5,#1
        0x0100256c:    03ed        ..      LSLS     r5,r5,#15
        0x0100256e:    466a        jF      MOV      r2,sp
        0x01002570:    8115        ..      STRH     r5,[r2,#8]
        0x01002572:    2405        .$      MOVS     r4,#5
        0x01002574:    7294        .r      STRB     r4,[r2,#0xa]
        0x01002576:    a902        ..      ADD      r1,sp,#8
        0x01002578:    2000        .       MOVS     r0,#0
        0x0100257a:    f7fef91e    ....    BL       GPIO_Init ; 0x10007ba
        0x0100257e:    4629        )F      MOV      r1,r5
        0x01002580:    2000        .       MOVS     r0,#0
        0x01002582:    f7fefaf4    ....    BL       GPIO_SetBits ; 0x1000b6e
        0x01002586:    2504        .%      MOVS     r5,#4
        0x01002588:    466a        jF      MOV      r2,sp
        0x0100258a:    8115        ..      STRH     r5,[r2,#8]
        0x0100258c:    7294        .r      STRB     r4,[r2,#0xa]
        0x0100258e:    a902        ..      ADD      r1,sp,#8
        0x01002590:    2001        .       MOVS     r0,#1
        0x01002592:    f7fef912    ....    BL       GPIO_Init ; 0x10007ba
        0x01002596:    2104        .!      MOVS     r1,#4
        0x01002598:    2001        .       MOVS     r0,#1
        0x0100259a:    f7fefa80    ....    BL       GPIO_ResetBits ; 0x1000a9e
        0x0100259e:    20ff        .       MOVS     r0,#0xff
        0x010025a0:    30e1        .0      ADDS     r0,r0,#0xe1
        0x010025a2:    9004        ..      STR      r0,[sp,#0x10]
        0x010025a4:    466a        jF      MOV      r2,sp
        0x010025a6:    7314        .s      STRB     r4,[r2,#0xc]
        0x010025a8:    a803        ..      ADD      r0,sp,#0xc
        0x010025aa:    f7fffa42    ..B.    BL       TIM_Init ; 0x1001a32
        0x010025ae:    2101        .!      MOVS     r1,#1
        0x010025b0:    2005        .       MOVS     r0,#5
        0x010025b2:    f7fffa69    ..i.    BL       TIM_ModeConfig ; 0x1001a88
        0x010025b6:    2100        .!      MOVS     r1,#0
        0x010025b8:    2005        .       MOVS     r0,#5
        0x010025ba:    f7fffa16    ....    BL       TIM_Cmd ; 0x10019ea
        0x010025be:    2012        .       MOVS     r0,#0x12
        0x010025c0:    f7fdff4e    ..N.    BL       NVIC_EnableIRQ ; 0x1000460
        0x010025c4:    2100        .!      MOVS     r1,#0
        0x010025c6:    2012        .       MOVS     r0,#0x12
        0x010025c8:    f7fdff24    ..$.    BL       NVIC_SetPriority ; 0x1000414
        0x010025cc:    221a        ."      MOVS     r2,#0x1a
        0x010025ce:    2102        .!      MOVS     r1,#2
        0x010025d0:    2001        .       MOVS     r0,#1
        0x010025d2:    f7fef8a9    ....    BL       GPIO_Config ; 0x1000728
        0x010025d6:    2101        .!      MOVS     r1,#1
        0x010025d8:    2219        ."      MOVS     r2,#0x19
        0x010025da:    4608        .F      MOV      r0,r1
        0x010025dc:    f7fef8a4    ....    BL       GPIO_Config ; 0x1000728
        0x010025e0:    2000        .       MOVS     r0,#0
        0x010025e2:    466a        jF      MOV      r2,sp
        0x010025e4:    7010        .p      STRB     r0,[r2,#0]
        0x010025e6:    70d5        .p      STRB     r5,[r2,#3]
        0x010025e8:    7090        .p      STRB     r0,[r2,#2]
        0x010025ea:    7050        Pp      STRB     r0,[r2,#1]
        0x010025ec:    2001        .       MOVS     r0,#1
        0x010025ee:    7110        .q      STRB     r0,[r2,#4]
        0x010025f0:    4669        iF      MOV      r1,sp
        0x010025f2:    f7fffb43    ..C.    BL       SPI_Init ; 0x1001c7c
        0x010025f6:    b005        ..      ADD      sp,sp,#0x14
        0x010025f8:    bd30        0.      POP      {r4,r5,pc}
    $d
        0x010025fa:    0000        ..      DCW    0
        0x010025fc:    000f8900    ....    DCD    1018112
        0x01002600:    000f0c00    ....    DCD    986112
    $t
    .text
    hal_systick_time
        0x01002604:    480b        .H      LDR      r0,[pc,#44] ; [0x1002634] = 0x20028
        0x01002606:    6800        .h      LDR      r0,[r0,#0]
        0x01002608:    4770        pG      BX       lr
    hal_systick_delay
        0x0100260a:    480a        .H      LDR      r0,[pc,#40] ; [0x1002634] = 0x20028
        0x0100260c:    6801        .h      LDR      r1,[r0,#0]
        0x0100260e:    227d        }"      MOVS     r2,#0x7d
        0x01002610:    00d2        ..      LSLS     r2,r2,#3
        0x01002612:    6803        .h      LDR      r3,[r0,#0]
        0x01002614:    1a5b        [.      SUBS     r3,r3,r1
        0x01002616:    4293        .B      CMP      r3,r2
        0x01002618:    d3fb        ..      BCC      0x1002612 ; hal_systick_delay + 8
        0x0100261a:    2000        .       MOVS     r0,#0
        0x0100261c:    4770        pG      BX       lr
    hal_systick_init
        0x0100261e:    b510        ..      PUSH     {r4,lr}
        0x01002620:    4805        .H      LDR      r0,[pc,#20] ; [0x1002638] = 0xb71b00
        0x01002622:    f7feff67    ..g.    BL       SysTick_Config ; 0x10014f4
        0x01002626:    2000        .       MOVS     r0,#0
        0x01002628:    bd10        ..      POP      {r4,pc}
    SYSTICK_IRQHandler
        0x0100262a:    4802        .H      LDR      r0,[pc,#8] ; [0x1002634] = 0x20028
        0x0100262c:    6801        .h      LDR      r1,[r0,#0]
        0x0100262e:    1c49        I.      ADDS     r1,r1,#1
        0x01002630:    6001        .`      STR      r1,[r0,#0]
        0x01002632:    4770        pG      BX       lr
    $d
        0x01002634:    00020028    (...    DCD    131112
        0x01002638:    00b71b00    ....    DCD    12000000
    $t
    .text
    hal_adc_init
        0x0100263c:    b508        ..      PUSH     {r3,lr}
        0x0100263e:    2101        .!      MOVS     r1,#1
        0x01002640:    22c0        ."      MOVS     r2,#0xc0
        0x01002642:    0289        ..      LSLS     r1,r1,#10
        0x01002644:    2002        .       MOVS     r0,#2
        0x01002646:    f7fef86f    ..o.    BL       GPIO_Config ; 0x1000728
        0x0100264a:    2006        .       MOVS     r0,#6
        0x0100264c:    4669        iF      MOV      r1,sp
        0x0100264e:    7008        .p      STRB     r0,[r1,#0]
        0x01002650:    2000        .       MOVS     r0,#0
        0x01002652:    7048        Hp      STRB     r0,[r1,#1]
        0x01002654:    4668        hF      MOV      r0,sp
        0x01002656:    f7feffd9    ....    BL       ADC_Init ; 0x100160c
        0x0100265a:    2000        .       MOVS     r0,#0
        0x0100265c:    bd08        ..      POP      {r3,pc}
        0x0100265e:    0000        ..      MOVS     r0,r0
    .text
    hal_time_period_execute_register
        0x01002660:    4911        .I      LDR      r1,[pc,#68] ; [0x10026a8] = 0x2002c
        0x01002662:    6008        .`      STR      r0,[r1,#0]
        0x01002664:    2000        .       MOVS     r0,#0
        0x01002666:    4770        pG      BX       lr
    hal_time_init
        0x01002668:    b51c        ..      PUSH     {r2-r4,lr}
        0x0100266a:    4810        .H      LDR      r0,[pc,#64] ; [0x10026ac] = 0xbb80
        0x0100266c:    9001        ..      STR      r0,[sp,#4]
        0x0100266e:    2006        .       MOVS     r0,#6
        0x01002670:    4669        iF      MOV      r1,sp
        0x01002672:    7008        .p      STRB     r0,[r1,#0]
        0x01002674:    4668        hF      MOV      r0,sp
        0x01002676:    f7fff9dc    ....    BL       TIM_Init ; 0x1001a32
        0x0100267a:    2101        .!      MOVS     r1,#1
        0x0100267c:    2006        .       MOVS     r0,#6
        0x0100267e:    f7fffa03    ....    BL       TIM_ModeConfig ; 0x1001a88
        0x01002682:    2101        .!      MOVS     r1,#1
        0x01002684:    2006        .       MOVS     r0,#6
        0x01002686:    f7fff9b0    ....    BL       TIM_Cmd ; 0x10019ea
        0x0100268a:    2013        .       MOVS     r0,#0x13
        0x0100268c:    f7fdfee8    ....    BL       NVIC_EnableIRQ ; 0x1000460
        0x01002690:    2104        .!      MOVS     r1,#4
        0x01002692:    2013        .       MOVS     r0,#0x13
        0x01002694:    f7fdfebe    ....    BL       NVIC_SetPriority ; 0x1000414
        0x01002698:    2000        .       MOVS     r0,#0
        0x0100269a:    bd1c        ..      POP      {r2-r4,pc}
    TIMER6_IRQHandler
        0x0100269c:    4802        .H      LDR      r0,[pc,#8] ; [0x10026a8] = 0x2002c
        0x0100269e:    6800        .h      LDR      r0,[r0,#0]
        0x010026a0:    2800        .(      CMP      r0,#0
        0x010026a2:    d000        ..      BEQ      0x10026a6 ; TIMER6_IRQHandler + 10
        0x010026a4:    4700        .G      BX       r0
        0x010026a6:    4770        pG      BX       lr
    $d
        0x010026a8:    0002002c    ,...    DCD    131116
        0x010026ac:    0000bb80    ....    DCD    48000
    $t
    .text
    hal_button_progress
        0x010026b0:    b570        p.      PUSH     {r4-r6,lr}
        0x010026b2:    4c0f        .L      LDR      r4,[pc,#60] ; [0x10026f0] = 0x20030
        0x010026b4:    2501        .%      MOVS     r5,#1
        0x010026b6:    6820         h      LDR      r0,[r4,#0]
        0x010026b8:    2800        .(      CMP      r0,#0
        0x010026ba:    d00b        ..      BEQ      0x10026d4 ; hal_button_progress + 36
        0x010026bc:    1c40        @.      ADDS     r0,r0,#1
        0x010026be:    6020         `      STR      r0,[r4,#0]
        0x010026c0:    2864        d(      CMP      r0,#0x64
        0x010026c2:    dd0c        ..      BLE      0x10026de ; hal_button_progress + 46
        0x010026c4:    2000        .       MOVS     r0,#0
        0x010026c6:    6020         `      STR      r0,[r4,#0]
        0x010026c8:    f7fffe08    ....    BL       Power_Keyscan ; 0x10022dc
        0x010026cc:    2800        .(      CMP      r0,#0
        0x010026ce:    d006        ..      BEQ      0x10026de ; hal_button_progress + 46
        0x010026d0:    6065        e`      STR      r5,[r4,#4]
        0x010026d2:    e004        ..      B        0x10026de ; hal_button_progress + 46
        0x010026d4:    f7fffe02    ....    BL       Power_Keyscan ; 0x10022dc
        0x010026d8:    2800        .(      CMP      r0,#0
        0x010026da:    d000        ..      BEQ      0x10026de ; hal_button_progress + 46
        0x010026dc:    6025        %`      STR      r5,[r4,#0]
        0x010026de:    2000        .       MOVS     r0,#0
        0x010026e0:    bd70        p.      POP      {r4-r6,pc}
    hal_button_value
        0x010026e2:    4903        .I      LDR      r1,[pc,#12] ; [0x10026f0] = 0x20030
        0x010026e4:    2200        ."      MOVS     r2,#0
        0x010026e6:    6848        Hh      LDR      r0,[r1,#4]
        0x010026e8:    604a        J`      STR      r2,[r1,#4]
        0x010026ea:    4770        pG      BX       lr
    hal_button_init
        0x010026ec:    2000        .       MOVS     r0,#0
        0x010026ee:    4770        pG      BX       lr
    $d
        0x010026f0:    00020030    0...    DCD    131120
    $t
    .text
    hal_led_init
        0x010026f4:    b508        ..      PUSH     {r3,lr}
        0x010026f6:    2080        .       MOVS     r0,#0x80
        0x010026f8:    4669        iF      MOV      r1,sp
        0x010026fa:    8008        ..      STRH     r0,[r1,#0]
        0x010026fc:    2005        .       MOVS     r0,#5
        0x010026fe:    7088        .p      STRB     r0,[r1,#2]
        0x01002700:    2002        .       MOVS     r0,#2
        0x01002702:    f7fef85a    ..Z.    BL       GPIO_Init ; 0x10007ba
        0x01002706:    2180        .!      MOVS     r1,#0x80
        0x01002708:    2002        .       MOVS     r0,#2
        0x0100270a:    f7fefa30    ..0.    BL       GPIO_SetBits ; 0x1000b6e
        0x0100270e:    2000        .       MOVS     r0,#0
        0x01002710:    bd08        ..      POP      {r3,pc}
        0x01002712:    0000        ..      MOVS     r0,r0
    .text
    hal_init
        0x01002714:    b510        ..      PUSH     {r4,lr}
        0x01002716:    2000        .       MOVS     r0,#0
        0x01002718:    f7fff8ef    ....    BL       SYSCTRL_HCLKConfig ; 0x10018fa
        0x0100271c:    f7ffff7f    ....    BL       hal_systick_init ; 0x100261e
        0x01002720:    f7fffe1b    ....    BL       hal_log_init ; 0x100235a
        0x01002724:    a007        ..      ADR      r0,{pc}+0x20 ; 0x1002744
        0x01002726:    f7fffdf7    ....    BL       hal_log_printf ; 0x1002318
        0x0100272a:    f7ffffe3    ....    BL       hal_led_init ; 0x10026f4
        0x0100272e:    f7fffef4    ....    BL       hal_print_init ; 0x100251a
        0x01002732:    f7ffff83    ....    BL       hal_adc_init ; 0x100263c
        0x01002736:    f7ffffd9    ....    BL       hal_button_init ; 0x10026ec
        0x0100273a:    f7ffff95    ....    BL       hal_time_init ; 0x1002668
        0x0100273e:    2000        .       MOVS     r0,#0
        0x01002740:    bd10        ..      POP      {r4,pc}
    $d
        0x01002742:    0000        ..      DCW    0
        0x01002744:    6f6c6168    halo    DCD    1869373800
        0x01002748:    69727020     pri    DCD    1769107488
        0x0100274c:    7265746e    nter    DCD    1919251566
        0x01002750:    2e2e2e20     ...    DCD    774778400
        0x01002754:    00000a0d    ....    DCD    2573
    $t
    .text
    lpm_read
        0x01002758:    498b        .I      LDR      r1,[pc,#556] ; [0x1002988] = 0x4c81
        0x0100275a:    4708        .G      BX       r1
    lpm_write
        0x0100275c:    4a8a        .J      LDR      r2,[pc,#552] ; [0x1002988] = 0x4c81
        0x0100275e:    321c        .2      ADDS     r2,r2,#0x1c
        0x01002760:    4710        .G      BX       r2
    lpm_bt_write
        0x01002762:    b5f8        ..      PUSH     {r3-r7,lr}
        0x01002764:    4607        .F      MOV      r7,r0
        0x01002766:    4889        .H      LDR      r0,[pc,#548] ; [0x100298c] = 0xf8540
        0x01002768:    460c        .F      MOV      r4,r1
        0x0100276a:    6ac1        .j      LDR      r1,[r0,#0x2c]
        0x0100276c:    2601        .&      MOVS     r6,#1
        0x0100276e:    0372        r.      LSLS     r2,r6,#13
        0x01002770:    4391        .C      BICS     r1,r1,r2
        0x01002772:    62c1        .b      STR      r1,[r0,#0x2c]
        0x01002774:    4d86        .M      LDR      r5,[pc,#536] ; [0x1002990] = 0xc8040
        0x01002776:    732c        ,s      STRB     r4,[r5,#0xc]
        0x01002778:    200a        .       MOVS     r0,#0xa
        0x0100277a:    f000ff87    ....    BL       $Ven$TT$L$$delay ; 0x100368c
        0x0100277e:    0a20         .      LSRS     r0,r4,#8
        0x01002780:    7368        hs      STRB     r0,[r5,#0xd]
        0x01002782:    200a        .       MOVS     r0,#0xa
        0x01002784:    f000ff82    ....    BL       $Ven$TT$L$$delay ; 0x100368c
        0x01002788:    0c20         .      LSRS     r0,r4,#16
        0x0100278a:    73a8        .s      STRB     r0,[r5,#0xe]
        0x0100278c:    200a        .       MOVS     r0,#0xa
        0x0100278e:    f000ff7d    ..}.    BL       $Ven$TT$L$$delay ; 0x100368c
        0x01002792:    0e20         .      LSRS     r0,r4,#24
        0x01002794:    73e8        .s      STRB     r0,[r5,#0xf]
        0x01002796:    200a        .       MOVS     r0,#0xa
        0x01002798:    f000ff78    ..x.    BL       $Ven$TT$L$$delay ; 0x100368c
        0x0100279c:    40be        .@      LSLS     r6,r6,r7
        0x0100279e:    2019        .       MOVS     r0,#0x19
        0x010027a0:    03c0        ..      LSLS     r0,r0,#15
        0x010027a2:    7146        Fq      STRB     r6,[r0,#5]
        0x010027a4:    bdf8        ..      POP      {r3-r7,pc}
    lpm_bt_read
        0x010027a6:    4978        xI      LDR      r1,[pc,#480] ; [0x1002988] = 0x4c81
        0x010027a8:    b510        ..      PUSH     {r4,lr}
        0x010027aa:    31a4        .1      ADDS     r1,r1,#0xa4
        0x010027ac:    2802        .(      CMP      r0,#2
        0x010027ae:    d003        ..      BEQ      0x10027b8 ; lpm_bt_read + 18
        0x010027b0:    2803        .(      CMP      r0,#3
        0x010027b2:    d001        ..      BEQ      0x10027b8 ; lpm_bt_read + 18
        0x010027b4:    4788        .G      BLX      r1
        0x010027b6:    bd10        ..      POP      {r4,pc}
        0x010027b8:    4788        .G      BLX      r1
        0x010027ba:    0880        ..      LSRS     r0,r0,#2
        0x010027bc:    bd10        ..      POP      {r4,pc}
    lpm_sleep
        0x010027be:    4872        rH      LDR      r0,[pc,#456] ; [0x1002988] = 0x4c81
        0x010027c0:    30e8        .0      ADDS     r0,r0,#0xe8
        0x010027c2:    4700        .G      BX       r0
    setlpmval
        0x010027c4:    b430        0.      PUSH     {r4,r5}
        0x010027c6:    4c73        sL      LDR      r4,[pc,#460] ; [0x1002994] = 0x4281
        0x010027c8:    46a4        .F      MOV      r12,r4
        0x010027ca:    bc30        0.      POP      {r4,r5}
        0x010027cc:    4760        `G      BX       r12
    readlpmval
        0x010027ce:    b510        ..      PUSH     {r4,lr}
        0x010027d0:    460c        .F      MOV      r4,r1
        0x010027d2:    2a20         *      CMP      r2,#0x20
        0x010027d4:    d002        ..      BEQ      0x10027dc ; readlpmval + 14
        0x010027d6:    f7ffffbf    ....    BL       lpm_read ; 0x1002758
        0x010027da:    bd10        ..      POP      {r4,pc}
        0x010027dc:    f7ffffbc    ....    BL       lpm_read ; 0x1002758
        0x010027e0:    40e0        .@      LSRS     r0,r0,r4
        0x010027e2:    bd10        ..      POP      {r4,pc}
    GPIO_Unused_Pd
        0x010027e4:    b510        ..      PUSH     {r4,lr}
        0x010027e6:    2100        .!      MOVS     r1,#0
        0x010027e8:    4a6b        kJ      LDR      r2,[pc,#428] ; [0x1002998] = 0xf8700
        0x010027ea:    2480        .$      MOVS     r4,#0x80
        0x010027ec:    1888        ..      ADDS     r0,r1,r2
        0x010027ee:    7803        .x      LDRB     r3,[r0,#0]
        0x010027f0:    2b00        .+      CMP      r3,#0
        0x010027f2:    d005        ..      BEQ      0x1002800 ; GPIO_Unused_Pd + 28
        0x010027f4:    7803        .x      LDRB     r3,[r0,#0]
        0x010027f6:    2b04        .+      CMP      r3,#4
        0x010027f8:    d002        ..      BEQ      0x1002800 ; GPIO_Unused_Pd + 28
        0x010027fa:    7803        .x      LDRB     r3,[r0,#0]
        0x010027fc:    2b05        .+      CMP      r3,#5
        0x010027fe:    d102        ..      BNE      0x1002806 ; GPIO_Unused_Pd + 34
        0x01002800:    7803        .x      LDRB     r3,[r0,#0]
        0x01002802:    4323        #C      ORRS     r3,r3,r4
        0x01002804:    7003        .p      STRB     r3,[r0,#0]
        0x01002806:    1c49        I.      ADDS     r1,r1,#1
        0x01002808:    2930        0)      CMP      r1,#0x30
        0x0100280a:    dbef        ..      BLT      0x10027ec ; GPIO_Unused_Pd + 8
        0x0100280c:    bd10        ..      POP      {r4,pc}
    BT_Hibernate
        0x0100280e:    b51c        ..      PUSH     {r2-r4,lr}
        0x01002810:    4862        bH      LDR      r0,[pc,#392] ; [0x100299c] = 0x2001c
        0x01002812:    2400        .$      MOVS     r4,#0
        0x01002814:    7004        .p      STRB     r4,[r0,#0]
        0x01002816:    20ff        .       MOVS     r0,#0xff
        0x01002818:    2202        ."      MOVS     r2,#2
        0x0100281a:    4961        aI      LDR      r1,[pc,#388] ; [0x10029a0] = 0x20038
        0x0100281c:    303f        ?0      ADDS     r0,r0,#0x3f
        0x0100281e:    f7fffaeb    ....    BL       read_otp ; 0x1001df8
        0x01002822:    495f        _I      LDR      r1,[pc,#380] ; [0x10029a0] = 0x20038
        0x01002824:    6808        .h      LDR      r0,[r1,#0]
        0x01002826:    2800        .(      CMP      r0,#0
        0x01002828:    d101        ..      BNE      0x100282e ; BT_Hibernate + 32
        0x0100282a:    2001        .       MOVS     r0,#1
        0x0100282c:    03c0        ..      LSLS     r0,r0,#15
        0x0100282e:    6008        .`      STR      r0,[r1,#0]
        0x01002830:    4857        WH      LDR      r0,[pc,#348] ; [0x1002990] = 0xc8040
        0x01002832:    78c1        .x      LDRB     r1,[r0,#3]
        0x01002834:    0649        I.      LSLS     r1,r1,#25
        0x01002836:    0e49        I.      LSRS     r1,r1,#25
        0x01002838:    70c1        .p      STRB     r1,[r0,#3]
        0x0100283a:    200b        .       MOVS     r0,#0xb
        0x0100283c:    f7fdfe17    ....    BL       NVIC_DisableIRQ ; 0x100046e
        0x01002840:    4952        RI      LDR      r1,[pc,#328] ; [0x100298c] = 0xf8540
        0x01002842:    2090        .       MOVS     r0,#0x90
        0x01002844:    3920         9      SUBS     r1,r1,#0x20
        0x01002846:    7708        .w      STRB     r0,[r1,#0x1c]
        0x01002848:    2001        .       MOVS     r0,#1
        0x0100284a:    4669        iF      MOV      r1,sp
        0x0100284c:    7008        .p      STRB     r0,[r1,#0]
        0x0100284e:    2027        '       MOVS     r0,#0x27
        0x01002850:    7048        Hp      STRB     r0,[r1,#1]
        0x01002852:    708c        .p      STRB     r4,[r1,#2]
        0x01002854:    4668        hF      MOV      r0,sp
        0x01002856:    f7fffb14    ....    BL       IPC_TxData ; 0x1001e82
        0x0100285a:    4852        RH      LDR      r0,[pc,#328] ; [0x10029a4] = 0x2710
        0x0100285c:    f000ff16    ....    BL       $Ven$TT$L$$delay ; 0x100368c
        0x01002860:    bd1c        ..      POP      {r2-r4,pc}
    Chip_Speedstep
        0x01002862:    b510        ..      PUSH     {r4,lr}
        0x01002864:    200e        .       MOVS     r0,#0xe
        0x01002866:    f7fff848    ..H.    BL       SYSCTRL_HCLKConfig ; 0x10018fa
        0x0100286a:    bd10        ..      POP      {r4,pc}
    CM0_Sleep
        0x0100286c:    b5ff        ..      PUSH     {r0-r7,lr}
        0x0100286e:    460c        .F      MOV      r4,r1
        0x01002870:    4605        .F      MOV      r5,r0
        0x01002872:    b081        ..      SUB      sp,sp,#4
        0x01002874:    461f        .F      MOV      r7,r3
        0x01002876:    2100        .!      MOVS     r1,#0
        0x01002878:    484b        KH      LDR      r0,[pc,#300] ; [0x10029a8] = 0x757fe
        0x0100287a:    f7fff811    ....    BL       SYSCTRL_AHBPeriphClockCmd ; 0x10018a0
        0x0100287e:    4e4b        KN      LDR      r6,[pc,#300] ; [0x10029ac] = 0xf8414
        0x01002880:    2300        .#      MOVS     r3,#0
        0x01002882:    2201        ."      MOVS     r2,#1
        0x01002884:    2111        .!      MOVS     r1,#0x11
        0x01002886:    4630        0F      MOV      r0,r6
        0x01002888:    f7ffff9c    ....    BL       setlpmval ; 0x10027c4
        0x0100288c:    2f00        ./      CMP      r7,#0
        0x0100288e:    d001        ..      BEQ      0x1002894 ; CM0_Sleep + 40
        0x01002890:    2301        .#      MOVS     r3,#1
        0x01002892:    e000        ..      B        0x1002896 ; CM0_Sleep + 42
        0x01002894:    2300        .#      MOVS     r3,#0
        0x01002896:    2201        ."      MOVS     r2,#1
        0x01002898:    2112        .!      MOVS     r1,#0x12
        0x0100289a:    4630        0F      MOV      r0,r6
        0x0100289c:    f7ffff92    ....    BL       setlpmval ; 0x10027c4
        0x010028a0:    2f00        ./      CMP      r7,#0
        0x010028a2:    d001        ..      BEQ      0x10028a8 ; CM0_Sleep + 60
        0x010028a4:    2240        @"      MOVS     r2,#0x40
        0x010028a6:    e000        ..      B        0x10028aa ; CM0_Sleep + 62
        0x010028a8:    2280        ."      MOVS     r2,#0x80
        0x010028aa:    4620         F      MOV      r0,r4
        0x010028ac:    9903        ..      LDR      r1,[sp,#0xc]
        0x010028ae:    f7fdff3b    ..;.    BL       GPIO_Config ; 0x1000728
        0x010028b2:    483e        >H      LDR      r0,[pc,#248] ; [0x10029ac] = 0xf8414
        0x010028b4:    1f00        ..      SUBS     r0,r0,#4
        0x010028b6:    2c00        .,      CMP      r4,#0
        0x010028b8:    d038        8.      BEQ      0x100292c ; CM0_Sleep + 192
        0x010028ba:    2c01        .,      CMP      r4,#1
        0x010028bc:    d03a        :.      BEQ      0x1002934 ; CM0_Sleep + 200
        0x010028be:    2c02        .,      CMP      r4,#2
        0x010028c0:    d03c        <.      BEQ      0x100293c ; CM0_Sleep + 208
        0x010028c2:    2300        .#      MOVS     r3,#0
        0x010028c4:    2220         "      MOVS     r2,#0x20
        0x010028c6:    4619        .F      MOV      r1,r3
        0x010028c8:    f7ffff7c    ..|.    BL       setlpmval ; 0x10027c4
        0x010028cc:    2300        .#      MOVS     r3,#0
        0x010028ce:    2210        ."      MOVS     r2,#0x10
        0x010028d0:    2100        .!      MOVS     r1,#0
        0x010028d2:    4630        0F      MOV      r0,r6
        0x010028d4:    f7ffff76    ..v.    BL       setlpmval ; 0x10027c4
        0x010028d8:    4831        1H      LDR      r0,[pc,#196] ; [0x10029a0] = 0x20038
        0x010028da:    6800        .h      LDR      r0,[r0,#0]
        0x010028dc:    2800        .(      CMP      r0,#0
        0x010028de:    d02f        /.      BEQ      0x1002940 ; CM0_Sleep + 212
        0x010028e0:    2101        .!      MOVS     r1,#1
        0x010028e2:    07c9        ..      LSLS     r1,r1,#31
        0x010028e4:    4308        .C      ORRS     r0,r0,r1
        0x010028e6:    4604        .F      MOV      r4,r0
        0x010028e8:    9000        ..      STR      r0,[sp,#0]
        0x010028ea:    2d00        .-      CMP      r5,#0
        0x010028ec:    d01a        ..      BEQ      0x1002924 ; CM0_Sleep + 184
        0x010028ee:    482f        /H      LDR      r0,[pc,#188] ; [0x10029ac] = 0xf8414
        0x010028f0:    4623        #F      MOV      r3,r4
        0x010028f2:    2210        ."      MOVS     r2,#0x10
        0x010028f4:    2100        .!      MOVS     r1,#0
        0x010028f6:    3808        .8      SUBS     r0,r0,#8
        0x010028f8:    f7ffff64    ..d.    BL       setlpmval ; 0x10027c4
        0x010028fc:    482b        +H      LDR      r0,[pc,#172] ; [0x10029ac] = 0xf8414
        0x010028fe:    462b        +F      MOV      r3,r5
        0x01002900:    2220         "      MOVS     r2,#0x20
        0x01002902:    2100        .!      MOVS     r1,#0
        0x01002904:    380c        .8      SUBS     r0,r0,#0xc
        0x01002906:    f7ffff5d    ..].    BL       setlpmval ; 0x10027c4
        0x0100290a:    4828        (H      LDR      r0,[pc,#160] ; [0x10029ac] = 0xf8414
        0x0100290c:    2300        .#      MOVS     r3,#0
        0x0100290e:    2220         "      MOVS     r2,#0x20
        0x01002910:    4619        .F      MOV      r1,r3
        0x01002912:    3068        h0      ADDS     r0,r0,#0x68
        0x01002914:    f7ffff56    ..V.    BL       setlpmval ; 0x10027c4
        0x01002918:    2301        .#      MOVS     r3,#1
        0x0100291a:    461a        .F      MOV      r2,r3
        0x0100291c:    2111        .!      MOVS     r1,#0x11
        0x0100291e:    4630        0F      MOV      r0,r6
        0x01002920:    f7ffff50    ..P.    BL       setlpmval ; 0x10027c4
        0x01002924:    980a        ..      LDR      r0,[sp,#0x28]
        0x01002926:    2801        .(      CMP      r0,#1
        0x01002928:    d018        ..      BEQ      0x100295c ; CM0_Sleep + 240
        0x0100292a:    e01b        ..      B        0x1002964 ; CM0_Sleep + 248
        0x0100292c:    2210        ."      MOVS     r2,#0x10
        0x0100292e:    2100        .!      MOVS     r1,#0
        0x01002930:    9b03        ..      LDR      r3,[sp,#0xc]
        0x01002932:    e7cf        ..      B        0x10028d4 ; CM0_Sleep + 104
        0x01002934:    2210        ."      MOVS     r2,#0x10
        0x01002936:    4611        .F      MOV      r1,r2
        0x01002938:    9b03        ..      LDR      r3,[sp,#0xc]
        0x0100293a:    e7cb        ..      B        0x10028d4 ; CM0_Sleep + 104
        0x0100293c:    9b03        ..      LDR      r3,[sp,#0xc]
        0x0100293e:    e7c6        ..      B        0x10028ce ; CM0_Sleep + 98
        0x01002940:    20ff        .       MOVS     r0,#0xff
        0x01002942:    2202        ."      MOVS     r2,#2
        0x01002944:    4669        iF      MOV      r1,sp
        0x01002946:    303f        ?0      ADDS     r0,r0,#0x3f
        0x01002948:    f7fffa56    ..V.    BL       read_otp ; 0x1001df8
        0x0100294c:    9800        ..      LDR      r0,[sp,#0]
        0x0100294e:    2800        .(      CMP      r0,#0
        0x01002950:    d101        ..      BNE      0x1002956 ; CM0_Sleep + 234
        0x01002952:    2001        .       MOVS     r0,#1
        0x01002954:    03c0        ..      LSLS     r0,r0,#15
        0x01002956:    0040        @.      LSLS     r0,r0,#1
        0x01002958:    0840        @.      LSRS     r0,r0,#1
        0x0100295a:    e7c4        ..      B        0x10028e6 ; CM0_Sleep + 122
        0x0100295c:    2c00        .,      CMP      r4,#0
        0x0100295e:    db01        ..      BLT      0x1002964 ; CM0_Sleep + 248
        0x01002960:    f7ffff55    ..U.    BL       BT_Hibernate ; 0x100280e
        0x01002964:    4808        .H      LDR      r0,[pc,#32] ; [0x1002988] = 0x4c81
        0x01002966:    30e8        .0      ADDS     r0,r0,#0xe8
        0x01002968:    4780        .G      BLX      r0
        0x0100296a:    b005        ..      ADD      sp,sp,#0x14
        0x0100296c:    bdf0        ..      POP      {r4-r7,pc}
    enable_gpio_32
        0x0100296e:    b510        ..      PUSH     {r4,lr}
        0x01002970:    2001        .       MOVS     r0,#1
        0x01002972:    f7ffff18    ....    BL       lpm_bt_read ; 0x10027a6
        0x01002976:    2101        .!      MOVS     r1,#1
        0x01002978:    0449        I.      LSLS     r1,r1,#17
        0x0100297a:    4388        .C      BICS     r0,r0,r1
        0x0100297c:    4601        .F      MOV      r1,r0
        0x0100297e:    2001        .       MOVS     r0,#1
        0x01002980:    f7fffeef    ....    BL       lpm_bt_write ; 0x1002762
        0x01002984:    bd10        ..      POP      {r4,pc}
    $d
        0x01002986:    0000        ..      DCW    0
        0x01002988:    00004c81    .L..    DCD    19585
        0x0100298c:    000f8540    @...    DCD    1017152
        0x01002990:    000c8040    @...    DCD    819264
        0x01002994:    00004281    .B..    DCD    17025
        0x01002998:    000f8700    ....    DCD    1017600
        0x0100299c:    0002001c    ....    DCD    131100
        0x010029a0:    00020038    8...    DCD    131128
        0x010029a4:    00002710    .'..    DCD    10000
        0x010029a8:    000757fe    .W..    DCD    481278
        0x010029ac:    000f8414    ....    DCD    1016852
    $t
    .text
    middle_print_line_data_parse
        0x010029b0:    b5f3        ..      PUSH     {r0,r1,r4-r7,lr}
        0x010029b2:    4604        .F      MOV      r4,r0
        0x010029b4:    2000        .       MOVS     r0,#0
        0x010029b6:    4a92        .J      LDR      r2,[pc,#584] ; [0x1002c00] = 0x1004cc7
        0x010029b8:    b083        ..      SUB      sp,sp,#0xc
        0x010029ba:    4601        .F      MOV      r1,r0
        0x010029bc:    9b04        ..      LDR      r3,[sp,#0x10]
        0x010029be:    5c1b        .\      LDRB     r3,[r3,r0]
        0x010029c0:    1c40        @.      ADDS     r0,r0,#1
        0x010029c2:    5cd3        .\      LDRB     r3,[r2,r3]
        0x010029c4:    b280        ..      UXTH     r0,r0
        0x010029c6:    1859        Y.      ADDS     r1,r3,r1
        0x010029c8:    2848        H(      CMP      r0,#0x48
        0x010029ca:    d3f7        ..      BCC      0x10029bc ; middle_print_line_data_parse + 12
        0x010029cc:    223f        ?"      MOVS     r2,#0x3f
        0x010029ce:    0288        ..      LSLS     r0,r1,#10
        0x010029d0:    0292        ..      LSLS     r2,r2,#10
        0x010029d2:    1880        ..      ADDS     r0,r0,r2
        0x010029d4:    0c06        ..      LSRS     r6,r0,#16
        0x010029d6:    d100        ..      BNE      0x10029da ; middle_print_line_data_parse + 42
        0x010029d8:    2601        .&      MOVS     r6,#1
        0x010029da:    1988        ..      ADDS     r0,r1,r6
        0x010029dc:    4631        1F      MOV      r1,r6
        0x010029de:    1e40        @.      SUBS     r0,r0,#1
        0x010029e0:    f000fb60    ..`.    BL       __aeabi_uidiv ; 0x10030a4
        0x010029e4:    b287        ..      UXTH     r7,r0
        0x010029e6:    2000        .       MOVS     r0,#0
        0x010029e8:    8020         .      STRH     r0,[r4,#0]
        0x010029ea:    4669        iF      MOV      r1,sp
        0x010029ec:    8088        ..      STRH     r0,[r1,#4]
        0x010029ee:    4605        .F      MOV      r5,r0
        0x010029f0:    e014        ..      B        0x1002a1c ; middle_print_line_data_parse + 108
        0x010029f2:    2148        H!      MOVS     r1,#0x48
        0x010029f4:    2001        .       MOVS     r0,#1
        0x010029f6:    f000fa9f    ....    BL       middle_mmu_alloc ; 0x1002f38
        0x010029fa:    00a9        ..      LSLS     r1,r5,#2
        0x010029fc:    1909        ..      ADDS     r1,r1,r4
        0x010029fe:    6048        H`      STR      r0,[r1,#4]
        0x01002a00:    2800        .(      CMP      r0,#0
        0x01002a02:    d029        ).      BEQ      0x1002a58 ; middle_print_line_data_parse + 168
        0x01002a04:    4601        .F      MOV      r1,r0
        0x01002a06:    ab01        ..      ADD      r3,sp,#4
        0x01002a08:    2248        H"      MOVS     r2,#0x48
        0x01002a0a:    9700        ..      STR      r7,[sp,#0]
        0x01002a0c:    9804        ..      LDR      r0,[sp,#0x10]
        0x01002a0e:    f000f8b3    ....    BL       middle_print_line_data_slice ; 0x1002b78
        0x01002a12:    8820         .      LDRH     r0,[r4,#0]
        0x01002a14:    1c40        @.      ADDS     r0,r0,#1
        0x01002a16:    1c6d        m.      ADDS     r5,r5,#1
        0x01002a18:    8020         .      STRH     r0,[r4,#0]
        0x01002a1a:    b2ad        ..      UXTH     r5,r5
        0x01002a1c:    42b5        .B      CMP      r5,r6
        0x01002a1e:    d3e8        ..      BCC      0x10029f2 ; middle_print_line_data_parse + 66
        0x01002a20:    4878        xH      LDR      r0,[pc,#480] ; [0x1002c04] = 0x11f8
        0x01002a22:    8067        g.      STRH     r7,[r4,#2]
        0x01002a24:    2573        s%      MOVS     r5,#0x73
        0x01002a26:    4347        GC      MULS     r7,r0,r7
        0x01002a28:    2105        .!      MOVS     r1,#5
        0x01002a2a:    016d        m.      LSLS     r5,r5,#5
        0x01002a2c:    00b8        ..      LSLS     r0,r7,#2
        0x01002a2e:    01c9        ..      LSLS     r1,r1,#7
        0x01002a30:    f000fb4e    ..N.    BL       __aeabi_idiv ; 0x10030d0
        0x01002a34:    00b1        ..      LSLS     r1,r6,#2
        0x01002a36:    1828        (.      ADDS     r0,r5,r0
        0x01002a38:    3160        `1      ADDS     r1,r1,#0x60
        0x01002a3a:    4348        HC      MULS     r0,r1,r0
        0x01002a3c:    2164        d!      MOVS     r1,#0x64
        0x01002a3e:    f000fb47    ..G.    BL       __aeabi_idiv ; 0x10030d0
        0x01002a42:    210c        .!      MOVS     r1,#0xc
        0x01002a44:    62a0        .b      STR      r0,[r4,#0x28]
        0x01002a46:    f000fb2d    ..-.    BL       __aeabi_uidiv ; 0x10030a4
        0x01002a4a:    217d        }!      MOVS     r1,#0x7d
        0x01002a4c:    0109        ..      LSLS     r1,r1,#4
        0x01002a4e:    1840        @.      ADDS     r0,r0,r1
        0x01002a50:    62e0        .b      STR      r0,[r4,#0x2c]
        0x01002a52:    2000        .       MOVS     r0,#0
        0x01002a54:    b005        ..      ADD      sp,sp,#0x14
        0x01002a56:    bdf0        ..      POP      {r4-r7,pc}
        0x01002a58:    a06b        k.      ADR      r0,{pc}+0x1b0 ; 0x1002c08
        0x01002a5a:    f000fe1d    ....    BL       __0printf ; 0x1003698
        0x01002a5e:    2000        .       MOVS     r0,#0
        0x01002a60:    43c0        .C      MVNS     r0,r0
        0x01002a62:    e7f7        ..      B        0x1002a54 ; middle_print_line_data_parse + 164
    middle_print_list_is_free
        0x01002a64:    4871        qH      LDR      r0,[pc,#452] ; [0x1002c2c] = 0x20848
        0x01002a66:    8801        ..      LDRH     r1,[r0,#0]
        0x01002a68:    8840        @.      LDRH     r0,[r0,#2]
        0x01002a6a:    4281        .B      CMP      r1,r0
        0x01002a6c:    d303        ..      BCC      0x1002a76 ; middle_print_list_is_free + 18
        0x01002a6e:    1a08        ..      SUBS     r0,r1,r0
        0x01002a70:    210a        .!      MOVS     r1,#0xa
        0x01002a72:    1a08        ..      SUBS     r0,r1,r0
        0x01002a74:    4770        pG      BX       lr
        0x01002a76:    1a40        @.      SUBS     r0,r0,r1
        0x01002a78:    4770        pG      BX       lr
    middle_print_list_is_empty
        0x01002a7a:    486c        lH      LDR      r0,[pc,#432] ; [0x1002c2c] = 0x20848
        0x01002a7c:    8841        A.      LDRH     r1,[r0,#2]
        0x01002a7e:    8800        ..      LDRH     r0,[r0,#0]
        0x01002a80:    4281        .B      CMP      r1,r0
        0x01002a82:    d101        ..      BNE      0x1002a88 ; middle_print_list_is_empty + 14
        0x01002a84:    2001        .       MOVS     r0,#1
        0x01002a86:    4770        pG      BX       lr
        0x01002a88:    2000        .       MOVS     r0,#0
        0x01002a8a:    4770        pG      BX       lr
    middle_print_list_put
        0x01002a8c:    b5f0        ..      PUSH     {r4-r7,lr}
        0x01002a8e:    460a        .F      MOV      r2,r1
        0x01002a90:    4607        .F      MOV      r7,r0
        0x01002a92:    b08d        ..      SUB      sp,sp,#0x34
        0x01002a94:    2148        H!      MOVS     r1,#0x48
        0x01002a96:    4610        .F      MOV      r0,r2
        0x01002a98:    f000fb04    ....    BL       __aeabi_uidiv ; 0x10030a4
        0x01002a9c:    2900        .)      CMP      r1,#0
        0x01002a9e:    d003        ..      BEQ      0x1002aa8 ; middle_print_list_put + 28
        0x01002aa0:    a063        c.      ADR      r0,{pc}+0x190 ; 0x1002c30
        0x01002aa2:    f000fdf9    ....    BL       __0printf ; 0x1003698
        0x01002aa6:    e01c        ..      B        0x1002ae2 ; middle_print_list_put + 86
        0x01002aa8:    4606        .F      MOV      r6,r0
        0x01002aaa:    f7ffffdb    ....    BL       middle_print_list_is_free ; 0x1002a64
        0x01002aae:    42b0        .B      CMP      r0,r6
        0x01002ab0:    dbf6        ..      BLT      0x1002aa0 ; middle_print_list_put + 20
        0x01002ab2:    2400        .$      MOVS     r4,#0
        0x01002ab4:    4d5d        ]M      LDR      r5,[pc,#372] ; [0x1002c2c] = 0x20848
        0x01002ab6:    e02b        +.      B        0x1002b10 ; middle_print_list_put + 132
        0x01002ab8:    2048        H       MOVS     r0,#0x48
        0x01002aba:    4360        `C      MULS     r0,r4,r0
        0x01002abc:    19c1        ..      ADDS     r1,r0,r7
        0x01002abe:    4668        hF      MOV      r0,sp
        0x01002ac0:    f7ffff76    ..v.    BL       middle_print_line_data_parse ; 0x10029b0
        0x01002ac4:    2800        .(      CMP      r0,#0
        0x01002ac6:    d010        ..      BEQ      0x1002aea ; middle_print_list_put + 94
        0x01002ac8:    2400        .$      MOVS     r4,#0
        0x01002aca:    466d        mF      MOV      r5,sp
        0x01002acc:    e005        ..      B        0x1002ada ; middle_print_list_put + 78
        0x01002ace:    00a0        ..      LSLS     r0,r4,#2
        0x01002ad0:    1940        @.      ADDS     r0,r0,r5
        0x01002ad2:    6840        @h      LDR      r0,[r0,#4]
        0x01002ad4:    f000fa57    ..W.    BL       middle_mmu_free ; 0x1002f86
        0x01002ad8:    1c64        d.      ADDS     r4,r4,#1
        0x01002ada:    4668        hF      MOV      r0,sp
        0x01002adc:    8800        ..      LDRH     r0,[r0,#0]
        0x01002ade:    42a0        .B      CMP      r0,r4
        0x01002ae0:    dcf5        ..      BGT      0x1002ace ; middle_print_list_put + 66
        0x01002ae2:    2000        .       MOVS     r0,#0
        0x01002ae4:    43c0        .C      MVNS     r0,r0
        0x01002ae6:    b00d        ..      ADD      sp,sp,#0x34
        0x01002ae8:    bdf0        ..      POP      {r4-r7,pc}
        0x01002aea:    8828        (.      LDRH     r0,[r5,#0]
        0x01002aec:    2130        0!      MOVS     r1,#0x30
        0x01002aee:    4348        HC      MULS     r0,r1,r0
        0x01002af0:    1940        @.      ADDS     r0,r0,r5
        0x01002af2:    460a        .F      MOV      r2,r1
        0x01002af4:    4669        iF      MOV      r1,sp
        0x01002af6:    1d00        ..      ADDS     r0,r0,#4
        0x01002af8:    f000fafe    ....    BL       __aeabi_memcpy ; 0x10030f8
        0x01002afc:    8828        (.      LDRH     r0,[r5,#0]
        0x01002afe:    1c40        @.      ADDS     r0,r0,#1
        0x01002b00:    b280        ..      UXTH     r0,r0
        0x01002b02:    8028        (.      STRH     r0,[r5,#0]
        0x01002b04:    280a        .(      CMP      r0,#0xa
        0x01002b06:    d301        ..      BCC      0x1002b0c ; middle_print_list_put + 128
        0x01002b08:    2000        .       MOVS     r0,#0
        0x01002b0a:    8028        (.      STRH     r0,[r5,#0]
        0x01002b0c:    1c64        d.      ADDS     r4,r4,#1
        0x01002b0e:    b2a4        ..      UXTH     r4,r4
        0x01002b10:    42b4        .B      CMP      r4,r6
        0x01002b12:    d3d1        ..      BCC      0x1002ab8 ; middle_print_list_put + 44
        0x01002b14:    2000        .       MOVS     r0,#0
        0x01002b16:    e7e6        ..      B        0x1002ae6 ; middle_print_list_put + 90
    middle_print_list_get
        0x01002b18:    b500        ..      PUSH     {lr}
        0x01002b1a:    f7ffffae    ....    BL       middle_print_list_is_empty ; 0x1002a7a
        0x01002b1e:    2800        .(      CMP      r0,#0
        0x01002b20:    d001        ..      BEQ      0x1002b26 ; middle_print_list_get + 14
        0x01002b22:    2000        .       MOVS     r0,#0
        0x01002b24:    bd00        ..      POP      {pc}
        0x01002b26:    4a41        AJ      LDR      r2,[pc,#260] ; [0x1002c2c] = 0x20848
        0x01002b28:    2030        0       MOVS     r0,#0x30
        0x01002b2a:    8851        Q.      LDRH     r1,[r2,#2]
        0x01002b2c:    4348        HC      MULS     r0,r1,r0
        0x01002b2e:    1c49        I.      ADDS     r1,r1,#1
        0x01002b30:    1880        ..      ADDS     r0,r0,r2
        0x01002b32:    b289        ..      UXTH     r1,r1
        0x01002b34:    1d00        ..      ADDS     r0,r0,#4
        0x01002b36:    8051        Q.      STRH     r1,[r2,#2]
        0x01002b38:    290a        .)      CMP      r1,#0xa
        0x01002b3a:    d3f3        ..      BCC      0x1002b24 ; middle_print_list_get + 12
        0x01002b3c:    2100        .!      MOVS     r1,#0
        0x01002b3e:    8051        Q.      STRH     r1,[r2,#2]
        0x01002b40:    bd00        ..      POP      {pc}
    middle_print_list_destory
        0x01002b42:    b570        p.      PUSH     {r4-r6,lr}
        0x01002b44:    0005        ..      MOVS     r5,r0
        0x01002b46:    d00c        ..      BEQ      0x1002b62 ; middle_print_list_destory + 32
        0x01002b48:    2400        .$      MOVS     r4,#0
        0x01002b4a:    e005        ..      B        0x1002b58 ; middle_print_list_destory + 22
        0x01002b4c:    00a0        ..      LSLS     r0,r4,#2
        0x01002b4e:    1940        @.      ADDS     r0,r0,r5
        0x01002b50:    6840        @h      LDR      r0,[r0,#4]
        0x01002b52:    f000fa18    ....    BL       middle_mmu_free ; 0x1002f86
        0x01002b56:    1c64        d.      ADDS     r4,r4,#1
        0x01002b58:    8828        (.      LDRH     r0,[r5,#0]
        0x01002b5a:    42a0        .B      CMP      r0,r4
        0x01002b5c:    dcf6        ..      BGT      0x1002b4c ; middle_print_list_destory + 10
        0x01002b5e:    2000        .       MOVS     r0,#0
        0x01002b60:    bd70        p.      POP      {r4-r6,pc}
        0x01002b62:    2000        .       MOVS     r0,#0
        0x01002b64:    43c0        .C      MVNS     r0,r0
        0x01002b66:    bd70        p.      POP      {r4-r6,pc}
    middle_print_list_init
        0x01002b68:    b510        ..      PUSH     {r4,lr}
        0x01002b6a:    21ff        .!      MOVS     r1,#0xff
        0x01002b6c:    31e5        .1      ADDS     r1,r1,#0xe5
        0x01002b6e:    482f        /H      LDR      r0,[pc,#188] ; [0x1002c2c] = 0x20848
        0x01002b70:    f000fadb    ....    BL       __aeabi_memclr ; 0x100312a
        0x01002b74:    2000        .       MOVS     r0,#0
        0x01002b76:    bd10        ..      POP      {r4,pc}
    middle_print_line_data_slice
        0x01002b78:    b5f0        ..      PUSH     {r4-r7,lr}
        0x01002b7a:    4694        .F      MOV      r12,r2
        0x01002b7c:    4602        .F      MOV      r2,r0
        0x01002b7e:    8818        ..      LDRH     r0,[r3,#0]
        0x01002b80:    2500        .%      MOVS     r5,#0
        0x01002b82:    08c4        ..      LSRS     r4,r0,#3
        0x01002b84:    0740        @.      LSLS     r0,r0,#29
        0x01002b86:    0f40        @.      LSRS     r0,r0,#29
        0x01002b88:    9f05        ..      LDR      r7,[sp,#0x14]
        0x01002b8a:    2800        .(      CMP      r0,#0
        0x01002b8c:    d007        ..      BEQ      0x1002b9e ; middle_print_line_data_slice + 38
        0x01002b8e:    26ff        .&      MOVS     r6,#0xff
        0x01002b90:    5d15        .]      LDRB     r5,[r2,r4]
        0x01002b92:    40c6        .@      LSRS     r6,r6,r0
        0x01002b94:    4035        5@      ANDS     r5,r5,r6
        0x01002b96:    481a        .H      LDR      r0,[pc,#104] ; [0x1002c00] = 0x1004cc7
        0x01002b98:    550d        .U      STRB     r5,[r1,r4]
        0x01002b9a:    5d45        E]      LDRB     r5,[r0,r5]
        0x01002b9c:    1c64        d.      ADDS     r4,r4,#1
        0x01002b9e:    4818        .H      LDR      r0,[pc,#96] ; [0x1002c00] = 0x1004cc7
        0x01002ba0:    4564        dE      CMP      r4,r12
        0x01002ba2:    d209        ..      BCS      0x1002bb8 ; middle_print_line_data_slice + 64
        0x01002ba4:    5d16        .]      LDRB     r6,[r2,r4]
        0x01002ba6:    550e        .U      STRB     r6,[r1,r4]
        0x01002ba8:    5d86        .]      LDRB     r6,[r0,r6]
        0x01002baa:    1975        u.      ADDS     r5,r6,r5
        0x01002bac:    b2ad        ..      UXTH     r5,r5
        0x01002bae:    42bd        .B      CMP      r5,r7
        0x01002bb0:    d202        ..      BCS      0x1002bb8 ; middle_print_line_data_slice + 64
        0x01002bb2:    1c64        d.      ADDS     r4,r4,#1
        0x01002bb4:    b2a4        ..      UXTH     r4,r4
        0x01002bb6:    e7f3        ..      B        0x1002ba0 ; middle_print_line_data_slice + 40
        0x01002bb8:    2000        .       MOVS     r0,#0
        0x01002bba:    42bd        .B      CMP      r5,r7
        0x01002bbc:    d916        ..      BLS      0x1002bec ; middle_print_line_data_slice + 116
        0x01002bbe:    1bea        ..      SUBS     r2,r5,r7
        0x01002bc0:    b292        ..      UXTH     r2,r2
        0x01002bc2:    2701        .'      MOVS     r7,#1
        0x01002bc4:    e008        ..      B        0x1002bd8 ; middle_print_line_data_slice + 96
        0x01002bc6:    5d0e        .]      LDRB     r6,[r1,r4]
        0x01002bc8:    463d        =F      MOV      r5,r7
        0x01002bca:    4085        .@      LSLS     r5,r5,r0
        0x01002bcc:    422e        .B      TST      r6,r5
        0x01002bce:    d001        ..      BEQ      0x1002bd4 ; middle_print_line_data_slice + 92
        0x01002bd0:    1e52        R.      SUBS     r2,r2,#1
        0x01002bd2:    b292        ..      UXTH     r2,r2
        0x01002bd4:    1c40        @.      ADDS     r0,r0,#1
        0x01002bd6:    b280        ..      UXTH     r0,r0
        0x01002bd8:    2a00        .*      CMP      r2,#0
        0x01002bda:    d001        ..      BEQ      0x1002be0 ; middle_print_line_data_slice + 104
        0x01002bdc:    2808        .(      CMP      r0,#8
        0x01002bde:    d3f2        ..      BCC      0x1002bc6 ; middle_print_line_data_slice + 78
        0x01002be0:    5d0d        .]      LDRB     r5,[r1,r4]
        0x01002be2:    22ff        ."      MOVS     r2,#0xff
        0x01002be4:    4082        .@      LSLS     r2,r2,r0
        0x01002be6:    4015        .@      ANDS     r5,r5,r2
        0x01002be8:    550d        .U      STRB     r5,[r1,r4]
        0x01002bea:    e001        ..      B        0x1002bf0 ; middle_print_line_data_slice + 120
        0x01002bec:    42bd        .B      CMP      r5,r7
        0x01002bee:    d101        ..      BNE      0x1002bf4 ; middle_print_line_data_slice + 124
        0x01002bf0:    1c64        d.      ADDS     r4,r4,#1
        0x01002bf2:    b2a4        ..      UXTH     r4,r4
        0x01002bf4:    00e1        ..      LSLS     r1,r4,#3
        0x01002bf6:    1a08        ..      SUBS     r0,r1,r0
        0x01002bf8:    8018        ..      STRH     r0,[r3,#0]
        0x01002bfa:    2000        .       MOVS     r0,#0
        0x01002bfc:    bdf0        ..      POP      {r4-r7,pc}
    $d
        0x01002bfe:    0000        ..      DCW    0
        0x01002c00:    01004cc7    .L..    DCD    16796871
        0x01002c04:    000011f8    ....    DCD    4600
        0x01002c08:    6e697270    prin    DCD    1852404336
        0x01002c0c:    65732074    t se    DCD    1702043764
        0x01002c10:    6e656d67    gmen    DCD    1852140903
        0x01002c14:    61642074    t da    DCD    1633951860
        0x01002c18:    6d206174    ta m    DCD    1830838644
        0x01002c1c:    6f6c6c61    allo    DCD    1869376609
        0x01002c20:    61662063    c fa    DCD    1634082915
        0x01002c24:    6465696c    lied    DCD    1684367724
        0x01002c28:    00000a0d    ....    DCD    2573
        0x01002c2c:    00020848    H...    DCD    133192
        0x01002c30:    6e697270    prin    DCD    1852404336
        0x01002c34:    696c2074    t li    DCD    1768693876
        0x01002c38:    6420656e    ne d    DCD    1679844718
        0x01002c3c:    20617461    ata     DCD    543257697
        0x01002c40:    657a6973    size    DCD    1702521203
        0x01002c44:    72726520     err    DCD    1920099616
        0x01002c48:    0a0d726f    or..    DCD    168653423
        0x01002c4c:    00000000    ....    DCD    0
    $t
    .text
    middle_print_motor_spwm_handle
        0x01002c50:    b570        p.      PUSH     {r4-r6,lr}
        0x01002c52:    4c9d        .L      LDR      r4,[pc,#628] ; [0x1002ec8] = 0x20a74
        0x01002c54:    6961        ai      LDR      r1,[r4,#0x14]
        0x01002c56:    6920         i      LDR      r0,[r4,#0x10]
        0x01002c58:    4288        .B      CMP      r0,r1
        0x01002c5a:    d302        ..      BCC      0x1002c62 ; middle_print_motor_spwm_handle + 18
        0x01002c5c:    f7fffbdf    ....    BL       hal_print_motor_stop ; 0x100241e
        0x01002c60:    e066        f.      B        0x1002d30 ; middle_print_motor_spwm_handle + 224
        0x01002c62:    69e1        .i      LDR      r1,[r4,#0x1c]
        0x01002c64:    6a20         j      LDR      r0,[r4,#0x20]
        0x01002c66:    4281        .B      CMP      r1,r0
        0x01002c68:    d003        ..      BEQ      0x1002c72 ; middle_print_motor_spwm_handle + 34
        0x01002c6a:    f7fffbc6    ....    BL       hal_print_motor_speed_time ; 0x10023fa
        0x01002c6e:    6a20         j      LDR      r0,[r4,#0x20]
        0x01002c70:    61e0        .a      STR      r0,[r4,#0x1c]
        0x01002c72:    78a0        .x      LDRB     r0,[r4,#2]
        0x01002c74:    2200        ."      MOVS     r2,#0
        0x01002c76:    2848        H(      CMP      r0,#0x48
        0x01002c78:    d300        ..      BCC      0x1002c7c ; middle_print_motor_spwm_handle + 44
        0x01002c7a:    70a2        .p      STRB     r2,[r4,#2]
        0x01002c7c:    78a0        .x      LDRB     r0,[r4,#2]
        0x01002c7e:    25ff        .%      MOVS     r5,#0xff
        0x01002c80:    1c40        @.      ADDS     r0,r0,#1
        0x01002c82:    b2c0        ..      UXTB     r0,r0
        0x01002c84:    4e91        .N      LDR      r6,[pc,#580] ; [0x1002ecc] = 0x1004dc8
        0x01002c86:    4992        .I      LDR      r1,[pc,#584] ; [0x1002ed0] = 0xf0c00
        0x01002c88:    35e1        .5      ADDS     r5,r5,#0xe1
        0x01002c8a:    2812        .(      CMP      r0,#0x12
        0x01002c8c:    d80f        ..      BHI      0x1002cae ; middle_print_motor_spwm_handle + 94
        0x01002c8e:    2312        .#      MOVS     r3,#0x12
        0x01002c90:    1a1b        ..      SUBS     r3,r3,r0
        0x01002c92:    005b        [.      LSLS     r3,r3,#1
        0x01002c94:    199b        ..      ADDS     r3,r3,r6
        0x01002c96:    885b        [.      LDRH     r3,[r3,#2]
        0x01002c98:    600b        .`      STR      r3,[r1,#0]
        0x01002c9a:    1aeb        ..      SUBS     r3,r5,r3
        0x01002c9c:    604b        K`      STR      r3,[r1,#4]
        0x01002c9e:    0043        C.      LSLS     r3,r0,#1
        0x01002ca0:    5af3        .Z      LDRH     r3,[r6,r3]
        0x01002ca2:    610b        .a      STR      r3,[r1,#0x10]
        0x01002ca4:    1aeb        ..      SUBS     r3,r5,r3
        0x01002ca6:    614b        Ka      STR      r3,[r1,#0x14]
        0x01002ca8:    608a        .`      STR      r2,[r1,#8]
        0x01002caa:    60cd        .`      STR      r5,[r1,#0xc]
        0x01002cac:    e011        ..      B        0x1002cd2 ; middle_print_motor_spwm_handle + 130
        0x01002cae:    2824        $(      CMP      r0,#0x24
        0x01002cb0:    d812        ..      BHI      0x1002cd8 ; middle_print_motor_spwm_handle + 136
        0x01002cb2:    2324        $#      MOVS     r3,#0x24
        0x01002cb4:    1a1b        ..      SUBS     r3,r3,r0
        0x01002cb6:    005b        [.      LSLS     r3,r3,#1
        0x01002cb8:    5af3        .Z      LDRH     r3,[r6,r3]
        0x01002cba:    610b        .a      STR      r3,[r1,#0x10]
        0x01002cbc:    1aeb        ..      SUBS     r3,r5,r3
        0x01002cbe:    614b        Ka      STR      r3,[r1,#0x14]
        0x01002cc0:    0043        C.      LSLS     r3,r0,#1
        0x01002cc2:    199b        ..      ADDS     r3,r3,r6
        0x01002cc4:    3b40        @;      SUBS     r3,r3,#0x40
        0x01002cc6:    8b5b        [.      LDRH     r3,[r3,#0x1a]
        0x01002cc8:    608b        .`      STR      r3,[r1,#8]
        0x01002cca:    1aeb        ..      SUBS     r3,r5,r3
        0x01002ccc:    60cb        .`      STR      r3,[r1,#0xc]
        0x01002cce:    600a        .`      STR      r2,[r1,#0]
        0x01002cd0:    604d        M`      STR      r5,[r1,#4]
        0x01002cd2:    618a        .a      STR      r2,[r1,#0x18]
        0x01002cd4:    61cd        .a      STR      r5,[r1,#0x1c]
        0x01002cd6:    e027        '.      B        0x1002d28 ; middle_print_motor_spwm_handle + 216
        0x01002cd8:    2836        6(      CMP      r0,#0x36
        0x01002cda:    d811        ..      BHI      0x1002d00 ; middle_print_motor_spwm_handle + 176
        0x01002cdc:    2336        6#      MOVS     r3,#0x36
        0x01002cde:    1a1b        ..      SUBS     r3,r3,r0
        0x01002ce0:    005b        [.      LSLS     r3,r3,#1
        0x01002ce2:    199b        ..      ADDS     r3,r3,r6
        0x01002ce4:    885b        [.      LDRH     r3,[r3,#2]
        0x01002ce6:    608b        .`      STR      r3,[r1,#8]
        0x01002ce8:    1aeb        ..      SUBS     r3,r5,r3
        0x01002cea:    60cb        .`      STR      r3,[r1,#0xc]
        0x01002cec:    0043        C.      LSLS     r3,r0,#1
        0x01002cee:    199b        ..      ADDS     r3,r3,r6
        0x01002cf0:    3b80        .;      SUBS     r3,r3,#0x80
        0x01002cf2:    8f1b        ..      LDRH     r3,[r3,#0x38]
        0x01002cf4:    618b        .a      STR      r3,[r1,#0x18]
        0x01002cf6:    1aeb        ..      SUBS     r3,r5,r3
        0x01002cf8:    61cb        .a      STR      r3,[r1,#0x1c]
        0x01002cfa:    600a        .`      STR      r2,[r1,#0]
        0x01002cfc:    604d        M`      STR      r5,[r1,#4]
        0x01002cfe:    e011        ..      B        0x1002d24 ; middle_print_motor_spwm_handle + 212
        0x01002d00:    2848        H(      CMP      r0,#0x48
        0x01002d02:    d811        ..      BHI      0x1002d28 ; middle_print_motor_spwm_handle + 216
        0x01002d04:    2348        H#      MOVS     r3,#0x48
        0x01002d06:    1a1b        ..      SUBS     r3,r3,r0
        0x01002d08:    005b        [.      LSLS     r3,r3,#1
        0x01002d0a:    5af3        .Z      LDRH     r3,[r6,r3]
        0x01002d0c:    618b        .a      STR      r3,[r1,#0x18]
        0x01002d0e:    1aeb        ..      SUBS     r3,r5,r3
        0x01002d10:    61cb        .a      STR      r3,[r1,#0x1c]
        0x01002d12:    0043        C.      LSLS     r3,r0,#1
        0x01002d14:    199b        ..      ADDS     r3,r3,r6
        0x01002d16:    3b80        .;      SUBS     r3,r3,#0x80
        0x01002d18:    8a5b        [.      LDRH     r3,[r3,#0x12]
        0x01002d1a:    600b        .`      STR      r3,[r1,#0]
        0x01002d1c:    1aeb        ..      SUBS     r3,r5,r3
        0x01002d1e:    604b        K`      STR      r3,[r1,#4]
        0x01002d20:    608a        .`      STR      r2,[r1,#8]
        0x01002d22:    60cd        .`      STR      r5,[r1,#0xc]
        0x01002d24:    610a        .a      STR      r2,[r1,#0x10]
        0x01002d26:    614d        Ma      STR      r5,[r1,#0x14]
        0x01002d28:    6921        !i      LDR      r1,[r4,#0x10]
        0x01002d2a:    1c49        I.      ADDS     r1,r1,#1
        0x01002d2c:    6121        !a      STR      r1,[r4,#0x10]
        0x01002d2e:    70a0        .p      STRB     r0,[r4,#2]
        0x01002d30:    2000        .       MOVS     r0,#0
        0x01002d32:    bd70        p.      POP      {r4-r6,pc}
    middle_print_latch_to_heat_handle
        0x01002d34:    b510        ..      PUSH     {r4,lr}
        0x01002d36:    2101        .!      MOVS     r1,#1
        0x01002d38:    03c9        ..      LSLS     r1,r1,#15
        0x01002d3a:    2000        .       MOVS     r0,#0
        0x01002d3c:    f7fdfeaf    ....    BL       GPIO_ResetBits ; 0x1000a9e
        0x01002d40:    4961        aI      LDR      r1,[pc,#388] ; [0x1002ec8] = 0x20a74
        0x01002d42:    2001        .       MOVS     r0,#1
        0x01002d44:    7008        .p      STRB     r0,[r1,#0]
        0x01002d46:    2005        .       MOVS     r0,#5
        0x01002d48:    f7fffb3a    ..:.    BL       hal_print_heat_time ; 0x10023c0
        0x01002d4c:    2000        .       MOVS     r0,#0
        0x01002d4e:    bd10        ..      POP      {r4,pc}
    middle_print_heat_haddle
        0x01002d50:    b570        p.      PUSH     {r4-r6,lr}
        0x01002d52:    4c5d        ]L      LDR      r4,[pc,#372] ; [0x1002ec8] = 0x20a74
        0x01002d54:    7820         x      LDRB     r0,[r4,#0]
        0x01002d56:    2801        .(      CMP      r0,#1
        0x01002d58:    d006        ..      BEQ      0x1002d68 ; middle_print_heat_haddle + 24
        0x01002d5a:    2802        .(      CMP      r0,#2
        0x01002d5c:    d00d        ..      BEQ      0x1002d7a ; middle_print_heat_haddle + 42
        0x01002d5e:    2803        .(      CMP      r0,#3
        0x01002d60:    d013        ..      BEQ      0x1002d8a ; middle_print_heat_haddle + 58
        0x01002d62:    2804        .(      CMP      r0,#4
        0x01002d64:    d02c        ,.      BEQ      0x1002dc0 ; middle_print_heat_haddle + 112
        0x01002d66:    e043        C.      B        0x1002df0 ; middle_print_heat_haddle + 160
        0x01002d68:    2101        .!      MOVS     r1,#1
        0x01002d6a:    03c9        ..      LSLS     r1,r1,#15
        0x01002d6c:    2000        .       MOVS     r0,#0
        0x01002d6e:    f7fdfefe    ....    BL       GPIO_SetBits ; 0x1000b6e
        0x01002d72:    2002        .       MOVS     r0,#2
        0x01002d74:    7020         p      STRB     r0,[r4,#0]
        0x01002d76:    200a        .       MOVS     r0,#0xa
        0x01002d78:    e038        8.      B        0x1002dec ; middle_print_heat_haddle + 156
        0x01002d7a:    2104        .!      MOVS     r1,#4
        0x01002d7c:    2001        .       MOVS     r0,#1
        0x01002d7e:    f7fdfef6    ....    BL       GPIO_SetBits ; 0x1000b6e
        0x01002d82:    2003        .       MOVS     r0,#3
        0x01002d84:    7020         p      STRB     r0,[r4,#0]
        0x01002d86:    69a0        .i      LDR      r0,[r4,#0x18]
        0x01002d88:    e030        0.      B        0x1002dec ; middle_print_heat_haddle + 156
        0x01002d8a:    2104        .!      MOVS     r1,#4
        0x01002d8c:    2001        .       MOVS     r0,#1
        0x01002d8e:    f7fdfe86    ....    BL       GPIO_ResetBits ; 0x1000a9e
        0x01002d92:    88a0        ..      LDRH     r0,[r4,#4]
        0x01002d94:    1c40        @.      ADDS     r0,r0,#1
        0x01002d96:    b280        ..      UXTH     r0,r0
        0x01002d98:    80a0        ..      STRH     r0,[r4,#4]
        0x01002d9a:    88e1        ..      LDRH     r1,[r4,#6]
        0x01002d9c:    4288        .B      CMP      r0,r1
        0x01002d9e:    d313        ..      BCC      0x1002dc8 ; middle_print_heat_haddle + 120
        0x01002da0:    2500        .%      MOVS     r5,#0
        0x01002da2:    80a5        ..      STRH     r5,[r4,#4]
        0x01002da4:    2004        .       MOVS     r0,#4
        0x01002da6:    4e4b        KN      LDR      r6,[pc,#300] ; [0x1002ed4] = 0x2003c
        0x01002da8:    7020         p      STRB     r0,[r4,#0]
        0x01002daa:    6830        0h      LDR      r0,[r6,#0]
        0x01002dac:    f7fffec9    ....    BL       middle_print_list_destory ; 0x1002b42
        0x01002db0:    6035        5`      STR      r5,[r6,#0]
        0x01002db2:    f7fffeb1    ....    BL       middle_print_list_get ; 0x1002b18
        0x01002db6:    6030        0`      STR      r0,[r6,#0]
        0x01002db8:    2800        .(      CMP      r0,#0
        0x01002dba:    d008        ..      BEQ      0x1002dce ; middle_print_heat_haddle + 126
        0x01002dbc:    6a80        .j      LDR      r0,[r0,#0x28]
        0x01002dbe:    61a0        .a      STR      r0,[r4,#0x18]
        0x01002dc0:    f000f841    ..A.    BL       middle_print_motor_linefeed_completed ; 0x1002e46
        0x01002dc4:    2800        .(      CMP      r0,#0
        0x01002dc6:    d010        ..      BEQ      0x1002dea ; middle_print_heat_haddle + 154
        0x01002dc8:    f000f848    ..H.    BL       middle_print_line_data_latch ; 0x1002e5c
        0x01002dcc:    e010        ..      B        0x1002df0 ; middle_print_heat_haddle + 160
        0x01002dce:    f7fffb09    ....    BL       hal_print_stop ; 0x10023e4
        0x01002dd2:    2108        .!      MOVS     r1,#8
        0x01002dd4:    2000        .       MOVS     r0,#0
        0x01002dd6:    f7fdfe62    ..b.    BL       GPIO_ResetBits ; 0x1000a9e
        0x01002dda:    7025        %p      STRB     r5,[r4,#0]
        0x01002ddc:    7065        ep      STRB     r5,[r4,#1]
        0x01002dde:    a23e        >.      ADR      r2,{pc}+0xfa ; 0x1002ed8
        0x01002de0:    a13f        ?.      ADR      r1,{pc}+0x100 ; 0x1002ee0
        0x01002de2:    a040        @.      ADR      r0,{pc}+0x102 ; 0x1002ee4
        0x01002de4:    f7fffa98    ....    BL       hal_log_printf ; 0x1002318
        0x01002de8:    e002        ..      B        0x1002df0 ; middle_print_heat_haddle + 160
        0x01002dea:    2002        .       MOVS     r0,#2
        0x01002dec:    f7fffae8    ....    BL       hal_print_heat_time ; 0x10023c0
        0x01002df0:    2000        .       MOVS     r0,#0
        0x01002df2:    bd70        p.      POP      {r4-r6,pc}
    middle_print_is_busy
        0x01002df4:    4834        4H      LDR      r0,[pc,#208] ; [0x1002ec8] = 0x20a74
        0x01002df6:    7800        .x      LDRB     r0,[r0,#0]
        0x01002df8:    2800        .(      CMP      r0,#0
        0x01002dfa:    d000        ..      BEQ      0x1002dfe ; middle_print_is_busy + 10
        0x01002dfc:    2001        .       MOVS     r0,#1
        0x01002dfe:    4770        pG      BX       lr
    middle_print_progress
        0x01002e00:    b510        ..      PUSH     {r4,lr}
        0x01002e02:    f7fffe3a    ..:.    BL       middle_print_list_is_empty ; 0x1002a7a
        0x01002e06:    2800        .(      CMP      r0,#0
        0x01002e08:    d10d        ..      BNE      0x1002e26 ; middle_print_progress + 38
        0x01002e0a:    482f        /H      LDR      r0,[pc,#188] ; [0x1002ec8] = 0x20a74
        0x01002e0c:    7800        .x      LDRB     r0,[r0,#0]
        0x01002e0e:    2800        .(      CMP      r0,#0
        0x01002e10:    d109        ..      BNE      0x1002e26 ; middle_print_progress + 38
        0x01002e12:    f7fffe81    ....    BL       middle_print_list_get ; 0x1002b18
        0x01002e16:    492f        /I      LDR      r1,[pc,#188] ; [0x1002ed4] = 0x2003c
        0x01002e18:    2800        .(      CMP      r0,#0
        0x01002e1a:    6008        .`      STR      r0,[r1,#0]
        0x01002e1c:    d005        ..      BEQ      0x1002e2a ; middle_print_progress + 42
        0x01002e1e:    f000f831    ..1.    BL       middle_print_start ; 0x1002e84
        0x01002e22:    f000f81b    ....    BL       middle_print_line_data_latch ; 0x1002e5c
        0x01002e26:    2000        .       MOVS     r0,#0
        0x01002e28:    bd10        ..      POP      {r4,pc}
        0x01002e2a:    2000        .       MOVS     r0,#0
        0x01002e2c:    43c0        .C      MVNS     r0,r0
        0x01002e2e:    bd10        ..      POP      {r4,pc}
    middle_print_init
        0x01002e30:    b510        ..      PUSH     {r4,lr}
        0x01002e32:    2124        $!      MOVS     r1,#0x24
        0x01002e34:    4824        $H      LDR      r0,[pc,#144] ; [0x1002ec8] = 0x20a74
        0x01002e36:    f000f978    ..x.    BL       __aeabi_memclr ; 0x100312a
        0x01002e3a:    4823        #H      LDR      r0,[pc,#140] ; [0x1002ec8] = 0x20a74
        0x01002e3c:    2100        .!      MOVS     r1,#0
        0x01002e3e:    7001        .p      STRB     r1,[r0,#0]
        0x01002e40:    7041        Ap      STRB     r1,[r0,#1]
        0x01002e42:    4608        .F      MOV      r0,r1
        0x01002e44:    bd10        ..      POP      {r4,pc}
    middle_print_motor_linefeed_completed
        0x01002e46:    4920         I      LDR      r1,[pc,#128] ; [0x1002ec8] = 0x20a74
        0x01002e48:    68ca        .h      LDR      r2,[r1,#0xc]
        0x01002e4a:    6908        .i      LDR      r0,[r1,#0x10]
        0x01002e4c:    1a82        ..      SUBS     r2,r0,r2
        0x01002e4e:    2a24        $*      CMP      r2,#0x24
        0x01002e50:    d302        ..      BCC      0x1002e58 ; middle_print_motor_linefeed_completed + 18
        0x01002e52:    60c8        .`      STR      r0,[r1,#0xc]
        0x01002e54:    2001        .       MOVS     r0,#1
        0x01002e56:    4770        pG      BX       lr
        0x01002e58:    2000        .       MOVS     r0,#0
        0x01002e5a:    4770        pG      BX       lr
    middle_print_line_data_latch
        0x01002e5c:    b510        ..      PUSH     {r4,lr}
        0x01002e5e:    481a        .H      LDR      r0,[pc,#104] ; [0x1002ec8] = 0x20a74
        0x01002e60:    491c        .I      LDR      r1,[pc,#112] ; [0x1002ed4] = 0x2003c
        0x01002e62:    8880        ..      LDRH     r0,[r0,#4]
        0x01002e64:    6809        .h      LDR      r1,[r1,#0]
        0x01002e66:    0080        ..      LSLS     r0,r0,#2
        0x01002e68:    1840        @.      ADDS     r0,r0,r1
        0x01002e6a:    6841        Ah      LDR      r1,[r0,#4]
        0x01002e6c:    4816        .H      LDR      r0,[pc,#88] ; [0x1002ec8] = 0x20a74
        0x01002e6e:    2248        H"      MOVS     r2,#0x48
        0x01002e70:    3848        H8      SUBS     r0,r0,#0x48
        0x01002e72:    f000f941    ..A.    BL       __aeabi_memcpy ; 0x10030f8
        0x01002e76:    4814        .H      LDR      r0,[pc,#80] ; [0x1002ec8] = 0x20a74
        0x01002e78:    2148        H!      MOVS     r1,#0x48
        0x01002e7a:    3848        H8      SUBS     r0,r0,#0x48
        0x01002e7c:    f7fffa92    ....    BL       hal_print_send_data ; 0x10023a4
        0x01002e80:    2000        .       MOVS     r0,#0
        0x01002e82:    bd10        ..      POP      {r4,pc}
    middle_print_start
        0x01002e84:    b510        ..      PUSH     {r4,lr}
        0x01002e86:    2108        .!      MOVS     r1,#8
        0x01002e88:    2000        .       MOVS     r0,#0
        0x01002e8a:    f7fdfe70    ..p.    BL       GPIO_SetBits ; 0x1000b6e
        0x01002e8e:    490e        .I      LDR      r1,[pc,#56] ; [0x1002ec8] = 0x20a74
        0x01002e90:    2000        .       MOVS     r0,#0
        0x01002e92:    7008        .p      STRB     r0,[r1,#0]
        0x01002e94:    4a0f        .J      LDR      r2,[pc,#60] ; [0x1002ed4] = 0x2003c
        0x01002e96:    8088        ..      STRH     r0,[r1,#4]
        0x01002e98:    6812        .h      LDR      r2,[r2,#0]
        0x01002e9a:    8813        ..      LDRH     r3,[r2,#0]
        0x01002e9c:    80cb        ..      STRH     r3,[r1,#6]
        0x01002e9e:    6a93        .j      LDR      r3,[r2,#0x28]
        0x01002ea0:    618b        .a      STR      r3,[r1,#0x18]
        0x01002ea2:    2301        .#      MOVS     r3,#1
        0x01002ea4:    704b        Kp      STRB     r3,[r1,#1]
        0x01002ea6:    7088        .p      STRB     r0,[r1,#2]
        0x01002ea8:    6108        .a      STR      r0,[r1,#0x10]
        0x01002eaa:    60c8        .`      STR      r0,[r1,#0xc]
        0x01002eac:    6ad0        .j      LDR      r0,[r2,#0x2c]
        0x01002eae:    61c8        .a      STR      r0,[r1,#0x1c]
        0x01002eb0:    1e9a        ..      SUBS     r2,r3,#2
        0x01002eb2:    614a        Ja      STR      r2,[r1,#0x14]
        0x01002eb4:    6208        .b      STR      r0,[r1,#0x20]
        0x01002eb6:    f7fffaa0    ....    BL       hal_print_motor_speed_time ; 0x10023fa
        0x01002eba:    a207        ..      ADR      r2,{pc}+0x1e ; 0x1002ed8
        0x01002ebc:    a108        ..      ADR      r1,{pc}+0x24 ; 0x1002ee0
        0x01002ebe:    a010        ..      ADR      r0,{pc}+0x42 ; 0x1002f00
        0x01002ec0:    f7fffa2a    ..*.    BL       hal_log_printf ; 0x1002318
        0x01002ec4:    2000        .       MOVS     r0,#0
        0x01002ec6:    bd10        ..      POP      {r4,pc}
    $d
        0x01002ec8:    00020a74    t...    DCD    133748
        0x01002ecc:    01004dc8    .M..    DCD    16797128
        0x01002ed0:    000f0c00    ....    DCD    986112
        0x01002ed4:    0002003c    <...    DCD    131132
        0x01002ed8:    2044494d    MID     DCD    541346125
        0x01002edc:    004e5250    PRN.    DCD    5132880
        0x01002ee0:    00002020      ..    DCD    8224
        0x01002ee4:    756c255b    [%lu    DCD    1970021723
        0x01002ee8:    257c205d    ] |%    DCD    628891741
        0x01002eec:    382e382d    -8.8    DCD    942553133
        0x01002ef0:    70207c73    s| p    DCD    1881177203
        0x01002ef4:    746e6972    rint    DCD    1953393010
        0x01002ef8:    6f747320     sto    DCD    1869902624
        0x01002efc:    000a0d70    p...    DCD    658800
        0x01002f00:    756c255b    [%lu    DCD    1970021723
        0x01002f04:    257c205d    ] |%    DCD    628891741
        0x01002f08:    382e382d    -8.8    DCD    942553133
        0x01002f0c:    70207c73    s| p    DCD    1881177203
        0x01002f10:    746e6972    rint    DCD    1953393010
        0x01002f14:    61747320     sta    DCD    1635021600
        0x01002f18:    0a0d7472    rt..    DCD    168653938
        0x01002f1c:    00000000    ....    DCD    0
    $t
    .text
    middle_mmu_init
        0x01002f20:    b510        ..      PUSH     {r4,lr}
        0x01002f22:    2103        .!      MOVS     r1,#3
        0x01002f24:    02c9        ..      LSLS     r1,r1,#11
        0x01002f26:    4826        &H      LDR      r0,[pc,#152] ; [0x1002fc0] = 0x20a98
        0x01002f28:    f000f8ff    ....    BL       __aeabi_memclr ; 0x100312a
        0x01002f2c:    21ff        .!      MOVS     r1,#0xff
        0x01002f2e:    3181        .1      ADDS     r1,r1,#0x81
        0x01002f30:    4824        $H      LDR      r0,[pc,#144] ; [0x1002fc4] = 0x22298
        0x01002f32:    f000f8fa    ....    BL       __aeabi_memclr ; 0x100312a
        0x01002f36:    bd10        ..      POP      {r4,pc}
    middle_mmu_alloc
        0x01002f38:    02c8        ..      LSLS     r0,r1,#11
        0x01002f3a:    b510        ..      PUSH     {r4,lr}
        0x01002f3c:    0c02        ..      LSRS     r2,r0,#16
        0x01002f3e:    2300        .#      MOVS     r3,#0
        0x01002f40:    2900        .)      CMP      r1,#0
        0x01002f42:    d01e        ..      BEQ      0x1002f82 ; middle_mmu_alloc + 74
        0x01002f44:    06c8        ..      LSLS     r0,r1,#27
        0x01002f46:    d001        ..      BEQ      0x1002f4c ; middle_mmu_alloc + 20
        0x01002f48:    1c52        R.      ADDS     r2,r2,#1
        0x01002f4a:    b292        ..      UXTH     r2,r2
        0x01002f4c:    4c1d        .L      LDR      r4,[pc,#116] ; [0x1002fc4] = 0x22298
        0x01002f4e:    20bf        .       MOVS     r0,#0xbf
        0x01002f50:    0041        A.      LSLS     r1,r0,#1
        0x01002f52:    5a61        aZ      LDRH     r1,[r4,r1]
        0x01002f54:    2900        .)      CMP      r1,#0
        0x01002f56:    d004        ..      BEQ      0x1002f62 ; middle_mmu_alloc + 42
        0x01002f58:    2300        .#      MOVS     r3,#0
        0x01002f5a:    4293        .B      CMP      r3,r2
        0x01002f5c:    d10f        ..      BNE      0x1002f7e ; middle_mmu_alloc + 70
        0x01002f5e:    2100        .!      MOVS     r1,#0
        0x01002f60:    e007        ..      B        0x1002f72 ; middle_mmu_alloc + 58
        0x01002f62:    1c5b        [.      ADDS     r3,r3,#1
        0x01002f64:    b29b        ..      UXTH     r3,r3
        0x01002f66:    e7f8        ..      B        0x1002f5a ; middle_mmu_alloc + 34
        0x01002f68:    1843        C.      ADDS     r3,r0,r1
        0x01002f6a:    005b        [.      LSLS     r3,r3,#1
        0x01002f6c:    1c49        I.      ADDS     r1,r1,#1
        0x01002f6e:    52e2        .R      STRH     r2,[r4,r3]
        0x01002f70:    b289        ..      UXTH     r1,r1
        0x01002f72:    4291        .B      CMP      r1,r2
        0x01002f74:    d3f8        ..      BCC      0x1002f68 ; middle_mmu_alloc + 48
        0x01002f76:    4912        .I      LDR      r1,[pc,#72] ; [0x1002fc0] = 0x20a98
        0x01002f78:    0140        @.      LSLS     r0,r0,#5
        0x01002f7a:    1840        @.      ADDS     r0,r0,r1
        0x01002f7c:    bd10        ..      POP      {r4,pc}
        0x01002f7e:    1e40        @.      SUBS     r0,r0,#1
        0x01002f80:    d5e6        ..      BPL      0x1002f50 ; middle_mmu_alloc + 24
        0x01002f82:    2000        .       MOVS     r0,#0
        0x01002f84:    bd10        ..      POP      {r4,pc}
    middle_mmu_free
        0x01002f86:    490e        .I      LDR      r1,[pc,#56] ; [0x1002fc0] = 0x20a98
        0x01002f88:    b570        p.      PUSH     {r4-r6,lr}
        0x01002f8a:    1a40        @.      SUBS     r0,r0,r1
        0x01002f8c:    2103        .!      MOVS     r1,#3
        0x01002f8e:    02c9        ..      LSLS     r1,r1,#11
        0x01002f90:    4288        .B      CMP      r0,r1
        0x01002f92:    d305        ..      BCC      0x1002fa0 ; middle_mmu_free + 26
        0x01002f94:    a00c        ..      ADR      r0,{pc}+0x34 ; 0x1002fc8
        0x01002f96:    f000fb7f    ....    BL       __0printf ; 0x1003698
        0x01002f9a:    2000        .       MOVS     r0,#0
        0x01002f9c:    43c0        .C      MVNS     r0,r0
        0x01002f9e:    bd70        p.      POP      {r4-r6,pc}
        0x01002fa0:    0941        A.      LSRS     r1,r0,#5
        0x01002fa2:    4c08        .L      LDR      r4,[pc,#32] ; [0x1002fc4] = 0x22298
        0x01002fa4:    0048        H.      LSLS     r0,r1,#1
        0x01002fa6:    5a23        #Z      LDRH     r3,[r4,r0]
        0x01002fa8:    2000        .       MOVS     r0,#0
        0x01002faa:    4602        .F      MOV      r2,r0
        0x01002fac:    e003        ..      B        0x1002fb6 ; middle_mmu_free + 48
        0x01002fae:    180d        ..      ADDS     r5,r1,r0
        0x01002fb0:    006d        m.      LSLS     r5,r5,#1
        0x01002fb2:    5362        bS      STRH     r2,[r4,r5]
        0x01002fb4:    1c40        @.      ADDS     r0,r0,#1
        0x01002fb6:    4298        .B      CMP      r0,r3
        0x01002fb8:    dbf9        ..      BLT      0x1002fae ; middle_mmu_free + 40
        0x01002fba:    2000        .       MOVS     r0,#0
        0x01002fbc:    bd70        p.      POP      {r4-r6,pc}
    $d
        0x01002fbe:    0000        ..      DCW    0
        0x01002fc0:    00020a98    ....    DCD    133784
        0x01002fc4:    00022298    ."..    DCD    139928
        0x01002fc8:    20756d6d    mmu     DCD    544566637
        0x01002fcc:    65657266    free    DCD    1701147238
        0x01002fd0:    72726520     err    DCD    1920099616
        0x01002fd4:    0000726f    or..    DCD    29295
    $t
    .text
    period_execute
        0x01002fd8:    b510        ..      PUSH     {r4,lr}
        0x01002fda:    f7fffb69    ..i.    BL       hal_button_progress ; 0x10026b0
        0x01002fde:    2000        .       MOVS     r0,#0
        0x01002fe0:    bd10        ..      POP      {r4,pc}
    main
        0x01002fe2:    f7fffb97    ....    BL       hal_init ; 0x1002714
        0x01002fe6:    4819        .H      LDR      r0,[pc,#100] ; [0x100304c] = 0x1002fd9
        0x01002fe8:    f7fffb3a    ..:.    BL       hal_time_period_execute_register ; 0x1002660
        0x01002fec:    f7ffff98    ....    BL       middle_mmu_init ; 0x1002f20
        0x01002ff0:    f7ffff1e    ....    BL       middle_print_init ; 0x1002e30
        0x01002ff4:    a216        ..      ADR      r2,{pc}+0x5c ; 0x1003050
        0x01002ff6:    a118        ..      ADR      r1,{pc}+0x62 ; 0x1003058
        0x01002ff8:    a018        ..      ADR      r0,{pc}+0x64 ; 0x100305c
        0x01002ffa:    f7fff98d    ....    BL       hal_log_printf ; 0x1002318
        0x01002ffe:    2701        .'      MOVS     r7,#1
        0x01003000:    25ff        .%      MOVS     r5,#0xff
        0x01003002:    4e1e        .N      LDR      r6,[pc,#120] ; [0x100307c] = 0x22418
        0x01003004:    4c1e        .L      LDR      r4,[pc,#120] ; [0x1003080] = 0x20040
        0x01003006:    f7fffb6c    ..l.    BL       hal_button_value ; 0x10026e2
        0x0100300a:    2800        .(      CMP      r0,#0
        0x0100300c:    d006        ..      BEQ      0x100301c ; main + 58
        0x0100300e:    a210        ..      ADR      r2,{pc}+0x42 ; 0x1003050
        0x01003010:    a111        ..      ADR      r1,{pc}+0x48 ; 0x1003058
        0x01003012:    a01c        ..      ADR      r0,{pc}+0x72 ; 0x1003084
        0x01003014:    f7fff980    ....    BL       hal_log_printf ; 0x1002318
        0x01003018:    8027        '.      STRH     r7,[r4,#0]
        0x0100301a:    e004        ..      B        0x1003026 ; main + 68
        0x0100301c:    8820         .      LDRH     r0,[r4,#0]
        0x0100301e:    2800        .(      CMP      r0,#0
        0x01003020:    d012        ..      BEQ      0x1003048 ; main + 102
        0x01003022:    280a        .(      CMP      r0,#0xa
        0x01003024:    d210        ..      BCS      0x1003048 ; main + 102
        0x01003026:    2000        .       MOVS     r0,#0
        0x01003028:    5435        5T      STRB     r5,[r6,r0]
        0x0100302a:    1c40        @.      ADDS     r0,r0,#1
        0x0100302c:    2848        H(      CMP      r0,#0x48
        0x0100302e:    dbfb        ..      BLT      0x1003028 ; main + 70
        0x01003030:    2148        H!      MOVS     r1,#0x48
        0x01003032:    4812        .H      LDR      r0,[pc,#72] ; [0x100307c] = 0x22418
        0x01003034:    f7fffd2a    ..*.    BL       middle_print_list_put ; 0x1002a8c
        0x01003038:    2800        .(      CMP      r0,#0
        0x0100303a:    d102        ..      BNE      0x1003042 ; main + 96
        0x0100303c:    8820         .      LDRH     r0,[r4,#0]
        0x0100303e:    1c40        @.      ADDS     r0,r0,#1
        0x01003040:    8020         .      STRH     r0,[r4,#0]
        0x01003042:    f7fffedd    ....    BL       middle_print_progress ; 0x1002e00
        0x01003046:    e7de        ..      B        0x1003006 ; main + 36
        0x01003048:    2000        .       MOVS     r0,#0
        0x0100304a:    e7f9        ..      B        0x1003040 ; main + 94
    $d
        0x0100304c:    01002fd9    ./..    DCD    16789465
        0x01003050:    4e41494d    MIAN    DCD    1312901453
        0x01003054:    00000000    ....    DCD    0
        0x01003058:    00002020      ..    DCD    8224
        0x0100305c:    756c255b    [%lu    DCD    1970021723
        0x01003060:    257c205d    ] |%    DCD    628891741
        0x01003064:    382e382d    -8.8    DCD    942553133
        0x01003068:    6d207c73    s| m    DCD    1830845555
        0x0100306c:    206e6961    ain     DCD    544106849
        0x01003070:    6c696877    whil    DCD    1818847351
        0x01003074:    2e2e2065    e ..    DCD    774774885
        0x01003078:    000a0d2e    ....    DCD    658734
        0x0100307c:    00022418    .$..    DCD    140312
        0x01003080:    00020040    @...    DCD    131136
        0x01003084:    756c255b    [%lu    DCD    1970021723
        0x01003088:    257c205d    ] |%    DCD    628891741
        0x0100308c:    382e382d    -8.8    DCD    942553133
        0x01003090:    6b207c73    s| k    DCD    1797291123
        0x01003094:    72707965    eypr    DCD    1919973733
        0x01003098:    20737365    ess     DCD    544437093
        0x0100309c:    0d2e2e2e    ....    DCD    221130286
        0x010030a0:    0000000a    ....    DCD    10
    $t
    .text
    __aeabi_uidiv
    __aeabi_uidivmod
        0x010030a4:    b530        0.      PUSH     {r4,r5,lr}
        0x010030a6:    460b        .F      MOV      r3,r1
        0x010030a8:    4601        .F      MOV      r1,r0
        0x010030aa:    2000        .       MOVS     r0,#0
        0x010030ac:    2220         "      MOVS     r2,#0x20
        0x010030ae:    2401        .$      MOVS     r4,#1
        0x010030b0:    e009        ..      B        0x10030c6 ; __aeabi_uidiv + 34
        0x010030b2:    460d        .F      MOV      r5,r1
        0x010030b4:    40d5        .@      LSRS     r5,r5,r2
        0x010030b6:    429d        .B      CMP      r5,r3
        0x010030b8:    d305        ..      BCC      0x10030c6 ; __aeabi_uidiv + 34
        0x010030ba:    461d        .F      MOV      r5,r3
        0x010030bc:    4095        .@      LSLS     r5,r5,r2
        0x010030be:    1b49        I.      SUBS     r1,r1,r5
        0x010030c0:    4625        %F      MOV      r5,r4
        0x010030c2:    4095        .@      LSLS     r5,r5,r2
        0x010030c4:    1940        @.      ADDS     r0,r0,r5
        0x010030c6:    4615        .F      MOV      r5,r2
        0x010030c8:    1e52        R.      SUBS     r2,r2,#1
        0x010030ca:    2d00        .-      CMP      r5,#0
        0x010030cc:    dcf1        ..      BGT      0x10030b2 ; __aeabi_uidiv + 14
        0x010030ce:    bd30        0.      POP      {r4,r5,pc}
    .text
    __aeabi_idiv
    __aeabi_idivmod
        0x010030d0:    b570        p.      PUSH     {r4-r6,lr}
        0x010030d2:    2400        .$      MOVS     r4,#0
        0x010030d4:    4625        %F      MOV      r5,r4
        0x010030d6:    2800        .(      CMP      r0,#0
        0x010030d8:    da01        ..      BGE      0x10030de ; __aeabi_idiv + 14
        0x010030da:    2401        .$      MOVS     r4,#1
        0x010030dc:    4240        @B      RSBS     r0,r0,#0
        0x010030de:    2900        .)      CMP      r1,#0
        0x010030e0:    da01        ..      BGE      0x10030e6 ; __aeabi_idiv + 22
        0x010030e2:    2501        .%      MOVS     r5,#1
        0x010030e4:    4249        IB      RSBS     r1,r1,#0
        0x010030e6:    f7ffffdd    ....    BL       __aeabi_uidiv ; 0x10030a4
        0x010030ea:    42ac        .B      CMP      r4,r5
        0x010030ec:    d000        ..      BEQ      0x10030f0 ; __aeabi_idiv + 32
        0x010030ee:    4240        @B      RSBS     r0,r0,#0
        0x010030f0:    2c00        .,      CMP      r4,#0
        0x010030f2:    d000        ..      BEQ      0x10030f6 ; __aeabi_idiv + 38
        0x010030f4:    4249        IB      RSBS     r1,r1,#0
        0x010030f6:    bd70        p.      POP      {r4-r6,pc}
    .text
    __aeabi_memcpy
    __aeabi_memcpy4
    __aeabi_memcpy8
        0x010030f8:    4603        .F      MOV      r3,r0
        0x010030fa:    430b        .C      ORRS     r3,r3,r1
        0x010030fc:    079b        ..      LSLS     r3,r3,#30
        0x010030fe:    d003        ..      BEQ      0x1003108 ; __aeabi_memcpy + 16
        0x01003100:    e009        ..      B        0x1003116 ; __aeabi_memcpy + 30
        0x01003102:    c908        ..      LDM      r1!,{r3}
        0x01003104:    1f12        ..      SUBS     r2,r2,#4
        0x01003106:    c008        ..      STM      r0!,{r3}
        0x01003108:    2a04        .*      CMP      r2,#4
        0x0100310a:    d2fa        ..      BCS      0x1003102 ; __aeabi_memcpy + 10
        0x0100310c:    e003        ..      B        0x1003116 ; __aeabi_memcpy + 30
        0x0100310e:    780b        .x      LDRB     r3,[r1,#0]
        0x01003110:    7003        .p      STRB     r3,[r0,#0]
        0x01003112:    1c40        @.      ADDS     r0,r0,#1
        0x01003114:    1c49        I.      ADDS     r1,r1,#1
        0x01003116:    1e52        R.      SUBS     r2,r2,#1
        0x01003118:    d2f9        ..      BCS      0x100310e ; __aeabi_memcpy + 22
        0x0100311a:    4770        pG      BX       lr
    .text
    __aeabi_memset
    __aeabi_memset4
    __aeabi_memset8
        0x0100311c:    b2d2        ..      UXTB     r2,r2
        0x0100311e:    e001        ..      B        0x1003124 ; __aeabi_memset + 8
        0x01003120:    7002        .p      STRB     r2,[r0,#0]
        0x01003122:    1c40        @.      ADDS     r0,r0,#1
        0x01003124:    1e49        I.      SUBS     r1,r1,#1
        0x01003126:    d2fb        ..      BCS      0x1003120 ; __aeabi_memset + 4
        0x01003128:    4770        pG      BX       lr
    __aeabi_memclr
    __aeabi_memclr4
    __aeabi_memclr8
        0x0100312a:    2200        ."      MOVS     r2,#0
        0x0100312c:    e7f6        ..      B        __aeabi_memset ; 0x100311c
    _memset$wrapper
        0x0100312e:    b510        ..      PUSH     {r4,lr}
        0x01003130:    4613        .F      MOV      r3,r2
        0x01003132:    460a        .F      MOV      r2,r1
        0x01003134:    4604        .F      MOV      r4,r0
        0x01003136:    4619        .F      MOV      r1,r3
        0x01003138:    f7fffff0    ....    BL       __aeabi_memset ; 0x100311c
        0x0100313c:    4620         F      MOV      r0,r4
        0x0100313e:    bd10        ..      POP      {r4,pc}
    .text
    __aeabi_uread4
    __rt_uread4
    _uread4
        0x01003140:    2103        .!      MOVS     r1,#3
        0x01003142:    1d00        ..      ADDS     r0,r0,#4
        0x01003144:    1e40        @.      SUBS     r0,r0,#1
        0x01003146:    7803        .x      LDRB     r3,[r0,#0]
        0x01003148:    0212        ..      LSLS     r2,r2,#8
        0x0100314a:    431a        .C      ORRS     r2,r2,r3
        0x0100314c:    1e49        I.      SUBS     r1,r1,#1
        0x0100314e:    d5f9        ..      BPL      0x1003144 ; __aeabi_uread4 + 4
        0x01003150:    4610        .F      MOV      r0,r2
        0x01003152:    4770        pG      BX       lr
    .text
    __aeabi_uldivmod
        0x01003154:    b5f0        ..      PUSH     {r4-r7,lr}
        0x01003156:    b41f        ..      PUSH     {r0-r4}
        0x01003158:    4606        .F      MOV      r6,r0
        0x0100315a:    2000        .       MOVS     r0,#0
        0x0100315c:    b082        ..      SUB      sp,sp,#8
        0x0100315e:    4605        .F      MOV      r5,r0
        0x01003160:    2440        @$      MOVS     r4,#0x40
        0x01003162:    9101        ..      STR      r1,[sp,#4]
        0x01003164:    9000        ..      STR      r0,[sp,#0]
        0x01003166:    e01b        ..      B        0x10031a0 ; __aeabi_uldivmod + 76
        0x01003168:    9901        ..      LDR      r1,[sp,#4]
        0x0100316a:    4622        "F      MOV      r2,r4
        0x0100316c:    460f        .F      MOV      r7,r1
        0x0100316e:    4630        0F      MOV      r0,r6
        0x01003170:    f000fa08    ....    BL       __aeabi_llsr ; 0x1003584
        0x01003174:    9a04        ..      LDR      r2,[sp,#0x10]
        0x01003176:    9b05        ..      LDR      r3,[sp,#0x14]
        0x01003178:    1a80        ..      SUBS     r0,r0,r2
        0x0100317a:    4199        .A      SBCS     r1,r1,r3
        0x0100317c:    d310        ..      BCC      0x10031a0 ; __aeabi_uldivmod + 76
        0x0100317e:    4610        .F      MOV      r0,r2
        0x01003180:    4619        .F      MOV      r1,r3
        0x01003182:    4622        "F      MOV      r2,r4
        0x01003184:    f000f9ee    ....    BL       __aeabi_llsl ; 0x1003564
        0x01003188:    1a36        6.      SUBS     r6,r6,r0
        0x0100318a:    418f        .A      SBCS     r7,r7,r1
        0x0100318c:    9701        ..      STR      r7,[sp,#4]
        0x0100318e:    4622        "F      MOV      r2,r4
        0x01003190:    2001        .       MOVS     r0,#1
        0x01003192:    2100        .!      MOVS     r1,#0
        0x01003194:    9f00        ..      LDR      r7,[sp,#0]
        0x01003196:    f000f9e5    ....    BL       __aeabi_llsl ; 0x1003564
        0x0100319a:    1838        8.      ADDS     r0,r7,r0
        0x0100319c:    414d        MA      ADCS     r5,r5,r1
        0x0100319e:    9000        ..      STR      r0,[sp,#0]
        0x010031a0:    4620         F      MOV      r0,r4
        0x010031a2:    1e64        d.      SUBS     r4,r4,#1
        0x010031a4:    2800        .(      CMP      r0,#0
        0x010031a6:    dcdf        ..      BGT      0x1003168 ; __aeabi_uldivmod + 20
        0x010031a8:    9b01        ..      LDR      r3,[sp,#4]
        0x010031aa:    9800        ..      LDR      r0,[sp,#0]
        0x010031ac:    4629        )F      MOV      r1,r5
        0x010031ae:    4632        2F      MOV      r2,r6
        0x010031b0:    b007        ..      ADD      sp,sp,#0x1c
        0x010031b2:    bdf0        ..      POP      {r4-r7,pc}
    .text
    .text
    __I$use$fp
    __aeabi_dadd
        0x010031b4:    b5f0        ..      PUSH     {r4-r7,lr}
        0x010031b6:    4607        .F      MOV      r7,r0
        0x010031b8:    4608        .F      MOV      r0,r1
        0x010031ba:    4058        X@      EORS     r0,r0,r3
        0x010031bc:    b087        ..      SUB      sp,sp,#0x1c
        0x010031be:    0fc0        ..      LSRS     r0,r0,#31
        0x010031c0:    9004        ..      STR      r0,[sp,#0x10]
        0x010031c2:    0048        H.      LSLS     r0,r1,#1
        0x010031c4:    460e        .F      MOV      r6,r1
        0x010031c6:    0059        Y.      LSLS     r1,r3,#1
        0x010031c8:    0840        @.      LSRS     r0,r0,#1
        0x010031ca:    0849        I.      LSRS     r1,r1,#1
        0x010031cc:    1abc        ..      SUBS     r4,r7,r2
        0x010031ce:    4188        .A      SBCS     r0,r0,r1
        0x010031d0:    d205        ..      BCS      0x10031de ; __I$use$fp + 42
        0x010031d2:    4638        8F      MOV      r0,r7
        0x010031d4:    4631        1F      MOV      r1,r6
        0x010031d6:    461e        .F      MOV      r6,r3
        0x010031d8:    4617        .F      MOV      r7,r2
        0x010031da:    460b        .F      MOV      r3,r1
        0x010031dc:    4602        .F      MOV      r2,r0
        0x010031de:    0058        X.      LSLS     r0,r3,#1
        0x010031e0:    0840        @.      LSRS     r0,r0,#1
        0x010031e2:    4310        .C      ORRS     r0,r0,r2
        0x010031e4:    d04c        L.      BEQ      0x1003280 ; __I$use$fp + 204
        0x010031e6:    0d30        0.      LSRS     r0,r6,#20
        0x010031e8:    9003        ..      STR      r0,[sp,#0xc]
        0x010031ea:    0540        @.      LSLS     r0,r0,#21
        0x010031ec:    0059        Y.      LSLS     r1,r3,#1
        0x010031ee:    0d40        @.      LSRS     r0,r0,#21
        0x010031f0:    0d49        I.      LSRS     r1,r1,#21
        0x010031f2:    9005        ..      STR      r0,[sp,#0x14]
        0x010031f4:    1a40        @.      SUBS     r0,r0,r1
        0x010031f6:    9002        ..      STR      r0,[sp,#8]
        0x010031f8:    2840        @(      CMP      r0,#0x40
        0x010031fa:    da72        r.      BGE      0x10032e2 ; __I$use$fp + 302
        0x010031fc:    0318        ..      LSLS     r0,r3,#12
        0x010031fe:    2101        .!      MOVS     r1,#1
        0x01003200:    0b00        ..      LSRS     r0,r0,#12
        0x01003202:    0509        ..      LSLS     r1,r1,#20
        0x01003204:    4308        .C      ORRS     r0,r0,r1
        0x01003206:    9001        ..      STR      r0,[sp,#4]
        0x01003208:    9804        ..      LDR      r0,[sp,#0x10]
        0x0100320a:    9200        ..      STR      r2,[sp,#0]
        0x0100320c:    2800        .(      CMP      r0,#0
        0x0100320e:    d005        ..      BEQ      0x100321c ; __I$use$fp + 104
        0x01003210:    9901        ..      LDR      r1,[sp,#4]
        0x01003212:    4252        RB      RSBS     r2,r2,#0
        0x01003214:    2000        .       MOVS     r0,#0
        0x01003216:    4188        .A      SBCS     r0,r0,r1
        0x01003218:    9200        ..      STR      r2,[sp,#0]
        0x0100321a:    9001        ..      STR      r0,[sp,#4]
        0x0100321c:    9802        ..      LDR      r0,[sp,#8]
        0x0100321e:    2140        @!      MOVS     r1,#0x40
        0x01003220:    1a0a        ..      SUBS     r2,r1,r0
        0x01003222:    9901        ..      LDR      r1,[sp,#4]
        0x01003224:    9800        ..      LDR      r0,[sp,#0]
        0x01003226:    f000f99d    ....    BL       __aeabi_llsl ; 0x1003564
        0x0100322a:    4605        .F      MOV      r5,r0
        0x0100322c:    460c        .F      MOV      r4,r1
        0x0100322e:    466b        kF      MOV      r3,sp
        0x01003230:    cb07        ..      LDM      r3!,{r0-r2}
        0x01003232:    f000f9b8    ....    BL       __aeabi_lasr ; 0x10035a6
        0x01003236:    19c0        ..      ADDS     r0,r0,r7
        0x01003238:    4171        qA      ADCS     r1,r1,r6
        0x0100323a:    9a03        ..      LDR      r2,[sp,#0xc]
        0x0100323c:    0d0e        ..      LSRS     r6,r1,#20
        0x0100323e:    2300        .#      MOVS     r3,#0
        0x01003240:    17d7        ..      ASRS     r7,r2,#31
        0x01003242:    4056        V@      EORS     r6,r6,r2
        0x01003244:    461a        .F      MOV      r2,r3
        0x01003246:    407a        z@      EORS     r2,r2,r7
        0x01003248:    4316        .C      ORRS     r6,r6,r2
        0x0100324a:    d044        D.      BEQ      0x10032d6 ; __I$use$fp + 290
        0x0100324c:    9a04        ..      LDR      r2,[sp,#0x10]
        0x0100324e:    2a00        .*      CMP      r2,#0
        0x01003250:    d02d        -.      BEQ      0x10032ae ; __I$use$fp + 250
        0x01003252:    9a02        ..      LDR      r2,[sp,#8]
        0x01003254:    2a01        .*      CMP      r2,#1
        0x01003256:    9a03        ..      LDR      r2,[sp,#0xc]
        0x01003258:    dc15        ..      BGT      0x1003286 ; __I$use$fp + 210
        0x0100325a:    0512        ..      LSLS     r2,r2,#20
        0x0100325c:    1ac0        ..      SUBS     r0,r0,r3
        0x0100325e:    4191        .A      SBCS     r1,r1,r2
        0x01003260:    2601        .&      MOVS     r6,#1
        0x01003262:    0536        6.      LSLS     r6,r6,#20
        0x01003264:    1c00        ..      ADDS     r0,r0,#0
        0x01003266:    4171        qA      ADCS     r1,r1,r6
        0x01003268:    0fd2        ..      LSRS     r2,r2,#31
        0x0100326a:    9e05        ..      LDR      r6,[sp,#0x14]
        0x0100326c:    07d2        ..      LSLS     r2,r2,#31
        0x0100326e:    9300        ..      STR      r3,[sp,#0]
        0x01003270:    9201        ..      STR      r2,[sp,#4]
        0x01003272:    9602        ..      STR      r6,[sp,#8]
        0x01003274:    462a        *F      MOV      r2,r5
        0x01003276:    4623        #F      MOV      r3,r4
        0x01003278:    f000f9b5    ....    BL       _double_epilogue ; 0x10035e6
        0x0100327c:    b007        ..      ADD      sp,sp,#0x1c
        0x0100327e:    bdf0        ..      POP      {r4-r7,pc}
        0x01003280:    4638        8F      MOV      r0,r7
        0x01003282:    4631        1F      MOV      r1,r6
        0x01003284:    e7fa        ..      B        0x100327c ; __I$use$fp + 200
        0x01003286:    0516        ..      LSLS     r6,r2,#20
        0x01003288:    4a22        "J      LDR      r2,[pc,#136] ; [0x1003314] = 0xffe00000
        0x0100328a:    460f        .F      MOV      r7,r1
        0x0100328c:    18b2        ..      ADDS     r2,r6,r2
        0x0100328e:    1ac0        ..      SUBS     r0,r0,r3
        0x01003290:    41b7        .A      SBCS     r7,r7,r6
        0x01003292:    2101        .!      MOVS     r1,#1
        0x01003294:    0509        ..      LSLS     r1,r1,#20
        0x01003296:    1c00        ..      ADDS     r0,r0,#0
        0x01003298:    414f        OA      ADCS     r7,r7,r1
        0x0100329a:    1800        ..      ADDS     r0,r0,r0
        0x0100329c:    417f        .A      ADCS     r7,r7,r7
        0x0100329e:    4611        .F      MOV      r1,r2
        0x010032a0:    1818        ..      ADDS     r0,r3,r0
        0x010032a2:    4179        yA      ADCS     r1,r1,r7
        0x010032a4:    0fe2        ..      LSRS     r2,r4,#31
        0x010032a6:    4310        .C      ORRS     r0,r0,r2
        0x010032a8:    196d        m.      ADDS     r5,r5,r5
        0x010032aa:    4164        dA      ADCS     r4,r4,r4
        0x010032ac:    e013        ..      B        0x10032d6 ; __I$use$fp + 290
        0x010032ae:    07e2        ..      LSLS     r2,r4,#31
        0x010032b0:    086d        m.      LSRS     r5,r5,#1
        0x010032b2:    4315        .C      ORRS     r5,r5,r2
        0x010032b4:    0864        d.      LSRS     r4,r4,#1
        0x010032b6:    07c2        ..      LSLS     r2,r0,#31
        0x010032b8:    4314        .C      ORRS     r4,r4,r2
        0x010032ba:    9a03        ..      LDR      r2,[sp,#0xc]
        0x010032bc:    2601        .&      MOVS     r6,#1
        0x010032be:    0512        ..      LSLS     r2,r2,#20
        0x010032c0:    1ac0        ..      SUBS     r0,r0,r3
        0x010032c2:    4191        .A      SBCS     r1,r1,r2
        0x010032c4:    0536        6.      LSLS     r6,r6,#20
        0x010032c6:    1c00        ..      ADDS     r0,r0,#0
        0x010032c8:    4171        qA      ADCS     r1,r1,r6
        0x010032ca:    07ce        ..      LSLS     r6,r1,#31
        0x010032cc:    0840        @.      LSRS     r0,r0,#1
        0x010032ce:    4330        0C      ORRS     r0,r0,r6
        0x010032d0:    0849        I.      LSRS     r1,r1,#1
        0x010032d2:    18c0        ..      ADDS     r0,r0,r3
        0x010032d4:    4151        QA      ADCS     r1,r1,r2
        0x010032d6:    462a        *F      MOV      r2,r5
        0x010032d8:    4623        #F      MOV      r3,r4
        0x010032da:    f000f977    ..w.    BL       _double_round ; 0x10035cc
        0x010032de:    e7cd        ..      B        0x100327c ; __I$use$fp + 200
        0x010032e0:    e7ff        ..      B        0x10032e2 ; __I$use$fp + 302
        0x010032e2:    9804        ..      LDR      r0,[sp,#0x10]
        0x010032e4:    2201        ."      MOVS     r2,#1
        0x010032e6:    0040        @.      LSLS     r0,r0,#1
        0x010032e8:    17c1        ..      ASRS     r1,r0,#31
        0x010032ea:    1a12        ..      SUBS     r2,r2,r0
        0x010032ec:    2300        .#      MOVS     r3,#0
        0x010032ee:    418b        .A      SBCS     r3,r3,r1
        0x010032f0:    9804        ..      LDR      r0,[sp,#0x10]
        0x010032f2:    4631        1F      MOV      r1,r6
        0x010032f4:    17c4        ..      ASRS     r4,r0,#31
        0x010032f6:    1a38        8.      SUBS     r0,r7,r0
        0x010032f8:    41a1        .A      SBCS     r1,r1,r4
        0x010032fa:    e7ee        ..      B        0x10032da ; __I$use$fp + 294
    __aeabi_dsub
        0x010032fc:    b430        0.      PUSH     {r4,r5}
        0x010032fe:    2401        .$      MOVS     r4,#1
        0x01003300:    07e4        ..      LSLS     r4,r4,#31
        0x01003302:    4063        c@      EORS     r3,r3,r4
        0x01003304:    bc30        0.      POP      {r4,r5}
        0x01003306:    e755        U.      B        __I$use$fp ; 0x10031b4
    __aeabi_drsub
        0x01003308:    b430        0.      PUSH     {r4,r5}
        0x0100330a:    2401        .$      MOVS     r4,#1
        0x0100330c:    07e4        ..      LSLS     r4,r4,#31
        0x0100330e:    4061        a@      EORS     r1,r1,r4
        0x01003310:    bc30        0.      POP      {r4,r5}
        0x01003312:    e74f        O.      B        __I$use$fp ; 0x10031b4
    $d
        0x01003314:    ffe00000    ....    DCD    4292870144
    $t
    .text
    __aeabi_dmul
        0x01003318:    b5f0        ..      PUSH     {r4-r7,lr}
        0x0100331a:    b41f        ..      PUSH     {r0-r4}
        0x0100331c:    b088        ..      SUB      sp,sp,#0x20
        0x0100331e:    990b        ..      LDR      r1,[sp,#0x2c]
        0x01003320:    9809        ..      LDR      r0,[sp,#0x24]
        0x01003322:    2400        .$      MOVS     r4,#0
        0x01003324:    4048        H@      EORS     r0,r0,r1
        0x01003326:    9909        ..      LDR      r1,[sp,#0x24]
        0x01003328:    0fc0        ..      LSRS     r0,r0,#31
        0x0100332a:    0049        I.      LSLS     r1,r1,#1
        0x0100332c:    0849        I.      LSRS     r1,r1,#1
        0x0100332e:    9109        ..      STR      r1,[sp,#0x24]
        0x01003330:    07c0        ..      LSLS     r0,r0,#31
        0x01003332:    990b        ..      LDR      r1,[sp,#0x2c]
        0x01003334:    9000        ..      STR      r0,[sp,#0]
        0x01003336:    0049        I.      LSLS     r1,r1,#1
        0x01003338:    0849        I.      LSRS     r1,r1,#1
        0x0100333a:    910b        ..      STR      r1,[sp,#0x2c]
        0x0100333c:    9909        ..      LDR      r1,[sp,#0x24]
        0x0100333e:    9808        ..      LDR      r0,[sp,#0x20]
        0x01003340:    46a6        .F      MOV      lr,r4
        0x01003342:    4308        .C      ORRS     r0,r0,r1
        0x01003344:    d01c        ..      BEQ      0x1003380 ; __aeabi_dmul + 104
        0x01003346:    990b        ..      LDR      r1,[sp,#0x2c]
        0x01003348:    980a        ..      LDR      r0,[sp,#0x28]
        0x0100334a:    4308        .C      ORRS     r0,r0,r1
        0x0100334c:    d018        ..      BEQ      0x1003380 ; __aeabi_dmul + 104
        0x0100334e:    9809        ..      LDR      r0,[sp,#0x24]
        0x01003350:    2401        .$      MOVS     r4,#1
        0x01003352:    0040        @.      LSLS     r0,r0,#1
        0x01003354:    0d42        B.      LSRS     r2,r0,#21
        0x01003356:    0048        H.      LSLS     r0,r1,#1
        0x01003358:    0d41        A.      LSRS     r1,r0,#21
        0x0100335a:    9809        ..      LDR      r0,[sp,#0x24]
        0x0100335c:    0524        $.      LSLS     r4,r4,#20
        0x0100335e:    0300        ..      LSLS     r0,r0,#12
        0x01003360:    0b00        ..      LSRS     r0,r0,#12
        0x01003362:    4320         C      ORRS     r0,r0,r4
        0x01003364:    9009        ..      STR      r0,[sp,#0x24]
        0x01003366:    980b        ..      LDR      r0,[sp,#0x2c]
        0x01003368:    0300        ..      LSLS     r0,r0,#12
        0x0100336a:    0b00        ..      LSRS     r0,r0,#12
        0x0100336c:    4320         C      ORRS     r0,r0,r4
        0x0100336e:    900b        ..      STR      r0,[sp,#0x2c]
        0x01003370:    1850        P.      ADDS     r0,r2,r1
        0x01003372:    491c        .I      LDR      r1,[pc,#112] ; [0x10033e4] = 0xfffffc0d
        0x01003374:    1840        @.      ADDS     r0,r0,r1
        0x01003376:    2200        ."      MOVS     r2,#0
        0x01003378:    9001        ..      STR      r0,[sp,#4]
        0x0100337a:    4614        .F      MOV      r4,r2
        0x0100337c:    4610        .F      MOV      r0,r2
        0x0100337e:    e005        ..      B        0x100338c ; __aeabi_dmul + 116
        0x01003380:    2000        .       MOVS     r0,#0
        0x01003382:    4601        .F      MOV      r1,r0
        0x01003384:    b00d        ..      ADD      sp,sp,#0x34
        0x01003386:    bdf0        ..      POP      {r4-r7,pc}
        0x01003388:    2803        .(      CMP      r0,#3
        0x0100338a:    da01        ..      BGE      0x1003390 ; __aeabi_dmul + 120
        0x0100338c:    4603        .F      MOV      r3,r0
        0x0100338e:    e000        ..      B        0x1003392 ; __aeabi_dmul + 122
        0x01003390:    2303        .#      MOVS     r3,#3
        0x01003392:    469c        .F      MOV      r12,r3
        0x01003394:    1ac1        ..      SUBS     r1,r0,r3
        0x01003396:    ae0a        ..      ADD      r6,sp,#0x28
        0x01003398:    e00a        ..      B        0x10033b0 ; __aeabi_dmul + 152
        0x0100339a:    005f        _.      LSLS     r7,r3,#1
        0x0100339c:    ad08        ..      ADD      r5,sp,#0x20
        0x0100339e:    5bed        .[      LDRH     r5,[r5,r7]
        0x010033a0:    004f        O.      LSLS     r7,r1,#1
        0x010033a2:    5bf7        .[      LDRH     r7,[r6,r7]
        0x010033a4:    437d        }C      MULS     r5,r7,r5
        0x010033a6:    2700        .'      MOVS     r7,#0
        0x010033a8:    18aa        ..      ADDS     r2,r5,r2
        0x010033aa:    417c        |A      ADCS     r4,r4,r7
        0x010033ac:    1c49        I.      ADDS     r1,r1,#1
        0x010033ae:    1e5b        [.      SUBS     r3,r3,#1
        0x010033b0:    4561        aE      CMP      r1,r12
        0x010033b2:    ddf2        ..      BLE      0x100339a ; __aeabi_dmul + 130
        0x010033b4:    0041        A.      LSLS     r1,r0,#1
        0x010033b6:    ab04        ..      ADD      r3,sp,#0x10
        0x010033b8:    525a        ZR      STRH     r2,[r3,r1]
        0x010033ba:    0421        !.      LSLS     r1,r4,#16
        0x010033bc:    0c12        ..      LSRS     r2,r2,#16
        0x010033be:    430a        .C      ORRS     r2,r2,r1
        0x010033c0:    0c24        $.      LSRS     r4,r4,#16
        0x010033c2:    1c40        @.      ADDS     r0,r0,#1
        0x010033c4:    2808        .(      CMP      r0,#8
        0x010033c6:    dbdf        ..      BLT      0x1003388 ; __aeabi_dmul + 112
        0x010033c8:    9801        ..      LDR      r0,[sp,#4]
        0x010033ca:    9002        ..      STR      r0,[sp,#8]
        0x010033cc:    9900        ..      LDR      r1,[sp,#0]
        0x010033ce:    4670        pF      MOV      r0,lr
        0x010033d0:    9101        ..      STR      r1,[sp,#4]
        0x010033d2:    9000        ..      STR      r0,[sp,#0]
        0x010033d4:    9b05        ..      LDR      r3,[sp,#0x14]
        0x010033d6:    9a04        ..      LDR      r2,[sp,#0x10]
        0x010033d8:    9907        ..      LDR      r1,[sp,#0x1c]
        0x010033da:    9806        ..      LDR      r0,[sp,#0x18]
        0x010033dc:    f000f903    ....    BL       _double_epilogue ; 0x10035e6
        0x010033e0:    e7d0        ..      B        0x1003384 ; __aeabi_dmul + 108
    $d
        0x010033e2:    0000        ..      DCW    0
        0x010033e4:    fffffc0d    ....    DCD    4294966285
    $t
    .text
    __aeabi_ddiv
        0x010033e8:    b5f0        ..      PUSH     {r4-r7,lr}
        0x010033ea:    460c        .F      MOV      r4,r1
        0x010033ec:    405c        \@      EORS     r4,r4,r3
        0x010033ee:    b085        ..      SUB      sp,sp,#0x14
        0x010033f0:    0fe4        ..      LSRS     r4,r4,#31
        0x010033f2:    07e4        ..      LSLS     r4,r4,#31
        0x010033f4:    9403        ..      STR      r4,[sp,#0xc]
        0x010033f6:    004c        L.      LSLS     r4,r1,#1
        0x010033f8:    2600        .&      MOVS     r6,#0
        0x010033fa:    0864        d.      LSRS     r4,r4,#1
        0x010033fc:    0059        Y.      LSLS     r1,r3,#1
        0x010033fe:    4694        .F      MOV      r12,r2
        0x01003400:    0849        I.      LSRS     r1,r1,#1
        0x01003402:    4602        .F      MOV      r2,r0
        0x01003404:    9602        ..      STR      r6,[sp,#8]
        0x01003406:    4322        "C      ORRS     r2,r2,r4
        0x01003408:    d021        !.      BEQ      0x100344e ; __aeabi_ddiv + 102
        0x0100340a:    4662        bF      MOV      r2,r12
        0x0100340c:    430a        .C      ORRS     r2,r2,r1
        0x0100340e:    d01e        ..      BEQ      0x100344e ; __aeabi_ddiv + 102
        0x01003410:    0062        b.      LSLS     r2,r4,#1
        0x01003412:    0d57        W.      LSRS     r7,r2,#21
        0x01003414:    004a        J.      LSLS     r2,r1,#1
        0x01003416:    030e        ..      LSLS     r6,r1,#12
        0x01003418:    0323        #.      LSLS     r3,r4,#12
        0x0100341a:    0d55        U.      LSRS     r5,r2,#21
        0x0100341c:    2401        .$      MOVS     r4,#1
        0x0100341e:    4602        .F      MOV      r2,r0
        0x01003420:    492c        ,I      LDR      r1,[pc,#176] ; [0x10034d4] = 0x3fd
        0x01003422:    0524        $.      LSLS     r4,r4,#20
        0x01003424:    1b78        x.      SUBS     r0,r7,r5
        0x01003426:    0b1b        ..      LSRS     r3,r3,#12
        0x01003428:    0b36        6.      LSRS     r6,r6,#12
        0x0100342a:    1840        @.      ADDS     r0,r0,r1
        0x0100342c:    4323        #C      ORRS     r3,r3,r4
        0x0100342e:    4326        &C      ORRS     r6,r6,r4
        0x01003430:    4661        aF      MOV      r1,r12
        0x01003432:    9000        ..      STR      r0,[sp,#0]
        0x01003434:    461c        .F      MOV      r4,r3
        0x01003436:    1a50        P.      SUBS     r0,r2,r1
        0x01003438:    41b4        .A      SBCS     r4,r4,r6
        0x0100343a:    d303        ..      BCC      0x1003444 ; __aeabi_ddiv + 92
        0x0100343c:    9800        ..      LDR      r0,[sp,#0]
        0x0100343e:    1c40        @.      ADDS     r0,r0,#1
        0x01003440:    9000        ..      STR      r0,[sp,#0]
        0x01003442:    e002        ..      B        0x100344a ; __aeabi_ddiv + 98
        0x01003444:    1892        ..      ADDS     r2,r2,r2
        0x01003446:    9800        ..      LDR      r0,[sp,#0]
        0x01003448:    415b        [A      ADCS     r3,r3,r3
        0x0100344a:    2800        .(      CMP      r0,#0
        0x0100344c:    da03        ..      BGE      0x1003456 ; __aeabi_ddiv + 110
        0x0100344e:    2000        .       MOVS     r0,#0
        0x01003450:    4601        .F      MOV      r1,r0
        0x01003452:    b005        ..      ADD      sp,sp,#0x14
        0x01003454:    bdf0        ..      POP      {r4-r7,pc}
        0x01003456:    2000        .       MOVS     r0,#0
        0x01003458:    2101        .!      MOVS     r1,#1
        0x0100345a:    0509        ..      LSLS     r1,r1,#20
        0x0100345c:    4607        .F      MOV      r7,r0
        0x0100345e:    4686        .F      MOV      lr,r0
        0x01003460:    e011        ..      B        0x1003486 ; __aeabi_ddiv + 158
        0x01003462:    4664        dF      MOV      r4,r12
        0x01003464:    461d        .F      MOV      r5,r3
        0x01003466:    1b14        ..      SUBS     r4,r2,r4
        0x01003468:    41b5        .A      SBCS     r5,r5,r6
        0x0100346a:    d306        ..      BCC      0x100347a ; __aeabi_ddiv + 146
        0x0100346c:    4665        eF      MOV      r5,r12
        0x0100346e:    1b52        R.      SUBS     r2,r2,r5
        0x01003470:    41b3        .A      SBCS     r3,r3,r6
        0x01003472:    4674        tF      MOV      r4,lr
        0x01003474:    4307        .C      ORRS     r7,r7,r0
        0x01003476:    430c        .C      ORRS     r4,r4,r1
        0x01003478:    46a6        .F      MOV      lr,r4
        0x0100347a:    07cd        ..      LSLS     r5,r1,#31
        0x0100347c:    0840        @.      LSRS     r0,r0,#1
        0x0100347e:    0849        I.      LSRS     r1,r1,#1
        0x01003480:    4328        (C      ORRS     r0,r0,r5
        0x01003482:    1892        ..      ADDS     r2,r2,r2
        0x01003484:    415b        [A      ADCS     r3,r3,r3
        0x01003486:    4605        .F      MOV      r5,r0
        0x01003488:    430d        .C      ORRS     r5,r5,r1
        0x0100348a:    d1ea        ..      BNE      0x1003462 ; __aeabi_ddiv + 122
        0x0100348c:    4610        .F      MOV      r0,r2
        0x0100348e:    4318        .C      ORRS     r0,r0,r3
        0x01003490:    d013        ..      BEQ      0x10034ba ; __aeabi_ddiv + 210
        0x01003492:    4660        `F      MOV      r0,r12
        0x01003494:    4619        .F      MOV      r1,r3
        0x01003496:    4050        P@      EORS     r0,r0,r2
        0x01003498:    4071        q@      EORS     r1,r1,r6
        0x0100349a:    4308        .C      ORRS     r0,r0,r1
        0x0100349c:    d006        ..      BEQ      0x10034ac ; __aeabi_ddiv + 196
        0x0100349e:    4660        `F      MOV      r0,r12
        0x010034a0:    1a10        ..      SUBS     r0,r2,r0
        0x010034a2:    41b3        .A      SBCS     r3,r3,r6
        0x010034a4:    d206        ..      BCS      0x10034b4 ; __aeabi_ddiv + 204
        0x010034a6:    2201        ."      MOVS     r2,#1
        0x010034a8:    2300        .#      MOVS     r3,#0
        0x010034aa:    e006        ..      B        0x10034ba ; __aeabi_ddiv + 210
        0x010034ac:    2200        ."      MOVS     r2,#0
        0x010034ae:    2301        .#      MOVS     r3,#1
        0x010034b0:    07db        ..      LSLS     r3,r3,#31
        0x010034b2:    e002        ..      B        0x10034ba ; __aeabi_ddiv + 210
        0x010034b4:    2201        ."      MOVS     r2,#1
        0x010034b6:    43d2        .C      MVNS     r2,r2
        0x010034b8:    1053        S.      ASRS     r3,r2,#1
        0x010034ba:    9800        ..      LDR      r0,[sp,#0]
        0x010034bc:    4674        tF      MOV      r4,lr
        0x010034be:    0501        ..      LSLS     r1,r0,#20
        0x010034c0:    1c38        8.      ADDS     r0,r7,#0
        0x010034c2:    4161        aA      ADCS     r1,r1,r4
        0x010034c4:    9c02        ..      LDR      r4,[sp,#8]
        0x010034c6:    9d03        ..      LDR      r5,[sp,#0xc]
        0x010034c8:    1900        ..      ADDS     r0,r0,r4
        0x010034ca:    4169        iA      ADCS     r1,r1,r5
        0x010034cc:    f000f87e    ..~.    BL       _double_round ; 0x10035cc
        0x010034d0:    e7bf        ..      B        0x1003452 ; __aeabi_ddiv + 106
    $d
        0x010034d2:    0000        ..      DCW    0
        0x010034d4:    000003fd    ....    DCD    1021
    $t
    .text
    __aeabi_d2ulz
        0x010034d8:    004a        J.      LSLS     r2,r1,#1
        0x010034da:    0309        ..      LSLS     r1,r1,#12
        0x010034dc:    2301        .#      MOVS     r3,#1
        0x010034de:    0b09        ..      LSRS     r1,r1,#12
        0x010034e0:    051b        ..      LSLS     r3,r3,#20
        0x010034e2:    4319        .C      ORRS     r1,r1,r3
        0x010034e4:    4b0a        .K      LDR      r3,[pc,#40] ; [0x1003510] = 0x3ff
        0x010034e6:    b510        ..      PUSH     {r4,lr}
        0x010034e8:    0d52        R.      LSRS     r2,r2,#21
        0x010034ea:    429a        .B      CMP      r2,r3
        0x010034ec:    da02        ..      BGE      0x10034f4 ; __aeabi_d2ulz + 28
        0x010034ee:    2000        .       MOVS     r0,#0
        0x010034f0:    4601        .F      MOV      r1,r0
        0x010034f2:    bd10        ..      POP      {r4,pc}
        0x010034f4:    4b06        .K      LDR      r3,[pc,#24] ; [0x1003510] = 0x3ff
        0x010034f6:    3334        43      ADDS     r3,r3,#0x34
        0x010034f8:    429a        .B      CMP      r2,r3
        0x010034fa:    dc03        ..      BGT      0x1003504 ; __aeabi_d2ulz + 44
        0x010034fc:    1a9a        ..      SUBS     r2,r3,r2
        0x010034fe:    f000f841    ..A.    BL       __aeabi_llsr ; 0x1003584
        0x01003502:    bd10        ..      POP      {r4,pc}
        0x01003504:    4b03        .K      LDR      r3,[pc,#12] ; [0x1003514] = 0xfffffbcd
        0x01003506:    18d2        ..      ADDS     r2,r2,r3
        0x01003508:    f000f82c    ..,.    BL       __aeabi_llsl ; 0x1003564
        0x0100350c:    bd10        ..      POP      {r4,pc}
    $d
        0x0100350e:    0000        ..      DCW    0
        0x01003510:    000003ff    ....    DCD    1023
        0x01003514:    fffffbcd    ....    DCD    4294966221
    $t
    .text
    __aeabi_cdrcmple
        0x01003518:    b510        ..      PUSH     {r4,lr}
        0x0100351a:    2900        .)      CMP      r1,#0
        0x0100351c:    db04        ..      BLT      0x1003528 ; __aeabi_cdrcmple + 16
        0x0100351e:    2401        .$      MOVS     r4,#1
        0x01003520:    07e4        ..      LSLS     r4,r4,#31
        0x01003522:    4240        @B      RSBS     r0,r0,#0
        0x01003524:    418c        .A      SBCS     r4,r4,r1
        0x01003526:    4621        !F      MOV      r1,r4
        0x01003528:    2b00        .+      CMP      r3,#0
        0x0100352a:    db04        ..      BLT      0x1003536 ; __aeabi_cdrcmple + 30
        0x0100352c:    461c        .F      MOV      r4,r3
        0x0100352e:    2301        .#      MOVS     r3,#1
        0x01003530:    07db        ..      LSLS     r3,r3,#31
        0x01003532:    4252        RB      RSBS     r2,r2,#0
        0x01003534:    41a3        .A      SBCS     r3,r3,r4
        0x01003536:    4299        .B      CMP      r1,r3
        0x01003538:    d100        ..      BNE      0x100353c ; __aeabi_cdrcmple + 36
        0x0100353a:    4290        .B      CMP      r0,r2
        0x0100353c:    bd10        ..      POP      {r4,pc}
    $d
        0x0100353e:    0000        ..      DCW    0
    $t
    .text
    __scatterload
    __scatterload_rt2
        0x01003540:    4c06        .L      LDR      r4,[pc,#24] ; [0x100355c] = 0x1004e18
        0x01003542:    2501        .%      MOVS     r5,#1
        0x01003544:    4e06        .N      LDR      r6,[pc,#24] ; [0x1003560] = 0x1004e38
        0x01003546:    e005        ..      B        0x1003554 ; __scatterload + 20
        0x01003548:    68e3        .h      LDR      r3,[r4,#0xc]
        0x0100354a:    cc07        ..      LDM      r4!,{r0-r2}
        0x0100354c:    432b        +C      ORRS     r3,r3,r5
        0x0100354e:    3c0c        .<      SUBS     r4,r4,#0xc
        0x01003550:    4798        .G      BLX      r3
        0x01003552:    3410        .4      ADDS     r4,r4,#0x10
        0x01003554:    42b4        .B      CMP      r4,r6
        0x01003556:    d3f7        ..      BCC      0x1003548 ; __scatterload + 8
        0x01003558:    f7fcff56    ..V.    BL       __main_after_scatterload ; 0x1000408
    $d
        0x0100355c:    01004e18    .N..    DCD    16797208
        0x01003560:    01004e38    8N..    DCD    16797240
    $t
    .text
    __aeabi_llsl
    _ll_shift_l
        0x01003564:    b510        ..      PUSH     {r4,lr}
        0x01003566:    2a20         *      CMP      r2,#0x20
        0x01003568:    db04        ..      BLT      0x1003574 ; __aeabi_llsl + 16
        0x0100356a:    4601        .F      MOV      r1,r0
        0x0100356c:    3a20         :      SUBS     r2,r2,#0x20
        0x0100356e:    4091        .@      LSLS     r1,r1,r2
        0x01003570:    2000        .       MOVS     r0,#0
        0x01003572:    bd10        ..      POP      {r4,pc}
        0x01003574:    4091        .@      LSLS     r1,r1,r2
        0x01003576:    2320         #      MOVS     r3,#0x20
        0x01003578:    1a9c        ..      SUBS     r4,r3,r2
        0x0100357a:    4603        .F      MOV      r3,r0
        0x0100357c:    40e3        .@      LSRS     r3,r3,r4
        0x0100357e:    4319        .C      ORRS     r1,r1,r3
        0x01003580:    4090        .@      LSLS     r0,r0,r2
        0x01003582:    bd10        ..      POP      {r4,pc}
    .text
    __aeabi_llsr
    _ll_ushift_r
        0x01003584:    b510        ..      PUSH     {r4,lr}
        0x01003586:    2a20         *      CMP      r2,#0x20
        0x01003588:    db04        ..      BLT      0x1003594 ; __aeabi_llsr + 16
        0x0100358a:    4608        .F      MOV      r0,r1
        0x0100358c:    3a20         :      SUBS     r2,r2,#0x20
        0x0100358e:    40d0        .@      LSRS     r0,r0,r2
        0x01003590:    2100        .!      MOVS     r1,#0
        0x01003592:    bd10        ..      POP      {r4,pc}
        0x01003594:    460b        .F      MOV      r3,r1
        0x01003596:    40d3        .@      LSRS     r3,r3,r2
        0x01003598:    40d0        .@      LSRS     r0,r0,r2
        0x0100359a:    2420         $      MOVS     r4,#0x20
        0x0100359c:    1aa2        ..      SUBS     r2,r4,r2
        0x0100359e:    4091        .@      LSLS     r1,r1,r2
        0x010035a0:    4308        .C      ORRS     r0,r0,r1
        0x010035a2:    4619        .F      MOV      r1,r3
        0x010035a4:    bd10        ..      POP      {r4,pc}
    .text
    __aeabi_lasr
    _ll_sshift_r
        0x010035a6:    b510        ..      PUSH     {r4,lr}
        0x010035a8:    2a20         *      CMP      r2,#0x20
        0x010035aa:    db06        ..      BLT      0x10035ba ; __aeabi_lasr + 20
        0x010035ac:    17cb        ..      ASRS     r3,r1,#31
        0x010035ae:    4608        .F      MOV      r0,r1
        0x010035b0:    3a20         :      SUBS     r2,r2,#0x20
        0x010035b2:    4110        .A      ASRS     r0,r0,r2
        0x010035b4:    17c1        ..      ASRS     r1,r0,#31
        0x010035b6:    430b        .C      ORRS     r3,r3,r1
        0x010035b8:    e006        ..      B        0x10035c8 ; __aeabi_lasr + 34
        0x010035ba:    460b        .F      MOV      r3,r1
        0x010035bc:    4113        .A      ASRS     r3,r3,r2
        0x010035be:    40d0        .@      LSRS     r0,r0,r2
        0x010035c0:    2420         $      MOVS     r4,#0x20
        0x010035c2:    1aa2        ..      SUBS     r2,r4,r2
        0x010035c4:    4091        .@      LSLS     r1,r1,r2
        0x010035c6:    4308        .C      ORRS     r0,r0,r1
        0x010035c8:    4619        .F      MOV      r1,r3
        0x010035ca:    bd10        ..      POP      {r4,pc}
    .text
    _double_round
        0x010035cc:    b510        ..      PUSH     {r4,lr}
        0x010035ce:    2b00        .+      CMP      r3,#0
        0x010035d0:    da08        ..      BGE      0x10035e4 ; _double_round + 24
        0x010035d2:    2400        .$      MOVS     r4,#0
        0x010035d4:    1c40        @.      ADDS     r0,r0,#1
        0x010035d6:    4161        aA      ADCS     r1,r1,r4
        0x010035d8:    1892        ..      ADDS     r2,r2,r2
        0x010035da:    415b        [A      ADCS     r3,r3,r3
        0x010035dc:    431a        .C      ORRS     r2,r2,r3
        0x010035de:    d101        ..      BNE      0x10035e4 ; _double_round + 24
        0x010035e0:    0840        @.      LSRS     r0,r0,#1
        0x010035e2:    0040        @.      LSLS     r0,r0,#1
        0x010035e4:    bd10        ..      POP      {r4,pc}
    _double_epilogue
        0x010035e6:    b5f0        ..      PUSH     {r4-r7,lr}
        0x010035e8:    b41f        ..      PUSH     {r0-r4}
        0x010035ea:    b082        ..      SUB      sp,sp,#8
        0x010035ec:    4605        .F      MOV      r5,r0
        0x010035ee:    000c        ..      MOVS     r4,r1
        0x010035f0:    d003        ..      BEQ      0x10035fa ; _double_epilogue + 20
        0x010035f2:    4608        .F      MOV      r0,r1
        0x010035f4:    f000f876    ..v.    BL       __ARM_clz ; 0x10036e4
        0x010035f8:    e002        ..      B        0x1003600 ; _double_epilogue + 26
        0x010035fa:    f000f873    ..s.    BL       __ARM_clz ; 0x10036e4
        0x010035fe:    3020         0      ADDS     r0,r0,#0x20
        0x01003600:    4602        .F      MOV      r2,r0
        0x01003602:    9000        ..      STR      r0,[sp,#0]
        0x01003604:    4621        !F      MOV      r1,r4
        0x01003606:    4628        (F      MOV      r0,r5
        0x01003608:    f7ffffac    ....    BL       __aeabi_llsl ; 0x1003564
        0x0100360c:    9b04        ..      LDR      r3,[sp,#0x10]
        0x0100360e:    9a05        ..      LDR      r2,[sp,#0x14]
        0x01003610:    4604        .F      MOV      r4,r0
        0x01003612:    460f        .F      MOV      r7,r1
        0x01003614:    4318        .C      ORRS     r0,r0,r3
        0x01003616:    4311        .C      ORRS     r1,r1,r2
        0x01003618:    4308        .C      ORRS     r0,r0,r1
        0x0100361a:    d014        ..      BEQ      0x1003646 ; _double_epilogue + 96
        0x0100361c:    4618        .F      MOV      r0,r3
        0x0100361e:    4310        .C      ORRS     r0,r0,r2
        0x01003620:    d01b        ..      BEQ      0x100365a ; _double_epilogue + 116
        0x01003622:    9800        ..      LDR      r0,[sp,#0]
        0x01003624:    2140        @!      MOVS     r1,#0x40
        0x01003626:    1a0a        ..      SUBS     r2,r1,r0
        0x01003628:    4618        .F      MOV      r0,r3
        0x0100362a:    9905        ..      LDR      r1,[sp,#0x14]
        0x0100362c:    f7ffffaa    ....    BL       __aeabi_llsr ; 0x1003584
        0x01003630:    4605        .F      MOV      r5,r0
        0x01003632:    460e        .F      MOV      r6,r1
        0x01003634:    9a00        ..      LDR      r2,[sp,#0]
        0x01003636:    9905        ..      LDR      r1,[sp,#0x14]
        0x01003638:    9804        ..      LDR      r0,[sp,#0x10]
        0x0100363a:    f7ffff93    ....    BL       __aeabi_llsl ; 0x1003564
        0x0100363e:    4308        .C      ORRS     r0,r0,r1
        0x01003640:    d005        ..      BEQ      0x100364e ; _double_epilogue + 104
        0x01003642:    2001        .       MOVS     r0,#1
        0x01003644:    e004        ..      B        0x1003650 ; _double_epilogue + 106
        0x01003646:    4620         F      MOV      r0,r4
        0x01003648:    4639        9F      MOV      r1,r7
        0x0100364a:    b007        ..      ADD      sp,sp,#0x1c
        0x0100364c:    bdf0        ..      POP      {r4-r7,pc}
        0x0100364e:    2000        .       MOVS     r0,#0
        0x01003650:    17c1        ..      ASRS     r1,r0,#31
        0x01003652:    4305        .C      ORRS     r5,r5,r0
        0x01003654:    430e        .C      ORRS     r6,r6,r1
        0x01003656:    432c        ,C      ORRS     r4,r4,r5
        0x01003658:    4337        7C      ORRS     r7,r7,r6
        0x0100365a:    9900        ..      LDR      r1,[sp,#0]
        0x0100365c:    980e        ..      LDR      r0,[sp,#0x38]
        0x0100365e:    0563        c.      LSLS     r3,r4,#21
        0x01003660:    1a40        @.      SUBS     r0,r0,r1
        0x01003662:    0579        y.      LSLS     r1,r7,#21
        0x01003664:    0ae4        ..      LSRS     r4,r4,#11
        0x01003666:    2200        ."      MOVS     r2,#0
        0x01003668:    430c        .C      ORRS     r4,r4,r1
        0x0100366a:    0afd        ..      LSRS     r5,r7,#11
        0x0100366c:    300a        .0      ADDS     r0,r0,#0xa
        0x0100366e:    d502        ..      BPL      0x1003676 ; _double_epilogue + 144
        0x01003670:    2000        .       MOVS     r0,#0
        0x01003672:    4601        .F      MOV      r1,r0
        0x01003674:    e7e9        ..      B        0x100364a ; _double_epilogue + 100
        0x01003676:    0501        ..      LSLS     r1,r0,#20
        0x01003678:    1910        ..      ADDS     r0,r2,r4
        0x0100367a:    4169        iA      ADCS     r1,r1,r5
        0x0100367c:    9c0c        ..      LDR      r4,[sp,#0x30]
        0x0100367e:    9d0d        ..      LDR      r5,[sp,#0x34]
        0x01003680:    1900        ..      ADDS     r0,r0,r4
        0x01003682:    4169        iA      ADCS     r1,r1,r5
        0x01003684:    f7ffffa2    ....    BL       _double_round ; 0x10035cc
        0x01003688:    e7df        ..      B        0x100364a ; _double_epilogue + 100
        0x0100368a:    0000        ..      MOVS     r0,r0
    $Ven$TT$L$$delay
        0x0100368c:    b403        ..      PUSH     {r0,r1}
        0x0100368e:    4801        .H      LDR      r0,[pc,#4] ; [0x1003694] = 0xc7
        0x01003690:    9001        ..      STR      r0,[sp,#4]
        0x01003692:    bd01        ..      POP      {r0,pc}
    $d
        0x01003694:    000000c7    ....    DCD    199
    $t
    i.__0printf
    __0printf
    __1printf
    __2printf
    __c89printf
    printf
        0x01003698:    b40f        ..      PUSH     {r0-r3}
        0x0100369a:    b510        ..      PUSH     {r4,lr}
        0x0100369c:    a903        ..      ADD      r1,sp,#0xc
        0x0100369e:    4b04        .K      LDR      r3,[pc,#16] ; [0x10036b0] = 0x100234b
        0x010036a0:    4a04        .J      LDR      r2,[pc,#16] ; [0x10036b4] = 0x20044
        0x010036a2:    9802        ..      LDR      r0,[sp,#8]
        0x010036a4:    f000f90c    ....    BL       _printf_core ; 0x10038c0
        0x010036a8:    bc10        ..      POP      {r4}
        0x010036aa:    bc08        ..      POP      {r3}
        0x010036ac:    b004        ..      ADD      sp,sp,#0x10
        0x010036ae:    4718        .G      BX       r3
    $d
        0x010036b0:    0100234b    K#..    DCD    16786251
        0x010036b4:    00020044    D...    DCD    131140
    $t
    i.__0vsnprintf
    __0vsnprintf
    __1vsnprintf
    __2vsnprintf
    __c89vsnprintf
    vsnprintf
        0x010036b8:    b57c        |.      PUSH     {r2-r6,lr}
        0x010036ba:    4615        .F      MOV      r5,r2
        0x010036bc:    4602        .F      MOV      r2,r0
        0x010036be:    2000        .       MOVS     r0,#0
        0x010036c0:    461c        .F      MOV      r4,r3
        0x010036c2:    2900        .)      CMP      r1,#0
        0x010036c4:    d00b        ..      BEQ      0x10036de ; __0vsnprintf + 38
        0x010036c6:    1e49        I.      SUBS     r1,r1,#1
        0x010036c8:    9200        ..      STR      r2,[sp,#0]
        0x010036ca:    9101        ..      STR      r1,[sp,#4]
        0x010036cc:    4b04        .K      LDR      r3,[pc,#16] ; [0x10036e0] = 0x1003ff9
        0x010036ce:    466a        jF      MOV      r2,sp
        0x010036d0:    4621        !F      MOV      r1,r4
        0x010036d2:    4628        (F      MOV      r0,r5
        0x010036d4:    f000f8f4    ....    BL       _printf_core ; 0x10038c0
        0x010036d8:    9a00        ..      LDR      r2,[sp,#0]
        0x010036da:    2100        .!      MOVS     r1,#0
        0x010036dc:    7011        .p      STRB     r1,[r2,#0]
        0x010036de:    bd7c        |.      POP      {r2-r6,pc}
    $d
        0x010036e0:    01003ff9    .?..    DCD    16793593
    $t
    i.__ARM_clz
    __ARM_clz
        0x010036e4:    2120         !      MOVS     r1,#0x20
        0x010036e6:    0c02        ..      LSRS     r2,r0,#16
        0x010036e8:    d001        ..      BEQ      0x10036ee ; __ARM_clz + 10
        0x010036ea:    2110        .!      MOVS     r1,#0x10
        0x010036ec:    4610        .F      MOV      r0,r2
        0x010036ee:    0a02        ..      LSRS     r2,r0,#8
        0x010036f0:    d001        ..      BEQ      0x10036f6 ; __ARM_clz + 18
        0x010036f2:    4610        .F      MOV      r0,r2
        0x010036f4:    3908        .9      SUBS     r1,r1,#8
        0x010036f6:    0902        ..      LSRS     r2,r0,#4
        0x010036f8:    d001        ..      BEQ      0x10036fe ; __ARM_clz + 26
        0x010036fa:    4610        .F      MOV      r0,r2
        0x010036fc:    1f09        ..      SUBS     r1,r1,#4
        0x010036fe:    0882        ..      LSRS     r2,r0,#2
        0x01003700:    d001        ..      BEQ      0x1003706 ; __ARM_clz + 34
        0x01003702:    4610        .F      MOV      r0,r2
        0x01003704:    1e89        ..      SUBS     r1,r1,#2
        0x01003706:    0842        B.      LSRS     r2,r0,#1
        0x01003708:    d001        ..      BEQ      0x100370e ; __ARM_clz + 42
        0x0100370a:    1e88        ..      SUBS     r0,r1,#2
        0x0100370c:    4770        pG      BX       lr
        0x0100370e:    1a08        ..      SUBS     r0,r1,r0
        0x01003710:    4770        pG      BX       lr
    i.__ARM_common_switch8
    __ARM_common_switch8
        0x01003712:    b430        0.      PUSH     {r4,r5}
        0x01003714:    4674        tF      MOV      r4,lr
        0x01003716:    1e64        d.      SUBS     r4,r4,#1
        0x01003718:    7825        %x      LDRB     r5,[r4,#0]
        0x0100371a:    1c64        d.      ADDS     r4,r4,#1
        0x0100371c:    42ab        .B      CMP      r3,r5
        0x0100371e:    d200        ..      BCS      0x1003722 ; __ARM_common_switch8 + 16
        0x01003720:    461d        .F      MOV      r5,r3
        0x01003722:    5d63        c]      LDRB     r3,[r4,r5]
        0x01003724:    005b        [.      LSLS     r3,r3,#1
        0x01003726:    18e3        ..      ADDS     r3,r4,r3
        0x01003728:    bc30        0.      POP      {r4,r5}
        0x0100372a:    4718        .G      BX       r3
    i.__scatterload_copy
    __scatterload_copy
        0x0100372c:    e002        ..      B        0x1003734 ; __scatterload_copy + 8
        0x0100372e:    c808        ..      LDM      r0!,{r3}
        0x01003730:    1f12        ..      SUBS     r2,r2,#4
        0x01003732:    c108        ..      STM      r1!,{r3}
        0x01003734:    2a00        .*      CMP      r2,#0
        0x01003736:    d1fa        ..      BNE      0x100372e ; __scatterload_copy + 2
        0x01003738:    4770        pG      BX       lr
    i.__scatterload_null
    __scatterload_null
        0x0100373a:    4770        pG      BX       lr
    i.__scatterload_zeroinit
    __scatterload_zeroinit
        0x0100373c:    2000        .       MOVS     r0,#0
        0x0100373e:    e001        ..      B        0x1003744 ; __scatterload_zeroinit + 8
        0x01003740:    c101        ..      STM      r1!,{r0}
        0x01003742:    1f12        ..      SUBS     r2,r2,#4
        0x01003744:    2a00        .*      CMP      r2,#0
        0x01003746:    d1fb        ..      BNE      0x1003740 ; __scatterload_zeroinit + 4
        0x01003748:    4770        pG      BX       lr
        0x0100374a:    0000        ..      MOVS     r0,r0
    i._fp_digits
    _fp_digits
        0x0100374c:    b5f0        ..      PUSH     {r4-r7,lr}
        0x0100374e:    b41f        ..      PUSH     {r0-r4}
        0x01003750:    b086        ..      SUB      sp,sp,#0x18
        0x01003752:    9809        ..      LDR      r0,[sp,#0x24]
        0x01003754:    9a08        ..      LDR      r2,[sp,#0x20]
        0x01003756:    0d03        ..      LSRS     r3,r0,#20
        0x01003758:    2100        .!      MOVS     r1,#0
        0x0100375a:    4302        .C      ORRS     r2,r2,r0
        0x0100375c:    d014        ..      BEQ      0x1003788 ; _fp_digits + 60
        0x0100375e:    4851        QH      LDR      r0,[pc,#324] ; [0x10038a4] = 0xfffffc01
        0x01003760:    4a51        QJ      LDR      r2,[pc,#324] ; [0x10038a8] = 0x4d10
        0x01003762:    1818        ..      ADDS     r0,r3,r0
        0x01003764:    4350        PC      MULS     r0,r2,r0
        0x01003766:    1405        ..      ASRS     r5,r0,#16
        0x01003768:    9811        ..      LDR      r0,[sp,#0x44]
        0x0100376a:    2801        .(      CMP      r0,#1
        0x0100376c:    9810        ..      LDR      r0,[sp,#0x40]
        0x0100376e:    d01a        ..      BEQ      0x10037a6 ; _fp_digits + 90
        0x01003770:    1a28        (.      SUBS     r0,r5,r0
        0x01003772:    1c40        @.      ADDS     r0,r0,#1
        0x01003774:    2600        .&      MOVS     r6,#0
        0x01003776:    4f4d        MO      LDR      r7,[pc,#308] ; [0x10038ac] = 0x40140000
        0x01003778:    494d        MI      LDR      r1,[pc,#308] ; [0x10038b0] = 0x3ff00000
        0x0100377a:    9600        ..      STR      r6,[sp,#0]
        0x0100377c:    9101        ..      STR      r1,[sp,#4]
        0x0100377e:    9004        ..      STR      r0,[sp,#0x10]
        0x01003780:    2800        .(      CMP      r0,#0
        0x01003782:    da12        ..      BGE      0x10037aa ; _fp_digits + 94
        0x01003784:    4244        DB      RSBS     r4,r0,#0
        0x01003786:    e011        ..      B        0x10037ac ; _fp_digits + 96
        0x01003788:    9811        ..      LDR      r0,[sp,#0x44]
        0x0100378a:    2401        .$      MOVS     r4,#1
        0x0100378c:    a349        I.      ADR      r3,{pc}+0x128 ; 0x10038b4
        0x0100378e:    2801        .(      CMP      r0,#1
        0x01003790:    d101        ..      BNE      0x1003796 ; _fp_digits + 74
        0x01003792:    9810        ..      LDR      r0,[sp,#0x40]
        0x01003794:    43c1        .C      MVNS     r1,r0
        0x01003796:    9806        ..      LDR      r0,[sp,#0x18]
        0x01003798:    9a11        ..      LDR      r2,[sp,#0x44]
        0x0100379a:    6084        .`      STR      r4,[r0,#8]
        0x0100379c:    6003        .`      STR      r3,[r0,#0]
        0x0100379e:    60c2        .`      STR      r2,[r0,#0xc]
        0x010037a0:    6041        A`      STR      r1,[r0,#4]
        0x010037a2:    b00b        ..      ADD      sp,sp,#0x2c
        0x010037a4:    bdf0        ..      POP      {r4-r7,pc}
        0x010037a6:    4240        @B      RSBS     r0,r0,#0
        0x010037a8:    e7e4        ..      B        0x1003774 ; _fp_digits + 40
        0x010037aa:    4604        .F      MOV      r4,r0
        0x010037ac:    0521        !.      LSLS     r1,r4,#20
        0x010037ae:    2000        .       MOVS     r0,#0
        0x010037b0:    4a3f        ?J      LDR      r2,[pc,#252] ; [0x10038b0] = 0x3ff00000
        0x010037b2:    1c00        ..      ADDS     r0,r0,#0
        0x010037b4:    4151        QA      ADCS     r1,r1,r2
        0x010037b6:    9103        ..      STR      r1,[sp,#0xc]
        0x010037b8:    9002        ..      STR      r0,[sp,#8]
        0x010037ba:    e012        ..      B        0x10037e2 ; _fp_digits + 150
        0x010037bc:    07e0        ..      LSLS     r0,r4,#31
        0x010037be:    d007        ..      BEQ      0x10037d0 ; _fp_digits + 132
        0x010037c0:    4632        2F      MOV      r2,r6
        0x010037c2:    463b        ;F      MOV      r3,r7
        0x010037c4:    9901        ..      LDR      r1,[sp,#4]
        0x010037c6:    9800        ..      LDR      r0,[sp,#0]
        0x010037c8:    f7fffda6    ....    BL       __aeabi_dmul ; 0x1003318
        0x010037cc:    9101        ..      STR      r1,[sp,#4]
        0x010037ce:    9000        ..      STR      r0,[sp,#0]
        0x010037d0:    4632        2F      MOV      r2,r6
        0x010037d2:    463b        ;F      MOV      r3,r7
        0x010037d4:    4610        .F      MOV      r0,r2
        0x010037d6:    4619        .F      MOV      r1,r3
        0x010037d8:    f7fffd9e    ....    BL       __aeabi_dmul ; 0x1003318
        0x010037dc:    4606        .F      MOV      r6,r0
        0x010037de:    460f        .F      MOV      r7,r1
        0x010037e0:    1064        d.      ASRS     r4,r4,#1
        0x010037e2:    2c00        .,      CMP      r4,#0
        0x010037e4:    d1ea        ..      BNE      0x10037bc ; _fp_digits + 112
        0x010037e6:    9804        ..      LDR      r0,[sp,#0x10]
        0x010037e8:    9b03        ..      LDR      r3,[sp,#0xc]
        0x010037ea:    2800        .(      CMP      r0,#0
        0x010037ec:    9a02        ..      LDR      r2,[sp,#8]
        0x010037ee:    9909        ..      LDR      r1,[sp,#0x24]
        0x010037f0:    9808        ..      LDR      r0,[sp,#0x20]
        0x010037f2:    da06        ..      BGE      0x1003802 ; _fp_digits + 182
        0x010037f4:    f7fffd90    ....    BL       __aeabi_dmul ; 0x1003318
        0x010037f8:    9b01        ..      LDR      r3,[sp,#4]
        0x010037fa:    9a00        ..      LDR      r2,[sp,#0]
        0x010037fc:    f7fffd8c    ....    BL       __aeabi_dmul ; 0x1003318
        0x01003800:    e005        ..      B        0x100380e ; _fp_digits + 194
        0x01003802:    f7fffdf1    ....    BL       __aeabi_ddiv ; 0x10033e8
        0x01003806:    9b01        ..      LDR      r3,[sp,#4]
        0x01003808:    9a00        ..      LDR      r2,[sp,#0]
        0x0100380a:    f7fffded    ....    BL       __aeabi_ddiv ; 0x10033e8
        0x0100380e:    4604        .F      MOV      r4,r0
        0x01003810:    460e        .F      MOV      r6,r1
        0x01003812:    2200        ."      MOVS     r2,#0
        0x01003814:    4b28        (K      LDR      r3,[pc,#160] ; [0x10038b8] = 0x43f00000
        0x01003816:    f7fffe7f    ....    BL       __aeabi_cdrcmple ; 0x1003518
        0x0100381a:    d803        ..      BHI      0x1003824 ; _fp_digits + 216
        0x0100381c:    2000        .       MOVS     r0,#0
        0x0100381e:    43c0        .C      MVNS     r0,r0
        0x01003820:    4601        .F      MOV      r1,r0
        0x01003822:    e007        ..      B        0x1003834 ; _fp_digits + 232
        0x01003824:    2200        ."      MOVS     r2,#0
        0x01003826:    4b25        %K      LDR      r3,[pc,#148] ; [0x10038bc] = 0x3fe00000
        0x01003828:    4620         F      MOV      r0,r4
        0x0100382a:    4631        1F      MOV      r1,r6
        0x0100382c:    f7fffcc2    ....    BL       __I$use$fp ; 0x10031b4
        0x01003830:    f7fffe52    ..R.    BL       __aeabi_d2ulz ; 0x10034d8
        0x01003834:    2410        .$      MOVS     r4,#0x10
        0x01003836:    e009        ..      B        0x100384c ; _fp_digits + 256
        0x01003838:    2c00        .,      CMP      r4,#0
        0x0100383a:    db0a        ..      BLT      0x1003852 ; _fp_digits + 262
        0x0100383c:    220a        ."      MOVS     r2,#0xa
        0x0100383e:    2300        .#      MOVS     r3,#0
        0x01003840:    f7fffc88    ....    BL       __aeabi_uldivmod ; 0x1003154
        0x01003844:    9b07        ..      LDR      r3,[sp,#0x1c]
        0x01003846:    3230        02      ADDS     r2,r2,#0x30
        0x01003848:    551a        .U      STRB     r2,[r3,r4]
        0x0100384a:    1e64        d.      SUBS     r4,r4,#1
        0x0100384c:    4602        .F      MOV      r2,r0
        0x0100384e:    430a        .C      ORRS     r2,r2,r1
        0x01003850:    d1f2        ..      BNE      0x1003838 ; _fp_digits + 236
        0x01003852:    2211        ."      MOVS     r2,#0x11
        0x01003854:    1c64        d.      ADDS     r4,r4,#1
        0x01003856:    9b07        ..      LDR      r3,[sp,#0x1c]
        0x01003858:    1b12        ..      SUBS     r2,r2,r4
        0x0100385a:    191c        ..      ADDS     r4,r3,r4
        0x0100385c:    9b11        ..      LDR      r3,[sp,#0x44]
        0x0100385e:    2b01        .+      CMP      r3,#1
        0x01003860:    d003        ..      BEQ      0x100386a ; _fp_digits + 286
        0x01003862:    2301        .#      MOVS     r3,#1
        0x01003864:    4308        .C      ORRS     r0,r0,r1
        0x01003866:    d10e        ..      BNE      0x1003886 ; _fp_digits + 314
        0x01003868:    e00a        ..      B        0x1003880 ; _fp_digits + 308
        0x0100386a:    4308        .C      ORRS     r0,r0,r1
        0x0100386c:    d004        ..      BEQ      0x1003878 ; _fp_digits + 300
        0x0100386e:    2011        .       MOVS     r0,#0x11
        0x01003870:    9010        ..      STR      r0,[sp,#0x40]
        0x01003872:    2000        .       MOVS     r0,#0
        0x01003874:    9011        ..      STR      r0,[sp,#0x44]
        0x01003876:    e777        w.      B        0x1003768 ; _fp_digits + 28
        0x01003878:    9810        ..      LDR      r0,[sp,#0x40]
        0x0100387a:    1a15        ..      SUBS     r5,r2,r0
        0x0100387c:    1e6d        m.      SUBS     r5,r5,#1
        0x0100387e:    e00b        ..      B        0x1003898 ; _fp_digits + 332
        0x01003880:    9810        ..      LDR      r0,[sp,#0x40]
        0x01003882:    4282        .B      CMP      r2,r0
        0x01003884:    dd02        ..      BLE      0x100388c ; _fp_digits + 320
        0x01003886:    2300        .#      MOVS     r3,#0
        0x01003888:    1c6d        m.      ADDS     r5,r5,#1
        0x0100388a:    e003        ..      B        0x1003894 ; _fp_digits + 328
        0x0100388c:    4282        .B      CMP      r2,r0
        0x0100388e:    da01        ..      BGE      0x1003894 ; _fp_digits + 328
        0x01003890:    2300        .#      MOVS     r3,#0
        0x01003892:    1e6d        m.      SUBS     r5,r5,#1
        0x01003894:    2b00        .+      CMP      r3,#0
        0x01003896:    d0ee        ..      BEQ      0x1003876 ; _fp_digits + 298
        0x01003898:    9806        ..      LDR      r0,[sp,#0x18]
        0x0100389a:    9911        ..      LDR      r1,[sp,#0x44]
        0x0100389c:    6082        .`      STR      r2,[r0,#8]
        0x0100389e:    60c1        .`      STR      r1,[r0,#0xc]
        0x010038a0:    c030        0.      STM      r0!,{r4,r5}
        0x010038a2:    e77e        ~.      B        0x10037a2 ; _fp_digits + 86
    $d
        0x010038a4:    fffffc01    ....    DCD    4294966273
        0x010038a8:    00004d10    .M..    DCD    19728
        0x010038ac:    40140000    ...@    DCD    1075052544
        0x010038b0:    3ff00000    ...?    DCD    1072693248
        0x010038b4:    00000030    0...    DCD    48
        0x010038b8:    43f00000    ...C    DCD    1139802112
        0x010038bc:    3fe00000    ...?    DCD    1071644672
    $t
    i._printf_core
    _printf_core
        0x010038c0:    b5ff        ..      PUSH     {r0-r7,lr}
        0x010038c2:    b097        ..      SUB      sp,sp,#0x5c
        0x010038c4:    4606        .F      MOV      r6,r0
        0x010038c6:    2500        .%      MOVS     r5,#0
        0x010038c8:    e218        ..      B        0x1003cfc ; _printf_core + 1084
        0x010038ca:    2825        %(      CMP      r0,#0x25
        0x010038cc:    d177        w.      BNE      0x10039be ; _printf_core + 254
        0x010038ce:    2400        .$      MOVS     r4,#0
        0x010038d0:    4627        'F      MOV      r7,r4
        0x010038d2:    49fd        .I      LDR      r1,[pc,#1012] ; [0x1003cc8] = 0x12809
        0x010038d4:    9404        ..      STR      r4,[sp,#0x10]
        0x010038d6:    e000        ..      B        0x10038da ; _printf_core + 26
        0x010038d8:    4304        .C      ORRS     r4,r4,r0
        0x010038da:    1c76        v.      ADDS     r6,r6,#1
        0x010038dc:    7832        2x      LDRB     r2,[r6,#0]
        0x010038de:    2001        .       MOVS     r0,#1
        0x010038e0:    3a20         :      SUBS     r2,r2,#0x20
        0x010038e2:    4090        .@      LSLS     r0,r0,r2
        0x010038e4:    4208        .B      TST      r0,r1
        0x010038e6:    d1f7        ..      BNE      0x10038d8 ; _printf_core + 24
        0x010038e8:    7830        0x      LDRB     r0,[r6,#0]
        0x010038ea:    282a        *(      CMP      r0,#0x2a
        0x010038ec:    d00e        ..      BEQ      0x100390c ; _printf_core + 76
        0x010038ee:    2202        ."      MOVS     r2,#2
        0x010038f0:    7830        0x      LDRB     r0,[r6,#0]
        0x010038f2:    4601        .F      MOV      r1,r0
        0x010038f4:    3930        09      SUBS     r1,r1,#0x30
        0x010038f6:    2909        .)      CMP      r1,#9
        0x010038f8:    d816        ..      BHI      0x1003928 ; _printf_core + 104
        0x010038fa:    9904        ..      LDR      r1,[sp,#0x10]
        0x010038fc:    230a        .#      MOVS     r3,#0xa
        0x010038fe:    4359        YC      MULS     r1,r3,r1
        0x01003900:    3930        09      SUBS     r1,r1,#0x30
        0x01003902:    1840        @.      ADDS     r0,r0,r1
        0x01003904:    4314        .C      ORRS     r4,r4,r2
        0x01003906:    1c76        v.      ADDS     r6,r6,#1
        0x01003908:    9004        ..      STR      r0,[sp,#0x10]
        0x0100390a:    e7f1        ..      B        0x10038f0 ; _printf_core + 48
        0x0100390c:    9818        ..      LDR      r0,[sp,#0x60]
        0x0100390e:    c802        ..      LDM      r0!,{r1}
        0x01003910:    9104        ..      STR      r1,[sp,#0x10]
        0x01003912:    9018        ..      STR      r0,[sp,#0x60]
        0x01003914:    2900        .)      CMP      r1,#0
        0x01003916:    da04        ..      BGE      0x1003922 ; _printf_core + 98
        0x01003918:    2001        .       MOVS     r0,#1
        0x0100391a:    0340        @.      LSLS     r0,r0,#13
        0x0100391c:    4304        .C      ORRS     r4,r4,r0
        0x0100391e:    4248        HB      RSBS     r0,r1,#0
        0x01003920:    9004        ..      STR      r0,[sp,#0x10]
        0x01003922:    2002        .       MOVS     r0,#2
        0x01003924:    4304        .C      ORRS     r4,r4,r0
        0x01003926:    1c76        v.      ADDS     r6,r6,#1
        0x01003928:    7830        0x      LDRB     r0,[r6,#0]
        0x0100392a:    282e        .(      CMP      r0,#0x2e
        0x0100392c:    d114        ..      BNE      0x1003958 ; _printf_core + 152
        0x0100392e:    2004        .       MOVS     r0,#4
        0x01003930:    4304        .C      ORRS     r4,r4,r0
        0x01003932:    7870        px      LDRB     r0,[r6,#1]
        0x01003934:    1c76        v.      ADDS     r6,r6,#1
        0x01003936:    282a        *(      CMP      r0,#0x2a
        0x01003938:    d109        ..      BNE      0x100394e ; _printf_core + 142
        0x0100393a:    9818        ..      LDR      r0,[sp,#0x60]
        0x0100393c:    1c76        v.      ADDS     r6,r6,#1
        0x0100393e:    c880        ..      LDM      r0!,{r7}
        0x01003940:    9018        ..      STR      r0,[sp,#0x60]
        0x01003942:    e009        ..      B        0x1003958 ; _printf_core + 152
        0x01003944:    210a        .!      MOVS     r1,#0xa
        0x01003946:    434f        OC      MULS     r7,r1,r7
        0x01003948:    3f30        0?      SUBS     r7,r7,#0x30
        0x0100394a:    19c7        ..      ADDS     r7,r0,r7
        0x0100394c:    1c76        v.      ADDS     r6,r6,#1
        0x0100394e:    7830        0x      LDRB     r0,[r6,#0]
        0x01003950:    4601        .F      MOV      r1,r0
        0x01003952:    3930        09      SUBS     r1,r1,#0x30
        0x01003954:    2909        .)      CMP      r1,#9
        0x01003956:    d9f5        ..      BLS      0x1003944 ; _printf_core + 132
        0x01003958:    7830        0x      LDRB     r0,[r6,#0]
        0x0100395a:    286c        l(      CMP      r0,#0x6c
        0x0100395c:    d010        ..      BEQ      0x1003980 ; _printf_core + 192
        0x0100395e:    dc06        ..      BGT      0x100396e ; _printf_core + 174
        0x01003960:    284c        L(      CMP      r0,#0x4c
        0x01003962:    d01a        ..      BEQ      0x100399a ; _printf_core + 218
        0x01003964:    2868        h(      CMP      r0,#0x68
        0x01003966:    d00e        ..      BEQ      0x1003986 ; _printf_core + 198
        0x01003968:    286a        j(      CMP      r0,#0x6a
        0x0100396a:    d117        ..      BNE      0x100399c ; _printf_core + 220
        0x0100396c:    e004        ..      B        0x1003978 ; _printf_core + 184
        0x0100396e:    2874        t(      CMP      r0,#0x74
        0x01003970:    d013        ..      BEQ      0x100399a ; _printf_core + 218
        0x01003972:    287a        z(      CMP      r0,#0x7a
        0x01003974:    d112        ..      BNE      0x100399c ; _printf_core + 220
        0x01003976:    e010        ..      B        0x100399a ; _printf_core + 218
        0x01003978:    2001        .       MOVS     r0,#1
        0x0100397a:    0540        @.      LSLS     r0,r0,#21
        0x0100397c:    4304        .C      ORRS     r4,r4,r0
        0x0100397e:    e00c        ..      B        0x100399a ; _printf_core + 218
        0x01003980:    2101        .!      MOVS     r1,#1
        0x01003982:    0509        ..      LSLS     r1,r1,#20
        0x01003984:    e001        ..      B        0x100398a ; _printf_core + 202
        0x01003986:    2103        .!      MOVS     r1,#3
        0x01003988:    0509        ..      LSLS     r1,r1,#20
        0x0100398a:    430c        .C      ORRS     r4,r4,r1
        0x0100398c:    7871        qx      LDRB     r1,[r6,#1]
        0x0100398e:    4281        .B      CMP      r1,r0
        0x01003990:    d103        ..      BNE      0x100399a ; _printf_core + 218
        0x01003992:    2001        .       MOVS     r0,#1
        0x01003994:    0500        ..      LSLS     r0,r0,#20
        0x01003996:    1824        $.      ADDS     r4,r4,r0
        0x01003998:    1c76        v.      ADDS     r6,r6,#1
        0x0100399a:    1c76        v.      ADDS     r6,r6,#1
        0x0100399c:    7830        0x      LDRB     r0,[r6,#0]
        0x0100399e:    9011        ..      STR      r0,[sp,#0x44]
        0x010039a0:    2866        f(      CMP      r0,#0x66
        0x010039a2:    d00b        ..      BEQ      0x10039bc ; _printf_core + 252
        0x010039a4:    dc13        ..      BGT      0x10039ce ; _printf_core + 270
        0x010039a6:    2858        X(      CMP      r0,#0x58
        0x010039a8:    d07d        }.      BEQ      0x1003aa6 ; _printf_core + 486
        0x010039aa:    dc09        ..      BGT      0x10039c0 ; _printf_core + 256
        0x010039ac:    2800        .(      CMP      r0,#0
        0x010039ae:    d07b        {.      BEQ      0x1003aa8 ; _printf_core + 488
        0x010039b0:    2845        E(      CMP      r0,#0x45
        0x010039b2:    d0f6        ..      BEQ      0x10039a2 ; _printf_core + 226
        0x010039b4:    2846        F(      CMP      r0,#0x46
        0x010039b6:    d0f4        ..      BEQ      0x10039a2 ; _printf_core + 226
        0x010039b8:    2847        G(      CMP      r0,#0x47
        0x010039ba:    d11a        ..      BNE      0x10039f2 ; _printf_core + 306
        0x010039bc:    e1a5        ..      B        0x1003d0a ; _printf_core + 1098
        0x010039be:    e018        ..      B        0x10039f2 ; _printf_core + 306
        0x010039c0:    2863        c(      CMP      r0,#0x63
        0x010039c2:    d035        5.      BEQ      0x1003a30 ; _printf_core + 368
        0x010039c4:    2864        d(      CMP      r0,#0x64
        0x010039c6:    d070        p.      BEQ      0x1003aaa ; _printf_core + 490
        0x010039c8:    2865        e(      CMP      r0,#0x65
        0x010039ca:    d112        ..      BNE      0x10039f2 ; _printf_core + 306
        0x010039cc:    e19d        ..      B        0x1003d0a ; _printf_core + 1098
        0x010039ce:    2870        p(      CMP      r0,#0x70
        0x010039d0:    d06c        l.      BEQ      0x1003aac ; _printf_core + 492
        0x010039d2:    dc08        ..      BGT      0x10039e6 ; _printf_core + 294
        0x010039d4:    2867        g(      CMP      r0,#0x67
        0x010039d6:    d0f1        ..      BEQ      0x10039bc ; _printf_core + 252
        0x010039d8:    2869        i(      CMP      r0,#0x69
        0x010039da:    d07b        {.      BEQ      0x1003ad4 ; _printf_core + 532
        0x010039dc:    286e        n(      CMP      r0,#0x6e
        0x010039de:    d00d        ..      BEQ      0x10039fc ; _printf_core + 316
        0x010039e0:    286f        o(      CMP      r0,#0x6f
        0x010039e2:    d106        ..      BNE      0x10039f2 ; _printf_core + 306
        0x010039e4:    e0ba        ..      B        0x1003b5c ; _printf_core + 668
        0x010039e6:    2873        s(      CMP      r0,#0x73
        0x010039e8:    d02e        ..      BEQ      0x1003a48 ; _printf_core + 392
        0x010039ea:    2875        u(      CMP      r0,#0x75
        0x010039ec:    d071        q.      BEQ      0x1003ad2 ; _printf_core + 530
        0x010039ee:    2878        x(      CMP      r0,#0x78
        0x010039f0:    d059        Y.      BEQ      0x1003aa6 ; _printf_core + 486
        0x010039f2:    9a1a        ..      LDR      r2,[sp,#0x68]
        0x010039f4:    9919        ..      LDR      r1,[sp,#0x64]
        0x010039f6:    4790        .G      BLX      r2
        0x010039f8:    1c6d        m.      ADDS     r5,r5,#1
        0x010039fa:    e17e        ~.      B        0x1003cfa ; _printf_core + 1082
        0x010039fc:    0260        `.      LSLS     r0,r4,#9
        0x010039fe:    0f40        @.      LSRS     r0,r0,#29
        0x01003a00:    2802        .(      CMP      r0,#2
        0x01003a02:    d009        ..      BEQ      0x1003a18 ; _printf_core + 344
        0x01003a04:    2803        .(      CMP      r0,#3
        0x01003a06:    d00d        ..      BEQ      0x1003a24 ; _printf_core + 356
        0x01003a08:    2804        .(      CMP      r0,#4
        0x01003a0a:    9818        ..      LDR      r0,[sp,#0x60]
        0x01003a0c:    6801        .h      LDR      r1,[r0,#0]
        0x01003a0e:    d00d        ..      BEQ      0x1003a2c ; _printf_core + 364
        0x01003a10:    600d        .`      STR      r5,[r1,#0]
        0x01003a12:    1d00        ..      ADDS     r0,r0,#4
        0x01003a14:    9018        ..      STR      r0,[sp,#0x60]
        0x01003a16:    e170        p.      B        0x1003cfa ; _printf_core + 1082
        0x01003a18:    9818        ..      LDR      r0,[sp,#0x60]
        0x01003a1a:    17ea        ..      ASRS     r2,r5,#31
        0x01003a1c:    6801        .h      LDR      r1,[r0,#0]
        0x01003a1e:    600d        .`      STR      r5,[r1,#0]
        0x01003a20:    604a        J`      STR      r2,[r1,#4]
        0x01003a22:    e7f6        ..      B        0x1003a12 ; _printf_core + 338
        0x01003a24:    9818        ..      LDR      r0,[sp,#0x60]
        0x01003a26:    6801        .h      LDR      r1,[r0,#0]
        0x01003a28:    800d        ..      STRH     r5,[r1,#0]
        0x01003a2a:    e7f2        ..      B        0x1003a12 ; _printf_core + 338
        0x01003a2c:    700d        .p      STRB     r5,[r1,#0]
        0x01003a2e:    e7f0        ..      B        0x1003a12 ; _printf_core + 338
        0x01003a30:    9818        ..      LDR      r0,[sp,#0x60]
        0x01003a32:    466a        jF      MOV      r2,sp
        0x01003a34:    7801        .x      LDRB     r1,[r0,#0]
        0x01003a36:    7211        .r      STRB     r1,[r2,#8]
        0x01003a38:    1d00        ..      ADDS     r0,r0,#4
        0x01003a3a:    9018        ..      STR      r0,[sp,#0x60]
        0x01003a3c:    2000        .       MOVS     r0,#0
        0x01003a3e:    7250        Pr      STRB     r0,[r2,#9]
        0x01003a40:    a802        ..      ADD      r0,sp,#8
        0x01003a42:    9000        ..      STR      r0,[sp,#0]
        0x01003a44:    2001        .       MOVS     r0,#1
        0x01003a46:    e005        ..      B        0x1003a54 ; _printf_core + 404
        0x01003a48:    9818        ..      LDR      r0,[sp,#0x60]
        0x01003a4a:    c802        ..      LDM      r0!,{r1}
        0x01003a4c:    9018        ..      STR      r0,[sp,#0x60]
        0x01003a4e:    2000        .       MOVS     r0,#0
        0x01003a50:    9100        ..      STR      r1,[sp,#0]
        0x01003a52:    43c0        .C      MVNS     r0,r0
        0x01003a54:    0761        a.      LSLS     r1,r4,#29
        0x01003a56:    d50d        ..      BPL      0x1003a74 ; _printf_core + 436
        0x01003a58:    2100        .!      MOVS     r1,#0
        0x01003a5a:    e001        ..      B        0x1003a60 ; _printf_core + 416
        0x01003a5c:    9901        ..      LDR      r1,[sp,#4]
        0x01003a5e:    1c49        I.      ADDS     r1,r1,#1
        0x01003a60:    9101        ..      STR      r1,[sp,#4]
        0x01003a62:    42b9        .B      CMP      r1,r7
        0x01003a64:    da12        ..      BGE      0x1003a8c ; _printf_core + 460
        0x01003a66:    4281        .B      CMP      r1,r0
        0x01003a68:    dbf8        ..      BLT      0x1003a5c ; _printf_core + 412
        0x01003a6a:    9a00        ..      LDR      r2,[sp,#0]
        0x01003a6c:    5c51        Q\      LDRB     r1,[r2,r1]
        0x01003a6e:    2900        .)      CMP      r1,#0
        0x01003a70:    d1f4        ..      BNE      0x1003a5c ; _printf_core + 412
        0x01003a72:    e00b        ..      B        0x1003a8c ; _printf_core + 460
        0x01003a74:    2100        .!      MOVS     r1,#0
        0x01003a76:    e001        ..      B        0x1003a7c ; _printf_core + 444
        0x01003a78:    9901        ..      LDR      r1,[sp,#4]
        0x01003a7a:    1c49        I.      ADDS     r1,r1,#1
        0x01003a7c:    9101        ..      STR      r1,[sp,#4]
        0x01003a7e:    4281        .B      CMP      r1,r0
        0x01003a80:    dbfa        ..      BLT      0x1003a78 ; _printf_core + 440
        0x01003a82:    9a01        ..      LDR      r2,[sp,#4]
        0x01003a84:    9900        ..      LDR      r1,[sp,#0]
        0x01003a86:    5c89        .\      LDRB     r1,[r1,r2]
        0x01003a88:    2900        .)      CMP      r1,#0
        0x01003a8a:    d1f5        ..      BNE      0x1003a78 ; _printf_core + 440
        0x01003a8c:    9901        ..      LDR      r1,[sp,#4]
        0x01003a8e:    9804        ..      LDR      r0,[sp,#0x10]
        0x01003a90:    9b1a        ..      LDR      r3,[sp,#0x68]
        0x01003a92:    1a47        G.      SUBS     r7,r0,r1
        0x01003a94:    4621        !F      MOV      r1,r4
        0x01003a96:    4638        8F      MOV      r0,r7
        0x01003a98:    9a19        ..      LDR      r2,[sp,#0x64]
        0x01003a9a:    f000fa97    ....    BL       _printf_pre_padding ; 0x1003fcc
        0x01003a9e:    9901        ..      LDR      r1,[sp,#4]
        0x01003aa0:    1940        @.      ADDS     r0,r0,r5
        0x01003aa2:    1845        E.      ADDS     r5,r0,r1
        0x01003aa4:    e00b        ..      B        0x1003abe ; _printf_core + 510
        0x01003aa6:    e04f        O.      B        0x1003b48 ; _printf_core + 648
        0x01003aa8:    e12c        ,.      B        0x1003d04 ; _printf_core + 1092
        0x01003aaa:    e013        ..      B        0x1003ad4 ; _printf_core + 532
        0x01003aac:    e04e        N.      B        0x1003b4c ; _printf_core + 652
        0x01003aae:    9800        ..      LDR      r0,[sp,#0]
        0x01003ab0:    9900        ..      LDR      r1,[sp,#0]
        0x01003ab2:    7800        .x      LDRB     r0,[r0,#0]
        0x01003ab4:    1c49        I.      ADDS     r1,r1,#1
        0x01003ab6:    9100        ..      STR      r1,[sp,#0]
        0x01003ab8:    9a1a        ..      LDR      r2,[sp,#0x68]
        0x01003aba:    9919        ..      LDR      r1,[sp,#0x64]
        0x01003abc:    4790        .G      BLX      r2
        0x01003abe:    9801        ..      LDR      r0,[sp,#4]
        0x01003ac0:    1e40        @.      SUBS     r0,r0,#1
        0x01003ac2:    9001        ..      STR      r0,[sp,#4]
        0x01003ac4:    1c40        @.      ADDS     r0,r0,#1
        0x01003ac6:    d1f2        ..      BNE      0x1003aae ; _printf_core + 494
        0x01003ac8:    4621        !F      MOV      r1,r4
        0x01003aca:    4638        8F      MOV      r0,r7
        0x01003acc:    9b1a        ..      LDR      r3,[sp,#0x68]
        0x01003ace:    9a19        ..      LDR      r2,[sp,#0x64]
        0x01003ad0:    e110        ..      B        0x1003cf4 ; _printf_core + 1076
        0x01003ad2:    e037        7.      B        0x1003b44 ; _printf_core + 644
        0x01003ad4:    200a        .       MOVS     r0,#0xa
        0x01003ad6:    2100        .!      MOVS     r1,#0
        0x01003ad8:    9000        ..      STR      r0,[sp,#0]
        0x01003ada:    9101        ..      STR      r1,[sp,#4]
        0x01003adc:    0260        `.      LSLS     r0,r4,#9
        0x01003ade:    0f41        A.      LSRS     r1,r0,#29
        0x01003ae0:    2902        .)      CMP      r1,#2
        0x01003ae2:    d007        ..      BEQ      0x1003af4 ; _printf_core + 564
        0x01003ae4:    9a18        ..      LDR      r2,[sp,#0x60]
        0x01003ae6:    ca01        ..      LDM      r2!,{r0}
        0x01003ae8:    9218        ..      STR      r2,[sp,#0x60]
        0x01003aea:    17c2        ..      ASRS     r2,r0,#31
        0x01003aec:    4694        .F      MOV      r12,r2
        0x01003aee:    2903        .)      CMP      r1,#3
        0x01003af0:    d008        ..      BEQ      0x1003b04 ; _printf_core + 580
        0x01003af2:    e00a        ..      B        0x1003b0a ; _printf_core + 586
        0x01003af4:    9818        ..      LDR      r0,[sp,#0x60]
        0x01003af6:    1dc0        ..      ADDS     r0,r0,#7
        0x01003af8:    08c1        ..      LSRS     r1,r0,#3
        0x01003afa:    00c9        ..      LSLS     r1,r1,#3
        0x01003afc:    c905        ..      LDM      r1!,{r0,r2}
        0x01003afe:    9118        ..      STR      r1,[sp,#0x60]
        0x01003b00:    4694        .F      MOV      r12,r2
        0x01003b02:    e007        ..      B        0x1003b14 ; _printf_core + 596
        0x01003b04:    b200        ..      SXTH     r0,r0
        0x01003b06:    17c2        ..      ASRS     r2,r0,#31
        0x01003b08:    4694        .F      MOV      r12,r2
        0x01003b0a:    2904        .)      CMP      r1,#4
        0x01003b0c:    d102        ..      BNE      0x1003b14 ; _printf_core + 596
        0x01003b0e:    b240        @.      SXTB     r0,r0
        0x01003b10:    17c1        ..      ASRS     r1,r0,#31
        0x01003b12:    468c        .F      MOV      r12,r1
        0x01003b14:    2200        ."      MOVS     r2,#0
        0x01003b16:    4661        aF      MOV      r1,r12
        0x01003b18:    4594        .E      CMP      r12,r2
        0x01003b1a:    da06        ..      BGE      0x1003b2a ; _printf_core + 618
        0x01003b1c:    460a        .F      MOV      r2,r1
        0x01003b1e:    2100        .!      MOVS     r1,#0
        0x01003b20:    4240        @B      RSBS     r0,r0,#0
        0x01003b22:    4191        .A      SBCS     r1,r1,r2
        0x01003b24:    468c        .F      MOV      r12,r1
        0x01003b26:    212d        -!      MOVS     r1,#0x2d
        0x01003b28:    e002        ..      B        0x1003b30 ; _printf_core + 624
        0x01003b2a:    0521        !.      LSLS     r1,r4,#20
        0x01003b2c:    d504        ..      BPL      0x1003b38 ; _printf_core + 632
        0x01003b2e:    212b        +!      MOVS     r1,#0x2b
        0x01003b30:    466a        jF      MOV      r2,sp
        0x01003b32:    7311        .s      STRB     r1,[r2,#0xc]
        0x01003b34:    2101        .!      MOVS     r1,#1
        0x01003b36:    e003        ..      B        0x1003b40 ; _printf_core + 640
        0x01003b38:    07e1        ..      LSLS     r1,r4,#31
        0x01003b3a:    d001        ..      BEQ      0x1003b40 ; _printf_core + 640
        0x01003b3c:    2120         !      MOVS     r1,#0x20
        0x01003b3e:    e7f7        ..      B        0x1003b30 ; _printf_core + 624
        0x01003b40:    9102        ..      STR      r1,[sp,#8]
        0x01003b42:    e055        U.      B        0x1003bf0 ; _printf_core + 816
        0x01003b44:    200a        .       MOVS     r0,#0xa
        0x01003b46:    e00a        ..      B        0x1003b5e ; _printf_core + 670
        0x01003b48:    2010        .       MOVS     r0,#0x10
        0x01003b4a:    e008        ..      B        0x1003b5e ; _printf_core + 670
        0x01003b4c:    2010        .       MOVS     r0,#0x10
        0x01003b4e:    9000        ..      STR      r0,[sp,#0]
        0x01003b50:    2100        .!      MOVS     r1,#0
        0x01003b52:    2004        .       MOVS     r0,#4
        0x01003b54:    4304        .C      ORRS     r4,r4,r0
        0x01003b56:    9101        ..      STR      r1,[sp,#4]
        0x01003b58:    2708        .'      MOVS     r7,#8
        0x01003b5a:    e003        ..      B        0x1003b64 ; _printf_core + 676
        0x01003b5c:    2008        .       MOVS     r0,#8
        0x01003b5e:    2100        .!      MOVS     r1,#0
        0x01003b60:    9101        ..      STR      r1,[sp,#4]
        0x01003b62:    9000        ..      STR      r0,[sp,#0]
        0x01003b64:    0260        `.      LSLS     r0,r4,#9
        0x01003b66:    0f41        A.      LSRS     r1,r0,#29
        0x01003b68:    2902        .)      CMP      r1,#2
        0x01003b6a:    d007        ..      BEQ      0x1003b7c ; _printf_core + 700
        0x01003b6c:    9a18        ..      LDR      r2,[sp,#0x60]
        0x01003b6e:    ca01        ..      LDM      r2!,{r0}
        0x01003b70:    9218        ..      STR      r2,[sp,#0x60]
        0x01003b72:    2200        ."      MOVS     r2,#0
        0x01003b74:    4694        .F      MOV      r12,r2
        0x01003b76:    2903        .)      CMP      r1,#3
        0x01003b78:    d008        ..      BEQ      0x1003b8c ; _printf_core + 716
        0x01003b7a:    e008        ..      B        0x1003b8e ; _printf_core + 718
        0x01003b7c:    9818        ..      LDR      r0,[sp,#0x60]
        0x01003b7e:    1dc0        ..      ADDS     r0,r0,#7
        0x01003b80:    08c1        ..      LSRS     r1,r0,#3
        0x01003b82:    00c9        ..      LSLS     r1,r1,#3
        0x01003b84:    c905        ..      LDM      r1!,{r0,r2}
        0x01003b86:    9118        ..      STR      r1,[sp,#0x60]
        0x01003b88:    4694        .F      MOV      r12,r2
        0x01003b8a:    e003        ..      B        0x1003b94 ; _printf_core + 724
        0x01003b8c:    b280        ..      UXTH     r0,r0
        0x01003b8e:    2904        .)      CMP      r1,#4
        0x01003b90:    d100        ..      BNE      0x1003b94 ; _printf_core + 724
        0x01003b92:    b2c0        ..      UXTB     r0,r0
        0x01003b94:    2100        .!      MOVS     r1,#0
        0x01003b96:    9102        ..      STR      r1,[sp,#8]
        0x01003b98:    0721        !.      LSLS     r1,r4,#28
        0x01003b9a:    d529        ).      BPL      0x1003bf0 ; _printf_core + 816
        0x01003b9c:    9911        ..      LDR      r1,[sp,#0x44]
        0x01003b9e:    2970        p)      CMP      r1,#0x70
        0x01003ba0:    d006        ..      BEQ      0x1003bb0 ; _printf_core + 752
        0x01003ba2:    9a00        ..      LDR      r2,[sp,#0]
        0x01003ba4:    2110        .!      MOVS     r1,#0x10
        0x01003ba6:    9b01        ..      LDR      r3,[sp,#4]
        0x01003ba8:    404a        J@      EORS     r2,r2,r1
        0x01003baa:    431a        .C      ORRS     r2,r2,r3
        0x01003bac:    d005        ..      BEQ      0x1003bba ; _printf_core + 762
        0x01003bae:    e00e        ..      B        0x1003bce ; _printf_core + 782
        0x01003bb0:    2140        @!      MOVS     r1,#0x40
        0x01003bb2:    466a        jF      MOV      r2,sp
        0x01003bb4:    7311        .s      STRB     r1,[r2,#0xc]
        0x01003bb6:    2101        .!      MOVS     r1,#1
        0x01003bb8:    e008        ..      B        0x1003bcc ; _printf_core + 780
        0x01003bba:    4661        aF      MOV      r1,r12
        0x01003bbc:    4301        .C      ORRS     r1,r1,r0
        0x01003bbe:    d006        ..      BEQ      0x1003bce ; _printf_core + 782
        0x01003bc0:    2130        0!      MOVS     r1,#0x30
        0x01003bc2:    466a        jF      MOV      r2,sp
        0x01003bc4:    7311        .s      STRB     r1,[r2,#0xc]
        0x01003bc6:    9911        ..      LDR      r1,[sp,#0x44]
        0x01003bc8:    7351        Qs      STRB     r1,[r2,#0xd]
        0x01003bca:    2102        .!      MOVS     r1,#2
        0x01003bcc:    9102        ..      STR      r1,[sp,#8]
        0x01003bce:    9a00        ..      LDR      r2,[sp,#0]
        0x01003bd0:    2108        .!      MOVS     r1,#8
        0x01003bd2:    9b01        ..      LDR      r3,[sp,#4]
        0x01003bd4:    404a        J@      EORS     r2,r2,r1
        0x01003bd6:    431a        .C      ORRS     r2,r2,r3
        0x01003bd8:    d10a        ..      BNE      0x1003bf0 ; _printf_core + 816
        0x01003bda:    4661        aF      MOV      r1,r12
        0x01003bdc:    4301        .C      ORRS     r1,r1,r0
        0x01003bde:    d101        ..      BNE      0x1003be4 ; _printf_core + 804
        0x01003be0:    0761        a.      LSLS     r1,r4,#29
        0x01003be2:    d505        ..      BPL      0x1003bf0 ; _printf_core + 816
        0x01003be4:    2130        0!      MOVS     r1,#0x30
        0x01003be6:    466a        jF      MOV      r2,sp
        0x01003be8:    7311        .s      STRB     r1,[r2,#0xc]
        0x01003bea:    2101        .!      MOVS     r1,#1
        0x01003bec:    1e7f        ..      SUBS     r7,r7,#1
        0x01003bee:    9102        ..      STR      r1,[sp,#8]
        0x01003bf0:    9911        ..      LDR      r1,[sp,#0x44]
        0x01003bf2:    2958        X)      CMP      r1,#0x58
        0x01003bf4:    d004        ..      BEQ      0x1003c00 ; _printf_core + 832
        0x01003bf6:    a135        5.      ADR      r1,{pc}+0xd6 ; 0x1003ccc
        0x01003bf8:    910e        ..      STR      r1,[sp,#0x38]
        0x01003bfa:    a90d        ..      ADD      r1,sp,#0x34
        0x01003bfc:    910d        ..      STR      r1,[sp,#0x34]
        0x01003bfe:    e00d        ..      B        0x1003c1c ; _printf_core + 860
        0x01003c00:    a137        7.      ADR      r1,{pc}+0xe0 ; 0x1003ce0
        0x01003c02:    e7f9        ..      B        0x1003bf8 ; _printf_core + 824
        0x01003c04:    4661        aF      MOV      r1,r12
        0x01003c06:    9b01        ..      LDR      r3,[sp,#4]
        0x01003c08:    9a00        ..      LDR      r2,[sp,#0]
        0x01003c0a:    f7fffaa3    ....    BL       __aeabi_uldivmod ; 0x1003154
        0x01003c0e:    9b0e        ..      LDR      r3,[sp,#0x38]
        0x01003c10:    468c        .F      MOV      r12,r1
        0x01003c12:    5c9b        .\      LDRB     r3,[r3,r2]
        0x01003c14:    9a0d        ..      LDR      r2,[sp,#0x34]
        0x01003c16:    1e52        R.      SUBS     r2,r2,#1
        0x01003c18:    920d        ..      STR      r2,[sp,#0x34]
        0x01003c1a:    7013        .p      STRB     r3,[r2,#0]
        0x01003c1c:    4661        aF      MOV      r1,r12
        0x01003c1e:    4301        .C      ORRS     r1,r1,r0
        0x01003c20:    d1f0        ..      BNE      0x1003c04 ; _printf_core + 836
        0x01003c22:    980d        ..      LDR      r0,[sp,#0x34]
        0x01003c24:    a905        ..      ADD      r1,sp,#0x14
        0x01003c26:    1a08        ..      SUBS     r0,r1,r0
        0x01003c28:    3020         0      ADDS     r0,r0,#0x20
        0x01003c2a:    9001        ..      STR      r0,[sp,#4]
        0x01003c2c:    0760        `.      LSLS     r0,r4,#29
        0x01003c2e:    d503        ..      BPL      0x1003c38 ; _printf_core + 888
        0x01003c30:    2001        .       MOVS     r0,#1
        0x01003c32:    0400        ..      LSLS     r0,r0,#16
        0x01003c34:    4384        .C      BICS     r4,r4,r0
        0x01003c36:    e000        ..      B        0x1003c3a ; _printf_core + 890
        0x01003c38:    2701        .'      MOVS     r7,#1
        0x01003c3a:    9801        ..      LDR      r0,[sp,#4]
        0x01003c3c:    4287        .B      CMP      r7,r0
        0x01003c3e:    dd01        ..      BLE      0x1003c44 ; _printf_core + 900
        0x01003c40:    1a38        8.      SUBS     r0,r7,r0
        0x01003c42:    e000        ..      B        0x1003c46 ; _printf_core + 902
        0x01003c44:    2000        .       MOVS     r0,#0
        0x01003c46:    9901        ..      LDR      r1,[sp,#4]
        0x01003c48:    9000        ..      STR      r0,[sp,#0]
        0x01003c4a:    1841        A.      ADDS     r1,r0,r1
        0x01003c4c:    9802        ..      LDR      r0,[sp,#8]
        0x01003c4e:    1809        ..      ADDS     r1,r1,r0
        0x01003c50:    9804        ..      LDR      r0,[sp,#0x10]
        0x01003c52:    1a40        @.      SUBS     r0,r0,r1
        0x01003c54:    9004        ..      STR      r0,[sp,#0x10]
        0x01003c56:    03e0        ..      LSLS     r0,r4,#15
        0x01003c58:    d406        ..      BMI      0x1003c68 ; _printf_core + 936
        0x01003c5a:    4621        !F      MOV      r1,r4
        0x01003c5c:    9b1a        ..      LDR      r3,[sp,#0x68]
        0x01003c5e:    9a19        ..      LDR      r2,[sp,#0x64]
        0x01003c60:    9804        ..      LDR      r0,[sp,#0x10]
        0x01003c62:    f000f9b3    ....    BL       _printf_pre_padding ; 0x1003fcc
        0x01003c66:    1945        E.      ADDS     r5,r0,r5
        0x01003c68:    2700        .'      MOVS     r7,#0
        0x01003c6a:    e006        ..      B        0x1003c7a ; _printf_core + 954
        0x01003c6c:    a803        ..      ADD      r0,sp,#0xc
        0x01003c6e:    9a1a        ..      LDR      r2,[sp,#0x68]
        0x01003c70:    5dc0        .]      LDRB     r0,[r0,r7]
        0x01003c72:    9919        ..      LDR      r1,[sp,#0x64]
        0x01003c74:    4790        .G      BLX      r2
        0x01003c76:    1c6d        m.      ADDS     r5,r5,#1
        0x01003c78:    1c7f        ..      ADDS     r7,r7,#1
        0x01003c7a:    9802        ..      LDR      r0,[sp,#8]
        0x01003c7c:    4287        .B      CMP      r7,r0
        0x01003c7e:    dbf5        ..      BLT      0x1003c6c ; _printf_core + 940
        0x01003c80:    03e0        ..      LSLS     r0,r4,#15
        0x01003c82:    d50c        ..      BPL      0x1003c9e ; _printf_core + 990
        0x01003c84:    4621        !F      MOV      r1,r4
        0x01003c86:    9b1a        ..      LDR      r3,[sp,#0x68]
        0x01003c88:    9a19        ..      LDR      r2,[sp,#0x64]
        0x01003c8a:    9804        ..      LDR      r0,[sp,#0x10]
        0x01003c8c:    f000f99e    ....    BL       _printf_pre_padding ; 0x1003fcc
        0x01003c90:    1945        E.      ADDS     r5,r0,r5
        0x01003c92:    e004        ..      B        0x1003c9e ; _printf_core + 990
        0x01003c94:    9a1a        ..      LDR      r2,[sp,#0x68]
        0x01003c96:    2030        0       MOVS     r0,#0x30
        0x01003c98:    9919        ..      LDR      r1,[sp,#0x64]
        0x01003c9a:    4790        .G      BLX      r2
        0x01003c9c:    1c6d        m.      ADDS     r5,r5,#1
        0x01003c9e:    9900        ..      LDR      r1,[sp,#0]
        0x01003ca0:    1e48        H.      SUBS     r0,r1,#1
        0x01003ca2:    9000        ..      STR      r0,[sp,#0]
        0x01003ca4:    2900        .)      CMP      r1,#0
        0x01003ca6:    dcf5        ..      BGT      0x1003c94 ; _printf_core + 980
        0x01003ca8:    e008        ..      B        0x1003cbc ; _printf_core + 1020
        0x01003caa:    980d        ..      LDR      r0,[sp,#0x34]
        0x01003cac:    990d        ..      LDR      r1,[sp,#0x34]
        0x01003cae:    7800        .x      LDRB     r0,[r0,#0]
        0x01003cb0:    1c49        I.      ADDS     r1,r1,#1
        0x01003cb2:    910d        ..      STR      r1,[sp,#0x34]
        0x01003cb4:    9a1a        ..      LDR      r2,[sp,#0x68]
        0x01003cb6:    9919        ..      LDR      r1,[sp,#0x64]
        0x01003cb8:    4790        .G      BLX      r2
        0x01003cba:    1c6d        m.      ADDS     r5,r5,#1
        0x01003cbc:    9901        ..      LDR      r1,[sp,#4]
        0x01003cbe:    1e48        H.      SUBS     r0,r1,#1
        0x01003cc0:    9001        ..      STR      r0,[sp,#4]
        0x01003cc2:    2900        .)      CMP      r1,#0
        0x01003cc4:    dcf1        ..      BGT      0x1003caa ; _printf_core + 1002
        0x01003cc6:    e163        c.      B        0x1003f90 ; _printf_core + 1744
    $d
        0x01003cc8:    00012809    .(..    DCD    75785
        0x01003ccc:    33323130    0123    DCD    858927408
        0x01003cd0:    37363534    4567    DCD    926299444
        0x01003cd4:    62613938    89ab    DCD    1650538808
        0x01003cd8:    66656463    cdef    DCD    1717920867
        0x01003cdc:    00000000    ....    DCD    0
        0x01003ce0:    33323130    0123    DCD    858927408
        0x01003ce4:    37363534    4567    DCD    926299444
        0x01003ce8:    42413938    89AB    DCD    1111570744
        0x01003cec:    46454443    CDEF    DCD    1178944579
        0x01003cf0:    00000000    ....    DCD    0
    $t
        0x01003cf4:    f000f95a    ..Z.    BL       _printf_post_padding ; 0x1003fac
        0x01003cf8:    1945        E.      ADDS     r5,r0,r5
        0x01003cfa:    1c76        v.      ADDS     r6,r6,#1
        0x01003cfc:    7830        0x      LDRB     r0,[r6,#0]
        0x01003cfe:    2800        .(      CMP      r0,#0
        0x01003d00:    d000        ..      BEQ      0x1003d04 ; _printf_core + 1092
        0x01003d02:    e5e2        ..      B        0x10038ca ; _printf_core + 10
        0x01003d04:    4628        (F      MOV      r0,r5
        0x01003d06:    b01b        ..      ADD      sp,sp,#0x6c
        0x01003d08:    bdf0        ..      POP      {r4-r7,pc}
        0x01003d0a:    0760        `.      LSLS     r0,r4,#29
        0x01003d0c:    d400        ..      BMI      0x1003d10 ; _printf_core + 1104
        0x01003d0e:    2706        .'      MOVS     r7,#6
        0x01003d10:    9818        ..      LDR      r0,[sp,#0x60]
        0x01003d12:    1dc0        ..      ADDS     r0,r0,#7
        0x01003d14:    08c1        ..      LSRS     r1,r0,#3
        0x01003d16:    00c9        ..      LSLS     r1,r1,#3
        0x01003d18:    6848        Hh      LDR      r0,[r1,#4]
        0x01003d1a:    680a        .h      LDR      r2,[r1,#0]
        0x01003d1c:    3108        .1      ADDS     r1,r1,#8
        0x01003d1e:    0fc3        ..      LSRS     r3,r0,#31
        0x01003d20:    07db        ..      LSLS     r3,r3,#31
        0x01003d22:    9118        ..      STR      r1,[sp,#0x60]
        0x01003d24:    0019        ..      MOVS     r1,r3
        0x01003d26:    d001        ..      BEQ      0x1003d2c ; _printf_core + 1132
        0x01003d28:    a19c        ..      ADR      r1,{pc}+0x274 ; 0x1003f9c
        0x01003d2a:    e008        ..      B        0x1003d3e ; _printf_core + 1150
        0x01003d2c:    0521        !.      LSLS     r1,r4,#20
        0x01003d2e:    d501        ..      BPL      0x1003d34 ; _printf_core + 1140
        0x01003d30:    a19b        ..      ADR      r1,{pc}+0x270 ; 0x1003fa0
        0x01003d32:    e004        ..      B        0x1003d3e ; _printf_core + 1150
        0x01003d34:    07e1        ..      LSLS     r1,r4,#31
        0x01003d36:    d001        ..      BEQ      0x1003d3c ; _printf_core + 1148
        0x01003d38:    a19a        ..      ADR      r1,{pc}+0x26c ; 0x1003fa4
        0x01003d3a:    e000        ..      B        0x1003d3e ; _printf_core + 1150
        0x01003d3c:    a19a        ..      ADR      r1,{pc}+0x26c ; 0x1003fa8
        0x01003d3e:    0043        C.      LSLS     r3,r0,#1
        0x01003d40:    9811        ..      LDR      r0,[sp,#0x44]
        0x01003d42:    085b        [.      LSRS     r3,r3,#1
        0x01003d44:    9110        ..      STR      r1,[sp,#0x40]
        0x01003d46:    2865        e(      CMP      r0,#0x65
        0x01003d48:    d00c        ..      BEQ      0x1003d64 ; _printf_core + 1188
        0x01003d4a:    dc06        ..      BGT      0x1003d5a ; _printf_core + 1178
        0x01003d4c:    2845        E(      CMP      r0,#0x45
        0x01003d4e:    d009        ..      BEQ      0x1003d64 ; _printf_core + 1188
        0x01003d50:    2846        F(      CMP      r0,#0x46
        0x01003d52:    d01d        ..      BEQ      0x1003d90 ; _printf_core + 1232
        0x01003d54:    2847        G(      CMP      r0,#0x47
        0x01003d56:    d141        A.      BNE      0x1003ddc ; _printf_core + 1308
        0x01003d58:    e041        A.      B        0x1003dde ; _printf_core + 1310
        0x01003d5a:    2866        f(      CMP      r0,#0x66
        0x01003d5c:    d018        ..      BEQ      0x1003d90 ; _printf_core + 1232
        0x01003d5e:    2867        g(      CMP      r0,#0x67
        0x01003d60:    d13c        <.      BNE      0x1003ddc ; _printf_core + 1308
        0x01003d62:    e03c        <.      B        0x1003dde ; _printf_core + 1310
        0x01003d64:    2100        .!      MOVS     r1,#0
        0x01003d66:    2f11        ./      CMP      r7,#0x11
        0x01003d68:    db01        ..      BLT      0x1003d6e ; _printf_core + 1198
        0x01003d6a:    2011        .       MOVS     r0,#0x11
        0x01003d6c:    e000        ..      B        0x1003d70 ; _printf_core + 1200
        0x01003d6e:    1c78        x.      ADDS     r0,r7,#1
        0x01003d70:    9101        ..      STR      r1,[sp,#4]
        0x01003d72:    9000        ..      STR      r0,[sp,#0]
        0x01003d74:    a908        ..      ADD      r1,sp,#0x20
        0x01003d76:    a811        ..      ADD      r0,sp,#0x44
        0x01003d78:    f7fffce8    ....    BL       _fp_digits ; 0x100374c
        0x01003d7c:    9913        ..      LDR      r1,[sp,#0x4c]
        0x01003d7e:    9105        ..      STR      r1,[sp,#0x14]
        0x01003d80:    2100        .!      MOVS     r1,#0
        0x01003d82:    9a11        ..      LDR      r2,[sp,#0x44]
        0x01003d84:    9215        ..      STR      r2,[sp,#0x54]
        0x01003d86:    1c7f        ..      ADDS     r7,r7,#1
        0x01003d88:    9812        ..      LDR      r0,[sp,#0x48]
        0x01003d8a:    9701        ..      STR      r7,[sp,#4]
        0x01003d8c:    9100        ..      STR      r1,[sp,#0]
        0x01003d8e:    e050        P.      B        0x1003e32 ; _printf_core + 1394
        0x01003d90:    2001        .       MOVS     r0,#1
        0x01003d92:    07c0        ..      LSLS     r0,r0,#31
        0x01003d94:    9003        ..      STR      r0,[sp,#0xc]
        0x01003d96:    2001        .       MOVS     r0,#1
        0x01003d98:    9001        ..      STR      r0,[sp,#4]
        0x01003d9a:    a908        ..      ADD      r1,sp,#0x20
        0x01003d9c:    9700        ..      STR      r7,[sp,#0]
        0x01003d9e:    a811        ..      ADD      r0,sp,#0x44
        0x01003da0:    f7fffcd4    ....    BL       _fp_digits ; 0x100374c
        0x01003da4:    9a13        ..      LDR      r2,[sp,#0x4c]
        0x01003da6:    9914        ..      LDR      r1,[sp,#0x50]
        0x01003da8:    9205        ..      STR      r2,[sp,#0x14]
        0x01003daa:    2200        ."      MOVS     r2,#0
        0x01003dac:    9b11        ..      LDR      r3,[sp,#0x44]
        0x01003dae:    9200        ..      STR      r2,[sp,#0]
        0x01003db0:    9812        ..      LDR      r0,[sp,#0x48]
        0x01003db2:    9315        ..      STR      r3,[sp,#0x54]
        0x01003db4:    9a05        ..      LDR      r2,[sp,#0x14]
        0x01003db6:    9201        ..      STR      r2,[sp,#4]
        0x01003db8:    2900        .)      CMP      r1,#0
        0x01003dba:    d001        ..      BEQ      0x1003dc0 ; _printf_core + 1280
        0x01003dbc:    4610        .F      MOV      r0,r2
        0x01003dbe:    e002        ..      B        0x1003dc6 ; _printf_core + 1286
        0x01003dc0:    1c79        y.      ADDS     r1,r7,#1
        0x01003dc2:    1840        @.      ADDS     r0,r0,r1
        0x01003dc4:    9001        ..      STR      r0,[sp,#4]
        0x01003dc6:    1a38        8.      SUBS     r0,r7,r0
        0x01003dc8:    d501        ..      BPL      0x1003dce ; _printf_core + 1294
        0x01003dca:    9801        ..      LDR      r0,[sp,#4]
        0x01003dcc:    e004        ..      B        0x1003dd8 ; _printf_core + 1304
        0x01003dce:    4240        @B      RSBS     r0,r0,#0
        0x01003dd0:    1e40        @.      SUBS     r0,r0,#1
        0x01003dd2:    9000        ..      STR      r0,[sp,#0]
        0x01003dd4:    1c78        x.      ADDS     r0,r7,#1
        0x01003dd6:    9001        ..      STR      r0,[sp,#4]
        0x01003dd8:    1bc0        ..      SUBS     r0,r0,r7
        0x01003dda:    9002        ..      STR      r0,[sp,#8]
        0x01003ddc:    e043        C.      B        0x1003e66 ; _printf_core + 1446
        0x01003dde:    2f01        ./      CMP      r7,#1
        0x01003de0:    da00        ..      BGE      0x1003de4 ; _printf_core + 1316
        0x01003de2:    2701        .'      MOVS     r7,#1
        0x01003de4:    2100        .!      MOVS     r1,#0
        0x01003de6:    2f11        ./      CMP      r7,#0x11
        0x01003de8:    dd01        ..      BLE      0x1003dee ; _printf_core + 1326
        0x01003dea:    2011        .       MOVS     r0,#0x11
        0x01003dec:    e000        ..      B        0x1003df0 ; _printf_core + 1328
        0x01003dee:    4638        8F      MOV      r0,r7
        0x01003df0:    9101        ..      STR      r1,[sp,#4]
        0x01003df2:    9000        ..      STR      r0,[sp,#0]
        0x01003df4:    a908        ..      ADD      r1,sp,#0x20
        0x01003df6:    a811        ..      ADD      r0,sp,#0x44
        0x01003df8:    f7fffca8    ....    BL       _fp_digits ; 0x100374c
        0x01003dfc:    9913        ..      LDR      r1,[sp,#0x4c]
        0x01003dfe:    9105        ..      STR      r1,[sp,#0x14]
        0x01003e00:    9a11        ..      LDR      r2,[sp,#0x44]
        0x01003e02:    2100        .!      MOVS     r1,#0
        0x01003e04:    9812        ..      LDR      r0,[sp,#0x48]
        0x01003e06:    9215        ..      STR      r2,[sp,#0x54]
        0x01003e08:    9100        ..      STR      r1,[sp,#0]
        0x01003e0a:    9701        ..      STR      r7,[sp,#4]
        0x01003e0c:    0721        !.      LSLS     r1,r4,#28
        0x01003e0e:    d40c        ..      BMI      0x1003e2a ; _printf_core + 1386
        0x01003e10:    9905        ..      LDR      r1,[sp,#0x14]
        0x01003e12:    42b9        .B      CMP      r1,r7
        0x01003e14:    db01        ..      BLT      0x1003e1a ; _printf_core + 1370
        0x01003e16:    9901        ..      LDR      r1,[sp,#4]
        0x01003e18:    e000        ..      B        0x1003e1c ; _printf_core + 1372
        0x01003e1a:    9101        ..      STR      r1,[sp,#4]
        0x01003e1c:    2901        .)      CMP      r1,#1
        0x01003e1e:    dd04        ..      BLE      0x1003e2a ; _printf_core + 1386
        0x01003e20:    9a15        ..      LDR      r2,[sp,#0x54]
        0x01003e22:    1e49        I.      SUBS     r1,r1,#1
        0x01003e24:    5c51        Q\      LDRB     r1,[r2,r1]
        0x01003e26:    2930        0)      CMP      r1,#0x30
        0x01003e28:    d006        ..      BEQ      0x1003e38 ; _printf_core + 1400
        0x01003e2a:    42b8        .B      CMP      r0,r7
        0x01003e2c:    da01        ..      BGE      0x1003e32 ; _printf_core + 1394
        0x01003e2e:    1d01        ..      ADDS     r1,r0,#4
        0x01003e30:    da05        ..      BGE      0x1003e3e ; _printf_core + 1406
        0x01003e32:    2101        .!      MOVS     r1,#1
        0x01003e34:    9102        ..      STR      r1,[sp,#8]
        0x01003e36:    e015        ..      B        0x1003e64 ; _printf_core + 1444
        0x01003e38:    9901        ..      LDR      r1,[sp,#4]
        0x01003e3a:    1e49        I.      SUBS     r1,r1,#1
        0x01003e3c:    e7ed        ..      B        0x1003e1a ; _printf_core + 1370
        0x01003e3e:    2800        .(      CMP      r0,#0
        0x01003e40:    dc05        ..      BGT      0x1003e4e ; _printf_core + 1422
        0x01003e42:    9900        ..      LDR      r1,[sp,#0]
        0x01003e44:    1841        A.      ADDS     r1,r0,r1
        0x01003e46:    9100        ..      STR      r1,[sp,#0]
        0x01003e48:    9901        ..      LDR      r1,[sp,#4]
        0x01003e4a:    1a09        ..      SUBS     r1,r1,r0
        0x01003e4c:    e003        ..      B        0x1003e56 ; _printf_core + 1430
        0x01003e4e:    9a01        ..      LDR      r2,[sp,#4]
        0x01003e50:    1c41        A.      ADDS     r1,r0,#1
        0x01003e52:    4291        .B      CMP      r1,r2
        0x01003e54:    dd00        ..      BLE      0x1003e58 ; _printf_core + 1432
        0x01003e56:    9101        ..      STR      r1,[sp,#4]
        0x01003e58:    9900        ..      LDR      r1,[sp,#0]
        0x01003e5a:    1a40        @.      SUBS     r0,r0,r1
        0x01003e5c:    1c40        @.      ADDS     r0,r0,#1
        0x01003e5e:    9002        ..      STR      r0,[sp,#8]
        0x01003e60:    2001        .       MOVS     r0,#1
        0x01003e62:    07c0        ..      LSLS     r0,r0,#31
        0x01003e64:    9003        ..      STR      r0,[sp,#0xc]
        0x01003e66:    0720         .      LSLS     r0,r4,#28
        0x01003e68:    d406        ..      BMI      0x1003e78 ; _printf_core + 1464
        0x01003e6a:    9902        ..      LDR      r1,[sp,#8]
        0x01003e6c:    9801        ..      LDR      r0,[sp,#4]
        0x01003e6e:    4281        .B      CMP      r1,r0
        0x01003e70:    db02        ..      BLT      0x1003e78 ; _printf_core + 1464
        0x01003e72:    2000        .       MOVS     r0,#0
        0x01003e74:    43c0        .C      MVNS     r0,r0
        0x01003e76:    9002        ..      STR      r0,[sp,#8]
        0x01003e78:    2000        .       MOVS     r0,#0
        0x01003e7a:    4669        iF      MOV      r1,sp
        0x01003e7c:    77c8        .w      STRB     r0,[r1,#0x1f]
        0x01003e7e:    af07        ..      ADD      r7,sp,#0x1c
        0x01003e80:    2101        .!      MOVS     r1,#1
        0x01003e82:    9803        ..      LDR      r0,[sp,#0xc]
        0x01003e84:    3703        .7      ADDS     r7,#3
        0x01003e86:    07c9        ..      LSLS     r1,r1,#31
        0x01003e88:    4288        .B      CMP      r0,r1
        0x01003e8a:    d024        $.      BEQ      0x1003ed6 ; _printf_core + 1558
        0x01003e8c:    2002        .       MOVS     r0,#2
        0x01003e8e:    9011        ..      STR      r0,[sp,#0x44]
        0x01003e90:    202b        +       MOVS     r0,#0x2b
        0x01003e92:    9012        ..      STR      r0,[sp,#0x48]
        0x01003e94:    9803        ..      LDR      r0,[sp,#0xc]
        0x01003e96:    2800        .(      CMP      r0,#0
        0x01003e98:    da0c        ..      BGE      0x1003eb4 ; _printf_core + 1524
        0x01003e9a:    4240        @B      RSBS     r0,r0,#0
        0x01003e9c:    9003        ..      STR      r0,[sp,#0xc]
        0x01003e9e:    202d        -       MOVS     r0,#0x2d
        0x01003ea0:    9012        ..      STR      r0,[sp,#0x48]
        0x01003ea2:    e007        ..      B        0x1003eb4 ; _printf_core + 1524
        0x01003ea4:    210a        .!      MOVS     r1,#0xa
        0x01003ea6:    9803        ..      LDR      r0,[sp,#0xc]
        0x01003ea8:    f7fff8fc    ....    BL       __aeabi_uidiv ; 0x10030a4
        0x01003eac:    3130        01      ADDS     r1,r1,#0x30
        0x01003eae:    1e7f        ..      SUBS     r7,r7,#1
        0x01003eb0:    9003        ..      STR      r0,[sp,#0xc]
        0x01003eb2:    7039        9p      STRB     r1,[r7,#0]
        0x01003eb4:    9911        ..      LDR      r1,[sp,#0x44]
        0x01003eb6:    1e48        H.      SUBS     r0,r1,#1
        0x01003eb8:    9011        ..      STR      r0,[sp,#0x44]
        0x01003eba:    2900        .)      CMP      r1,#0
        0x01003ebc:    dcf2        ..      BGT      0x1003ea4 ; _printf_core + 1508
        0x01003ebe:    9803        ..      LDR      r0,[sp,#0xc]
        0x01003ec0:    2800        .(      CMP      r0,#0
        0x01003ec2:    d1ef        ..      BNE      0x1003ea4 ; _printf_core + 1508
        0x01003ec4:    1e79        y.      SUBS     r1,r7,#1
        0x01003ec6:    9812        ..      LDR      r0,[sp,#0x48]
        0x01003ec8:    7008        .p      STRB     r0,[r1,#0]
        0x01003eca:    7830        0x      LDRB     r0,[r6,#0]
        0x01003ecc:    2120         !      MOVS     r1,#0x20
        0x01003ece:    4008        .@      ANDS     r0,r0,r1
        0x01003ed0:    3045        E0      ADDS     r0,r0,#0x45
        0x01003ed2:    1ebf        ..      SUBS     r7,r7,#2
        0x01003ed4:    7038        8p      STRB     r0,[r7,#0]
        0x01003ed6:    a806        ..      ADD      r0,sp,#0x18
        0x01003ed8:    1bc0        ..      SUBS     r0,r0,r7
        0x01003eda:    1dc0        ..      ADDS     r0,r0,#7
        0x01003edc:    9003        ..      STR      r0,[sp,#0xc]
        0x01003ede:    9810        ..      LDR      r0,[sp,#0x40]
        0x01003ee0:    7800        .x      LDRB     r0,[r0,#0]
        0x01003ee2:    2800        .(      CMP      r0,#0
        0x01003ee4:    d000        ..      BEQ      0x1003ee8 ; _printf_core + 1576
        0x01003ee6:    2001        .       MOVS     r0,#1
        0x01003ee8:    9901        ..      LDR      r1,[sp,#4]
        0x01003eea:    1841        A.      ADDS     r1,r0,r1
        0x01003eec:    9802        ..      LDR      r0,[sp,#8]
        0x01003eee:    17c0        ..      ASRS     r0,r0,#31
        0x01003ef0:    1809        ..      ADDS     r1,r1,r0
        0x01003ef2:    9803        ..      LDR      r0,[sp,#0xc]
        0x01003ef4:    1809        ..      ADDS     r1,r1,r0
        0x01003ef6:    9804        ..      LDR      r0,[sp,#0x10]
        0x01003ef8:    1a40        @.      SUBS     r0,r0,r1
        0x01003efa:    1e40        @.      SUBS     r0,r0,#1
        0x01003efc:    9004        ..      STR      r0,[sp,#0x10]
        0x01003efe:    03e0        ..      LSLS     r0,r4,#15
        0x01003f00:    d406        ..      BMI      0x1003f10 ; _printf_core + 1616
        0x01003f02:    4621        !F      MOV      r1,r4
        0x01003f04:    9b1a        ..      LDR      r3,[sp,#0x68]
        0x01003f06:    9a19        ..      LDR      r2,[sp,#0x64]
        0x01003f08:    9804        ..      LDR      r0,[sp,#0x10]
        0x01003f0a:    f000f85f    .._.    BL       _printf_pre_padding ; 0x1003fcc
        0x01003f0e:    1945        E.      ADDS     r5,r0,r5
        0x01003f10:    9810        ..      LDR      r0,[sp,#0x40]
        0x01003f12:    7800        .x      LDRB     r0,[r0,#0]
        0x01003f14:    2800        .(      CMP      r0,#0
        0x01003f16:    d003        ..      BEQ      0x1003f20 ; _printf_core + 1632
        0x01003f18:    9a1a        ..      LDR      r2,[sp,#0x68]
        0x01003f1a:    9919        ..      LDR      r1,[sp,#0x64]
        0x01003f1c:    4790        .G      BLX      r2
        0x01003f1e:    1c6d        m.      ADDS     r5,r5,#1
        0x01003f20:    03e0        ..      LSLS     r0,r4,#15
        0x01003f22:    d524        $.      BPL      0x1003f6e ; _printf_core + 1710
        0x01003f24:    4621        !F      MOV      r1,r4
        0x01003f26:    9b1a        ..      LDR      r3,[sp,#0x68]
        0x01003f28:    9a19        ..      LDR      r2,[sp,#0x64]
        0x01003f2a:    9804        ..      LDR      r0,[sp,#0x10]
        0x01003f2c:    f000f84e    ..N.    BL       _printf_pre_padding ; 0x1003fcc
        0x01003f30:    1945        E.      ADDS     r5,r0,r5
        0x01003f32:    e01c        ..      B        0x1003f6e ; _printf_core + 1710
        0x01003f34:    9800        ..      LDR      r0,[sp,#0]
        0x01003f36:    2800        .(      CMP      r0,#0
        0x01003f38:    db07        ..      BLT      0x1003f4a ; _printf_core + 1674
        0x01003f3a:    9900        ..      LDR      r1,[sp,#0]
        0x01003f3c:    9805        ..      LDR      r0,[sp,#0x14]
        0x01003f3e:    4288        .B      CMP      r0,r1
        0x01003f40:    dd03        ..      BLE      0x1003f4a ; _printf_core + 1674
        0x01003f42:    9815        ..      LDR      r0,[sp,#0x54]
        0x01003f44:    5c40        @\      LDRB     r0,[r0,r1]
        0x01003f46:    9919        ..      LDR      r1,[sp,#0x64]
        0x01003f48:    e001        ..      B        0x1003f4e ; _printf_core + 1678
        0x01003f4a:    9919        ..      LDR      r1,[sp,#0x64]
        0x01003f4c:    2030        0       MOVS     r0,#0x30
        0x01003f4e:    9a1a        ..      LDR      r2,[sp,#0x68]
        0x01003f50:    4790        .G      BLX      r2
        0x01003f52:    9800        ..      LDR      r0,[sp,#0]
        0x01003f54:    1c6d        m.      ADDS     r5,r5,#1
        0x01003f56:    1c40        @.      ADDS     r0,r0,#1
        0x01003f58:    9000        ..      STR      r0,[sp,#0]
        0x01003f5a:    9802        ..      LDR      r0,[sp,#8]
        0x01003f5c:    1e40        @.      SUBS     r0,r0,#1
        0x01003f5e:    9002        ..      STR      r0,[sp,#8]
        0x01003f60:    2800        .(      CMP      r0,#0
        0x01003f62:    d104        ..      BNE      0x1003f6e ; _printf_core + 1710
        0x01003f64:    9a1a        ..      LDR      r2,[sp,#0x68]
        0x01003f66:    202e        .       MOVS     r0,#0x2e
        0x01003f68:    9919        ..      LDR      r1,[sp,#0x64]
        0x01003f6a:    4790        .G      BLX      r2
        0x01003f6c:    1c6d        m.      ADDS     r5,r5,#1
        0x01003f6e:    9901        ..      LDR      r1,[sp,#4]
        0x01003f70:    1e48        H.      SUBS     r0,r1,#1
        0x01003f72:    9001        ..      STR      r0,[sp,#4]
        0x01003f74:    2900        .)      CMP      r1,#0
        0x01003f76:    dcdd        ..      BGT      0x1003f34 ; _printf_core + 1652
        0x01003f78:    e005        ..      B        0x1003f86 ; _printf_core + 1734
        0x01003f7a:    7838        8x      LDRB     r0,[r7,#0]
        0x01003f7c:    9a1a        ..      LDR      r2,[sp,#0x68]
        0x01003f7e:    1c7f        ..      ADDS     r7,r7,#1
        0x01003f80:    9919        ..      LDR      r1,[sp,#0x64]
        0x01003f82:    4790        .G      BLX      r2
        0x01003f84:    1c6d        m.      ADDS     r5,r5,#1
        0x01003f86:    9903        ..      LDR      r1,[sp,#0xc]
        0x01003f88:    1e48        H.      SUBS     r0,r1,#1
        0x01003f8a:    9003        ..      STR      r0,[sp,#0xc]
        0x01003f8c:    2900        .)      CMP      r1,#0
        0x01003f8e:    dcf4        ..      BGT      0x1003f7a ; _printf_core + 1722
        0x01003f90:    4621        !F      MOV      r1,r4
        0x01003f92:    9b1a        ..      LDR      r3,[sp,#0x68]
        0x01003f94:    9a19        ..      LDR      r2,[sp,#0x64]
        0x01003f96:    9804        ..      LDR      r0,[sp,#0x10]
        0x01003f98:    e6ac        ..      B        0x1003cf4 ; _printf_core + 1076
    $d
        0x01003f9a:    0000        ..      DCW    0
        0x01003f9c:    0000002d    -...    DCD    45
        0x01003fa0:    0000002b    +...    DCD    43
        0x01003fa4:    00000020     ...    DCD    32
        0x01003fa8:    00000000    ....    DCD    0
    $t
    i._printf_post_padding
    _printf_post_padding
        0x01003fac:    b5f8        ..      PUSH     {r3-r7,lr}
        0x01003fae:    4604        .F      MOV      r4,r0
        0x01003fb0:    2500        .%      MOVS     r5,#0
        0x01003fb2:    461e        .F      MOV      r6,r3
        0x01003fb4:    4617        .F      MOV      r7,r2
        0x01003fb6:    0488        ..      LSLS     r0,r1,#18
        0x01003fb8:    d404        ..      BMI      0x1003fc4 ; _printf_post_padding + 24
        0x01003fba:    e005        ..      B        0x1003fc8 ; _printf_post_padding + 28
        0x01003fbc:    4639        9F      MOV      r1,r7
        0x01003fbe:    2020                MOVS     r0,#0x20
        0x01003fc0:    47b0        .G      BLX      r6
        0x01003fc2:    1c6d        m.      ADDS     r5,r5,#1
        0x01003fc4:    1e64        d.      SUBS     r4,r4,#1
        0x01003fc6:    d5f9        ..      BPL      0x1003fbc ; _printf_post_padding + 16
        0x01003fc8:    4628        (F      MOV      r0,r5
        0x01003fca:    bdf8        ..      POP      {r3-r7,pc}
    i._printf_pre_padding
    _printf_pre_padding
        0x01003fcc:    b5ff        ..      PUSH     {r0-r7,lr}
        0x01003fce:    4604        .F      MOV      r4,r0
        0x01003fd0:    2500        .%      MOVS     r5,#0
        0x01003fd2:    b081        ..      SUB      sp,sp,#4
        0x01003fd4:    461e        .F      MOV      r6,r3
        0x01003fd6:    03c8        ..      LSLS     r0,r1,#15
        0x01003fd8:    d501        ..      BPL      0x1003fde ; _printf_pre_padding + 18
        0x01003fda:    2730        0'      MOVS     r7,#0x30
        0x01003fdc:    e000        ..      B        0x1003fe0 ; _printf_pre_padding + 20
        0x01003fde:    2720         '      MOVS     r7,#0x20
        0x01003fe0:    0488        ..      LSLS     r0,r1,#18
        0x01003fe2:    d504        ..      BPL      0x1003fee ; _printf_pre_padding + 34
        0x01003fe4:    e005        ..      B        0x1003ff2 ; _printf_pre_padding + 38
        0x01003fe6:    4638        8F      MOV      r0,r7
        0x01003fe8:    9903        ..      LDR      r1,[sp,#0xc]
        0x01003fea:    47b0        .G      BLX      r6
        0x01003fec:    1c6d        m.      ADDS     r5,r5,#1
        0x01003fee:    1e64        d.      SUBS     r4,r4,#1
        0x01003ff0:    d5f9        ..      BPL      0x1003fe6 ; _printf_pre_padding + 26
        0x01003ff2:    4628        (F      MOV      r0,r5
        0x01003ff4:    b005        ..      ADD      sp,sp,#0x14
        0x01003ff6:    bdf0        ..      POP      {r4-r7,pc}
    i._snputc
    _snputc
        0x01003ff8:    684a        Jh      LDR      r2,[r1,#4]
        0x01003ffa:    2a00        .*      CMP      r2,#0
        0x01003ffc:    d006        ..      BEQ      0x100400c ; _snputc + 20
        0x01003ffe:    680a        .h      LDR      r2,[r1,#0]
        0x01004000:    1c53        S.      ADDS     r3,r2,#1
        0x01004002:    600b        .`      STR      r3,[r1,#0]
        0x01004004:    7010        .p      STRB     r0,[r2,#0]
        0x01004006:    6848        Hh      LDR      r0,[r1,#4]
        0x01004008:    1e40        @.      SUBS     r0,r0,#1
        0x0100400a:    6048        H`      STR      r0,[r1,#4]
        0x0100400c:    4770        pG      BX       lr
        0x0100400e:    0000        ..      MOVS     r0,r0
    $d.realdata
    .constdata
    g_pcHex1
        0x01004010:    01004e04    .N..    DCD    16797188
    g_pcHex2
        0x01004014:    01004df0    .M..    DCD    16797168
    .constdata
    __FUNCTION__
        0x01004018:    4f495047    GPIO    DCD    1330204743
        0x0100401c:    6e6f435f    _Con    DCD    1852785503
        0x01004020:    00676966    fig.    DCD    6777190
    __FUNCTION__
        0x01004024:    4f495047    GPIO    DCD    1330204743
        0x01004028:    696e495f    _Ini    DCD    1768835423
        0x0100402c:    0074        t.      DCW    116
    __FUNCTION__
        0x0100402e:    5047        GP      DCW    20551
        0x01004030:    505f4f49    IO_P    DCD    1348423497
        0x01004034:    556c6c75    ullU    DCD    1433169013
        0x01004038:    646d4370    pCmd    DCD    1684882288
        0x0100403c:    00          .       DCB    0
    __FUNCTION__
        0x0100403d:    475049      GPI     DCB    71,80,73
        0x01004040:    65525f4f    O_Re    DCD    1699897167
        0x01004044:    6e496461    adIn    DCD    1850303585
        0x01004048:    44747570    putD    DCD    1148482928
        0x0100404c:    00617461    ata.    DCD    6386785
    __FUNCTION__
        0x01004050:    4f495047    GPIO    DCD    1330204743
        0x01004054:    6165525f    _Rea    DCD    1634030175
        0x01004058:    706e4964    dInp    DCD    1886275940
        0x0100405c:    61447475    utDa    DCD    1631876213
        0x01004060:    69426174    taBi    DCD    1765958004
        0x01004064:    0074        t.      DCW    116
    __FUNCTION__
        0x01004066:    5047        GP      DCW    20551
        0x01004068:    525f4f49    IO_R    DCD    1381977929
        0x0100406c:    4f646165    eadO    DCD    1331978597
        0x01004070:    75707475    utpu    DCD    1970304117
        0x01004074:    74614474    tDat    DCD    1952531572
        0x01004078:    0061        a.      DCW    97
    __FUNCTION__
        0x0100407a:    5047        GP      DCW    20551
        0x0100407c:    525f4f49    IO_R    DCD    1381977929
        0x01004080:    4f646165    eadO    DCD    1331978597
        0x01004084:    75707475    utpu    DCD    1970304117
        0x01004088:    74614474    tDat    DCD    1952531572
        0x0100408c:    74694261    aBit    DCD    1953055329
        0x01004090:    00          .       DCB    0
    __FUNCTION__
        0x01004091:    475049      GPI     DCB    71,80,73
        0x01004094:    65525f4f    O_Re    DCD    1699897167
        0x01004098:    42746573    setB    DCD    1114924403
        0x0100409c:    00737469    its.    DCD    7566441
    __FUNCTION__
        0x010040a0:    4f495047    GPIO    DCD    1330204743
        0x010040a4:    7465535f    _Set    DCD    1952797535
        0x010040a8:    73746942    Bits    DCD    1937008962
        0x010040ac:    00          .       DCB    0
    __FUNCTION__
        0x010040ad:    475049      GPI     DCB    71,80,73
        0x010040b0:    72575f4f    O_Wr    DCD    1918328655
        0x010040b4:    00657469    ite.    DCD    6648937
    __FUNCTION__
        0x010040b8:    4f495047    GPIO    DCD    1330204743
        0x010040bc:    6972575f    _Wri    DCD    1769101151
        0x010040c0:    69426574    teBi    DCD    1765959028
        0x010040c4:    0074        t.      DCW    116
    .constdata
    __FUNCTION__
        0x010040c6:    5845        EX      DCW    22597
        0x010040c8:    435f4954    TI_C    DCD    1130318164
        0x010040cc:    7261656c    lear    DCD    1918985580
        0x010040d0:    65505449    ITPe    DCD    1699763273
        0x010040d4:    6e69646e    ndin    DCD    1852400750
        0x010040d8:    74694267    gBit    DCD    1953055335
        0x010040dc:    00          .       DCB    0
    __FUNCTION__
        0x010040dd:    455854      EXT     DCB    69,88,84
        0x010040e0:    694c5f49    I_Li    DCD    1766612809
        0x010040e4:    6f43656e    neCo    DCD    1866687854
        0x010040e8:    6769666e    nfig    DCD    1734960750
        0x010040ec:    00          .       DCB    0
    .constdata
    __FUNCTION__
        0x010040ed:    554152      UAR     DCB    85,65,82
        0x010040f0:    75415f54    T_Au    DCD    1967218516
        0x010040f4:    6c466f74    toFl    DCD    1816555380
        0x010040f8:    7443776f    owCt    DCD    1950578543
        0x010040fc:    6d436c72    rlCm    DCD    1833135218
        0x01004100:    0064        d.      DCW    100
    __FUNCTION__
        0x01004102:    4155        UA      DCW    16725
        0x01004104:    445f5452    RT_D    DCD    1147098194
        0x01004108:    696e4965    eIni    DCD    1768835429
        0x0100410c:    0074        t.      DCW    116
    __FUNCTION__
        0x0100410e:    4155        UA      DCW    16725
        0x01004110:    445f5452    RT_D    DCD    1147098194
        0x01004114:    6553414d    MASe    DCD    1699955021
        0x01004118:    7542646e    ndBu    DCD    1967285358
        0x0100411c:    0066        f.      DCW    102
    __FUNCTION__
        0x0100411e:    4155        UA      DCW    16725
        0x01004120:    495f5452    RT_I    DCD    1230984274
        0x01004124:    0074696e    nit.    DCD    7629166
    __FUNCTION__
        0x01004128:    54524155    UART    DCD    1414676821
        0x0100412c:    5273495f    _IsR    DCD    1383287135
        0x01004130:    46494658    XFIF    DCD    1179207256
        0x01004134:    6c75464f    OFul    DCD    1819625039
        0x01004138:    006c        l.      DCW    108
    __FUNCTION__
        0x0100413a:    4155        UA      DCW    16725
        0x0100413c:    495f5452    RT_I    DCD    1230984274
        0x01004140:    46585273    sRXF    DCD    1180193395
        0x01004144:    4e4f4649    IFON    DCD    1313818185
        0x01004148:    6d45746f    otEm    DCD    1833268335
        0x0100414c:    00797470    pty.    DCD    7959664
    __FUNCTION__
        0x01004150:    54524155    UART    DCD    1414676821
        0x01004154:    5573495f    _IsU    DCD    1433618783
        0x01004158:    42545241    ARTB    DCD    1112822337
        0x0100415c:    00797375    usy.    DCD    7959413
    __FUNCTION__
        0x01004160:    54524155    UART    DCD    1414676821
        0x01004164:    4354495f    _ITC    DCD    1129597279
        0x01004168:    69666e6f    onfi    DCD    1768320623
        0x0100416c:    0067        g.      DCW    103
    __FUNCTION__
        0x0100416e:    4155        UA      DCW    16725
        0x01004170:    525f5452    RT_R    DCD    1381979218
        0x01004174:    69656365    ecei    DCD    1768252261
        0x01004178:    61446576    veDa    DCD    1631872374
        0x0100417c:    6174        ta      DCW    24948
        0x0100417e:    00          .       DCB    0
    __FUNCTION__
        0x0100417f:    55          U       DCB    85
        0x01004180:    5f545241    ART_    DCD    1599361601
        0x01004184:    76636552    Recv    DCD    1986225490
        0x01004188:    00667542    Buf.    DCD    6714690
    __FUNCTION__
        0x0100418c:    54524155    UART    DCD    1414676821
        0x01004190:    6e65535f    _Sen    DCD    1852134239
        0x01004194:    66754264    dBuf    DCD    1718960740
        0x01004198:    00          .       DCB    0
    __FUNCTION__
        0x01004199:    554152      UAR     DCB    85,65,82
        0x0100419c:    65535f54    T_Se    DCD    1699962708
        0x010041a0:    49785274    tRxI    DCD    1232622196
        0x010041a4:    6d754e54    TNum    DCD    1836404308
        0x010041a8:    00          .       DCB    0
    __FUNCTION__
        0x010041a9:    554152      UAR     DCB    85,65,82
        0x010041ac:    65525f54    T_Re    DCD    1699897172
        0x010041b0:    76696563    ceiv    DCD    1986618723
        0x010041b4:    74614465    eDat    DCD    1952531557
        0x010041b8:    6e654c61    aLen    DCD    1852132449
        0x010041bc:    00          .       DCB    0
    .constdata
    __FUNCTION__
        0x010041bd:    737973      sys     DCB    115,121,115
        0x010041c0:    6b636954    Tick    DCD    1801677140
        0x010041c4:    6c65645f    _del    DCD    1818584159
        0x010041c8:    6d5f7961    ay_m    DCD    1834973537
        0x010041cc:    0073        s.      DCW    115
    __FUNCTION__
        0x010041ce:    7953        Sy      DCW    31059
        0x010041d0:    63695473    sTic    DCD    1667847283
        0x010041d4:    65445f6b    k_De    DCD    1698979691
        0x010041d8:    5f79616c    lay_    DCD    1601790316
        0x010041dc:    7355        Us      DCW    29525
        0x010041de:    00          .       DCB    0
    __FUNCTION__
        0x010041df:    53          S       DCB    83
        0x010041e0:    69547379    ysTi    DCD    1767142265
        0x010041e4:    435f6b63    ck_C    DCD    1130326883
        0x010041e8:    69666e6f    onfi    DCD    1768320623
        0x010041ec:    0067        g.      DCW    103
    .constdata
    __FUNCTION__
        0x010041ee:    4441        AD      DCW    17473
        0x010041f0:    6e495f43    C_In    DCD    1850302275
        0x010041f4:    7469        it      DCW    29801
        0x010041f6:    00          .       DCB    0
    .constdata
    __FUNCTION__
        0x010041f7:    53          S       DCB    83
        0x010041f8:    54435359    YSCT    DCD    1413698393
        0x010041fc:    415f4c52    RL_A    DCD    1096764498
        0x01004200:    65504248    HBPe    DCD    1699758664
        0x01004204:    68706972    riph    DCD    1752197490
        0x01004208:    636f6c43    Cloc    DCD    1668246595
        0x0100420c:    646d436b    kCmd    DCD    1684882283
        0x01004210:    00          .       DCB    0
    __FUNCTION__
        0x01004211:    535953      SYS     DCB    83,89,83
        0x01004214:    4c525443    CTRL    DCD    1280463939
        0x01004218:    746e455f    _Ent    DCD    1953383775
        0x0100421c:    6c537265    erSl    DCD    1817408101
        0x01004220:    00706565    eep.    DCD    7365989
    __FUNCTION__
        0x01004224:    43535953    SYSC    DCD    1129535827
        0x01004228:    5f4c5254    TRL_    DCD    1598837332
        0x0100422c:    4b4c4348    HCLK    DCD    1263289160
        0x01004230:    666e6f43    Conf    DCD    1718513475
        0x01004234:    6769        ig      DCW    26473
        0x01004236:    00          .       DCB    0
    .constdata
    __FUNCTION__
        0x01004237:    54          T       DCB    84
        0x01004238:    435f4d49    IM_C    DCD    1130319177
        0x0100423c:    646d        md      DCW    25709
        0x0100423e:    00          .       DCB    0
    __FUNCTION__
        0x0100423f:    54          T       DCB    84
        0x01004240:    495f4d49    IM_I    DCD    1230982473
        0x01004244:    0074696e    nit.    DCD    7629166
    __FUNCTION__
        0x01004248:    5f4d4954    TIM_    DCD    1598900564
        0x0100424c:    65646f4d    Mode    DCD    1701080909
        0x01004250:    666e6f43    Conf    DCD    1718513475
        0x01004254:    6769        ig      DCW    26473
        0x01004256:    00          .       DCB    0
    __FUNCTION__
        0x01004257:    54          T       DCB    84
        0x01004258:    535f4d49    IM_S    DCD    1398754633
        0x0100425c:    65507465    etPe    DCD    1699771493
        0x01004260:    646f6972    riod    DCD    1685023090
        0x01004264:    00          .       DCB    0
    __FUNCTION__
        0x01004265:    54494d      TIM     DCB    84,73,77
        0x01004268:    4d57505f    _PWM    DCD    1297567839
        0x0100426c:    74696e49    Init    DCD    1953066569
        0x01004270:    00          .       DCB    0
    __FUNCTION__
        0x01004271:    54494d      TIM     DCB    84,73,77
        0x01004274:    7465535f    _Set    DCD    1952797535
        0x01004278:    504d5750    PWMP    DCD    1347245904
        0x0100427c:    6f697265    erio    DCD    1869181541
        0x01004280:    0064        d.      DCW    100
    __FUNCTION__
        0x01004282:    4954        TI      DCW    18772
        0x01004284:    57505f4d    M_PW    DCD    1464885069
        0x01004288:    6669444d    MDif    DCD    1718174797
        0x0100428c:    65726566    fere    DCD    1701995878
        0x01004290:    6169746e    ntia    DCD    1634301038
        0x01004294:    006c        l.      DCW    108
    .constdata
    __FUNCTION__
        0x01004296:    5053        SP      DCW    20563
        0x01004298:    6e495f49    I_In    DCD    1850302281
        0x0100429c:    7469        it      DCW    29801
        0x0100429e:    00          .       DCB    0
    .constdata
    bt_code
        0x0100429f:    00          .       DCB    0
        0x010042a0:    9e55aa02    ..U.    DCD    2656414210
        0x010042a4:    0084c204    ....    DCD    8700420
        0x010042a8:    8000c008    ....    DCD    2147532808
        0x010042ac:    8042c011    ..B.    DCD    2151858193
        0x010042b0:    8044c017    ..D.    DCD    2151989271
        0x010042b4:    0051c038    8.Q.    DCD    5357624
        0x010042b8:    005cc041    A.\.    DCD    6078529
        0x010042bc:    805dc048    H.].    DCD    2153627720
        0x010042c0:    4a202075    u  J    DCD    1243619445
        0x010042c4:    8001c08b    ....    DCD    2147598475
        0x010042c8:    8002c0d0    ....    DCD    2147664080
        0x010042cc:    0003c0e0    ....    DCD    245984
        0x010042d0:    001dc0e9    ....    DCD    1949929
        0x010042d4:    001fc0ee    ....    DCD    2081006
        0x010042d8:    8120c0f7    .. .    DCD    2166407415
        0x010042dc:    0129c009    ..).    DCD    19513353
        0x010042e0:    814cc00f    ..L.    DCD    2169290767
        0x010042e4:    4a202023    #  J    DCD    1243619363
        0x010042e8:    6840208b    . @h    DCD    1749033099
        0x010042ec:    604020c4    . @`    DCD    1614815428
        0x010042f0:    004020d7    . @.    DCD    4202711
        0x010042f4:    40202015    .  @    DCD    1075847189
        0x010042f8:    8075200a    . u.    DCD    2155159562
        0x010042fc:    7b202000    .  {    DCD    2065702912
        0x01004300:    8030209a    . 0.    DCD    2150637722
        0x01004304:    55897027    'p.U    DCD    1435070503
        0x01004308:    000020d4    . ..    DCD    8404
        0x0100430c:    55897004    .p.U    DCD    1435070468
        0x01004310:    000020d2    . ..    DCD    8402
        0x01004314:    55897004    .p.U    DCD    1435070468
        0x01004318:    000020d1    . ..    DCD    8401
        0x0100431c:    41e26f04    .o.A    DCD    1105358596
        0x01004320:    0000c0df    ....    DCD    49375
        0x01004324:    8000c025    %...    DCD    2147532837
        0x01004328:    0001c035    5...    DCD    114741
        0x0100432c:    8001c025    %...    DCD    2147598373
        0x01004330:    0002c035    5...    DCD    180277
        0x01004334:    0010c035    5...    DCD    1097781
        0x01004338:    55897035    5p.U    DCD    1435070517
        0x0100433c:    568970d0    .p.V    DCD    1451847888
        0x01004340:    2a0018e0    ...*    DCD    704649440
        0x01004344:    2a001808    ...*    DCD    704649224
        0x01004348:    fc507800    .xP.    DCD    4233132032
        0x0100434c:    7c507800    .xP|    DCD    2085648384
        0x01004350:    7c2f7800    .x/|    DCD    2083485696
        0x01004354:    02897000    .p..    DCD    42561536
        0x01004358:    01897000    .p..    DCD    25784320
        0x0100435c:    00897000    .p..    DCD    9007104
        0x01004360:    03897000    .p..    DCD    59338752
        0x01004364:    04897000    .p..    DCD    76115968
        0x01004368:    89e26f70    po..    DCD    2313318256
        0x0100436c:    7e207906    .y ~    DCD    2116057350
        0x01004370:    89e26700    .g..    DCD    2313316096
        0x01004374:    00602006    . `.    DCD    6299654
        0x01004378:    55897000    .p.U    DCD    1435070464
        0x0100437c:    568970d0    .p.V    DCD    1451847888
        0x01004380:    002020c0    .  .    DCD    2105536
        0x01004384:    00426027    '`B.    DCD    4349991
        0x01004388:    49402017    . @I    DCD    1228939287
        0x0100438c:    4940202a    * @I    DCD    1228939306
        0x01004390:    05005880    .X..    DCD    83908736
        0x01004394:    4a402000    . @J    DCD    1245716480
        0x01004398:    89e26f8e    .o..    DCD    2313318286
        0x0100439c:    7e207906    .y ~    DCD    2116057350
        0x010043a0:    89e26700    .g..    DCD    2313316096
        0x010043a4:    49202006    .  I    DCD    1226842118
        0x010043a8:    06897037    7p..    DCD    109670455
        0x010043ac:    8075207c    | u.    DCD    2155159676
        0x010043b0:    00005800    .X..    DCD    22528
        0x010043b4:    41e46700    .g.A    DCD    1105487616
        0x010043b8:    7e431cdd    ..C~    DCD    2118327517
        0x010043bc:    40e86700    .g.@    DCD    1088972544
        0x010043c0:    00602094    . `.    DCD    6299796
        0x010043c4:    00005800    .X..    DCD    22528
        0x010043c8:    41e46752    Rg.A    DCD    1105487698
        0x010043cc:    000058f6    .X..    DCD    22774
        0x010043d0:    41e4675a    Zg.A    DCD    1105487706
        0x010043d4:    000058fe    .X..    DCD    22782
        0x010043d8:    41e46764    dg.A    DCD    1105487716
        0x010043dc:    4d4020fa    . @M    DCD    1296048378
        0x010043e0:    4d4020af    . @M    DCD    1296048303
        0x010043e4:    4c4020bc    . @L    DCD    1279271100
        0x010043e8:    5020202a    *  P    DCD    1344282666
        0x010043ec:    7e621a4d    M.b~    DCD    2120358477
        0x010043f0:    8004c000    ....    DCD    2147794944
        0x010043f4:    0001c058    X...    DCD    114776
        0x010043f8:    4d202056    V  M    DCD    1293951062
        0x010043fc:    154b70df    .pK.    DCD    357265631
        0x01004400:    4d202000    .  M    DCD    1293950976
        0x01004404:    154b70fb    .pK.    DCD    357265659
        0x01004408:    4e202006    .  N    DCD    1310728198
        0x0100440c:    00402008    . @.    DCD    4202504
        0x01004410:    5020205c    \  P    DCD    1344282716
        0x01004414:    4be26fc3    .o.K    DCD    1273130947
        0x01004418:    007a2015    . z.    DCD    8003605
        0x0100441c:    ffe01f00    ....    DCD    4292878080
        0x01004420:    4be267ff    .g.K    DCD    1273128959
        0x01004424:    007a2415    .$z.    DCD    8004629
        0x01004428:    46e46f00    .o.F    DCD    1189375744
        0x0100442c:    4d80c252    R..M    DCD    1300283986
        0x01004430:    00602064    d `.    DCD    6299748
        0x01004434:    4f402000    . @O    DCD    1329602560
        0x01004438:    00742011    . t.    DCD    7610385
        0x0100443c:    7e221a00    .."~    DCD    2116164096
        0x01004440:    46e46700    .g.F    DCD    1189373696
        0x01004444:    7e421a71    q.B~    DCD    2118261361
        0x01004448:    46e26700    .g.F    DCD    1189242624
        0x0100444c:    04446870    phD.    DCD    71592048
        0x01004450:    46446074    t`DF    DCD    1178886260
        0x01004454:    5b402073    s @[    DCD    1530929267
        0x01004458:    4a3a246c    l$:J    DCD    1245324396
        0x0100445c:    04e26f8b    .o..    DCD    81948555
        0x01004460:    5081c09e    ...P    DCD    1350680734
        0x01004464:    0044e842    B.D.    DCD    4515906
        0x01004468:    29005806    .X.)    DCD    687888390
        0x0100446c:    7c469802    ..F|    DCD    2085001218
        0x01004470:    80622000    . b.    DCD    2153914368
        0x01004474:    50202000    .  P    DCD    1344282624
        0x01004478:    0ae26f42    Bo..    DCD    182611778
        0x0100447c:    8013c0ff    ....    DCD    2148778239
        0x01004480:    0006c0ce    ....    DCD    442574
        0x01004484:    003bc07d    }.;.    DCD    3915901
        0x01004488:    803bc086    ..;.    DCD    2151399558
        0x0100448c:    003cc08c    ..<.    DCD    3981452
        0x01004490:    800ac091    ....    DCD    2148188305
        0x01004494:    4e2020cb    .  N    DCD    1310728395
        0x01004498:    06221a5c    \.".    DCD    102898268
        0x0100449c:    00e2ef00    ....    DCD    14872320
        0x010044a0:    4f00c003    ...O    DCD    1325449219
        0x010044a4:    cf00c01c    ....    DCD    3472932892
        0x010044a8:    4f01c01f    ...O    DCD    1325514783
        0x010044ac:    8001c025    %...    DCD    2147598373
        0x010044b0:    50202084    .  P    DCD    1344282756
        0x010044b4:    0000581c    .X..    DCD    22556
        0x010044b8:    4f202001    .  O    DCD    1327505409
        0x010044bc:    0040d820     .@.    DCD    4249632
        0x010044c0:    5b402028    ( @[    DCD    1530929192
        0x010044c4:    8bc0184d    M...    DCD    2344622157
        0x010044c8:    000058fe    .X..    DCD    22782
        0x010044cc:    00e4e700    ....    DCD    15001344
        0x010044d0:    50202005    .  P    DCD    1344282629
        0x010044d4:    0040201f    . @.    DCD    4202527
        0x010044d8:    00402095    . @.    DCD    4202645
        0x010044dc:    000058b2    .X..    DCD    22706
        0x010044e0:    00e4e700    ....    DCD    15001344
        0x010044e4:    00202005    .  .    DCD    2105349
        0x010044e8:    00e2efc4    ....    DCD    14872516
        0x010044ec:    00402003    . @.    DCD    4202499
        0x010044f0:    00402099    . @.    DCD    4202649
        0x010044f4:    002020a0    .  .    DCD    2105504
        0x010044f8:    004020c4    . @.    DCD    4202692
        0x010044fc:    002858b6    .X(.    DCD    2644150
        0x01004500:    00e6e702    ....    DCD    15132418
        0x01004504:    00602005    . `.    DCD    6299653
        0x01004508:    0ae26700    .g..    DCD    182609664
        0x0100450c:    00402096    . @.    DCD    4202646
        0x01004510:    032859b6    .Y(.    DCD    52976054
        0x01004514:    00e8e702    ....    DCD    15263490
        0x01004518:    0ae26f05    .o..    DCD    182611717
        0x0100451c:    00e6e796    ....    DCD    15132566
        0x01004520:    00602005    . `.    DCD    6299653
        0x01004524:    00402000    . @.    DCD    4202496
        0x01004528:    004020b6    . @.    DCD    4202678
        0x0100452c:    004020b2    . @.    DCD    4202674
        0x01004530:    000058b2    .X..    DCD    22706
        0x01004534:    00e4e700    ....    DCD    15001344
        0x01004538:    85401805    ..@.    DCD    2235570181
        0x0100453c:    5b4020ff    . @[    DCD    1530929407
        0x01004540:    8cc0184d    M...    DCD    2361399373
        0x01004544:    00e2ef04    ....    DCD    14872324
        0x01004548:    0082c206    ....    DCD    8569350
        0x0100454c:    8082c2ad    ....    DCD    2156053165
        0x01004550:    844018ad    ..@.    DCD    2218793133
        0x01004554:    00602001    . `.    DCD    6299649
        0x01004558:    00402000    . @.    DCD    4202496
        0x0100455c:    02295ab6    .Z).    DCD    36264630
        0x01004560:    00f0e702    ....    DCD    15787778
        0x01004564:    85401805    ..@.    DCD    2235570181
        0x01004568:    006020ff    . `.    DCD    6299903
        0x0100456c:    00e2ef00    ....    DCD    14872320
        0x01004570:    72e21f03    ...r    DCD    1927421699
        0x01004574:    00e2e700    ....    DCD    14870272
        0x01004578:    67202005    .  g    DCD    1730158597
        0x0100457c:    004020ed    . @.    DCD    4202733
        0x01004580:    0044e0b9    ..D.    DCD    4513977
        0x01004584:    00602005    . `.    DCD    6299653
        0x01004588:    44e46f00    .o.D    DCD    1155821312
        0x0100458c:    0c00988e    ....    DCD    201365646
        0x01004590:    00e4ef00    ....    DCD    15003392
        0x01004594:    007a2006    . z.    DCD    8003590
        0x01004598:    84e01f00    ....    DCD    2229280512
        0x0100459c:    00e2ef01    ....    DCD    14872321
        0x010045a0:    8cc09806    ....    DCD    2361432070
        0x010045a4:    00e2ef00    ....    DCD    14872320
        0x010045a8:    8cc09806    ....    DCD    2361432070
        0x010045ac:    0ac21800    ....    DCD    180492288
        0x010045b0:    00202000    .  .    DCD    2105344
        0x010045b4:    0a4460bb    .`D.    DCD    172253371
        0x010045b8:    ff0a709e    .p..    DCD    4278874270
        0x010045bc:    00005829    )X..    DCD    22569
        0x010045c0:    50402002    . @P    DCD    1346379778
        0x010045c4:    0a4468a5    .hD.    DCD    172255397
        0x010045c8:    0044e09e    ..D.    DCD    4513950
        0x010045cc:    6720200a    .  g    DCD    1730158602
        0x010045d0:    00e6efb9    ....    DCD    15134649
        0x010045d4:    40e66703    .g.@    DCD    1088841475
        0x010045d8:    502020aa    .  P    DCD    1344282794
        0x010045dc:    5040201f    . @P    DCD    1346379807
        0x010045e0:    4d20201f    .  M    DCD    1293951007
        0x010045e4:    49402085    . @I    DCD    1228939397
        0x010045e8:    fc2378ba    .x#.    DCD    4230183098
        0x010045ec:    fc247800    .x$.    DCD    4230248448
        0x010045f0:    00800900    ....    DCD    8390912
        0x010045f4:    7e891908    ...~    DCD    2122914056
        0x010045f8:    02e26700    .g..    DCD    48391936
        0x010045fc:    008009d5    ....    DCD    8391125
        0x01004600:    7e891908    ...~    DCD    2122914056
        0x01004604:    00e2e700    ....    DCD    14870272
        0x01004608:    72e11f05    ...r    DCD    1927356165
        0x0100460c:    d822203f    ? ".    DCD    3626115135
        0x01004610:    7ce61f8b    ...|    DCD    2095456139
        0x01004614:    00412433    3$A.    DCD    4269107
        0x01004618:    582020de    .  X    DCD    1478500574
        0x0100461c:    0020df87    .. .    DCD    2154375
        0x01004620:    00602033    3 `.    DCD    6299699
        0x01004624:    58402000    . @X    DCD    1480597504
        0x01004628:    494020a3    . @I    DCD    1228939427
        0x0100462c:    00426815    .hB.    DCD    4352021
        0x01004630:    49402017    . @I    DCD    1228939287
        0x01004634:    0500201c    . ..    DCD    83894300
        0x01004638:    494020dc    . @I    DCD    1228939484
        0x0100463c:    7c287821    !x(|    DCD    2083026977
        0x01004640:    1560d900    ..`.    DCD    358668544
        0x01004644:    5820207c    |  X    DCD    1478500476
        0x01004648:    57402069    i @W    DCD    1463820393
        0x0100464c:    004020af    . @.    DCD    4202671
        0x01004650:    582020ec    .  X    DCD    1478500588
        0x01004654:    803620a7    . 6.    DCD    2151030951
        0x01004658:    5720203d    =  W    DCD    1461723197
        0x0100465c:    00e26fbe    .o..    DCD    14839742
        0x01004660:    0008c07d    }...    DCD    573565
        0x01004664:    602020f1    .  `    DCD    1612718321
        0x01004668:    054268fe    .hB.    DCD    88238334
        0x0100466c:    7c46184e    N.F|    DCD    2084968526
        0x01004670:    00212006    . !.    DCD    2170886
        0x01004674:    622020f5    .  b    DCD    1646272757
        0x01004678:    7e007006    .p.~    DCD    2113957894
        0x0100467c:    61202024    $  a    DCD    1629495332
        0x01004680:    7c547834    4xT|    DCD    2085910580
        0x01004684:    66402000    . @f    DCD    1715478528
        0x01004688:    00e26fa3    .o..    DCD    14839715
        0x0100468c:    007a2048    H z.    DCD    8003656
        0x01004690:    8083c200    ....    DCD    2156118528
        0x01004694:    632020fd    .  c    DCD    1663049981
        0x01004698:    0142c0f2    ..B.    DCD    21151986
        0x0100469c:    8141c000    ..A.    DCD    2168569856
        0x010046a0:    64202003    .  d    DCD    1679826947
        0x010046a4:    01402021    ! @.    DCD    20979745
        0x010046a8:    00e26f06    .o..    DCD    14839558
        0x010046ac:    64202048    H  d    DCD    1679827016
        0x010046b0:    0140207b    { @.    DCD    20979835
        0x010046b4:    00e26f06    .o..    DCD    14839558
        0x010046b8:    64202048    H  d    DCD    1679827016
        0x010046bc:    46e26fef    .o.F    DCD    1189244911
        0x010046c0:    653a202c    , :e    DCD    1698308140
        0x010046c4:    6520200d    .  e    DCD    1696604173
        0x010046c8:    40e26f06    .o.@    DCD    1088581382
        0x010046cc:    fe3f799e    .y?.    DCD    4265572766
        0x010046d0:    40e26703    .g.@    DCD    1088579331
        0x010046d4:    0000589e    .X..    DCD    22686
        0x010046d8:    04e46701    .g..    DCD    82077441
        0x010046dc:    006020ca    . `.    DCD    6299850
        0x010046e0:    04e26f00    .o..    DCD    81948416
        0x010046e4:    e91fc0f9    ....    DCD    3911172345
        0x010046e8:    e939c03e    >.9.    DCD    3912876094
        0x010046ec:    8177c047    G.w.    DCD    2172108871
        0x010046f0:    ea29c015    ..).    DCD    3928604693
        0x010046f4:    00602005    . `.    DCD    6299653
        0x010046f8:    04e46f00    .o..    DCD    82079488
        0x010046fc:    0ce21ffd    ....    DCD    216145917
        0x01004700:    69402000    . @i    DCD    1765810176
        0x01004704:    04e26f84    .o..    DCD    81948548
        0x01004708:    e920c0ff    .. .    DCD    3911237887
        0x0100470c:    6920c066    f. i    DCD    1763754086
        0x01004710:    e938c06e    n.8.    DCD    3912810606
        0x01004714:    0138c0a7    ..8.    DCD    20496551
        0x01004718:    e924c01f    ..$.    DCD    3911499807
        0x0100471c:    6a2020be    .  j    DCD    1780490430
        0x01004720:    950a7058    Xp..    DCD    2500489304
        0x01004724:    7b402008    . @{    DCD    2067800072
        0x01004728:    694020ab    . @i    DCD    1765810347
        0x0100472c:    69202072    r  i    DCD    1763713138
        0x01004730:    44e26fba    .o.D    DCD    1155690426
        0x01004734:    5e3a2090    . :^    DCD    1580867728
        0x01004738:    744020d0    . @t    DCD    1950359760
        0x0100473c:    79202038    8  y    DCD    2032148536
        0x01004740:    aaa63532    25..    DCD    2863019314
        0x01004744:    92000155    U...    DCD    2449473877
        0x01004748:    55aa0a40    @..U    DCD    1437207104
        0x0100474c:    46540001    ..TF    DCD    1179910145
        0x01004750:    0155aa40    @.U.    DCD    22391360
        0x01004754:    13420600    ..B.    DCD    323094016
        0x01004758:    000855aa    .U..    DCD    546218
        0x0100475c:    fbff4098    .@..    DCD    4227809432
        0x01004760:    858bf88f    ....    DCD    2240542863
        0x01004764:    55aa8359    Y..U    DCD    1437238105
        0x01004768:    42140003    ...B    DCD    1108606979
        0x0100476c:    aa054a6b    kJ..    DCD    2852473451
        0x01004770:    3d000455    U..=    DCD    1023411285
        0x01004774:    007f0045    E...    DCD    8323141
        0x01004778:    0355aa07    ..U.    DCD    55945735
        0x0100477c:    03462d00    .-F.    DCD    54930688
        0x01004780:    55aa0400    ...U    DCD    1437205504
        0x01004784:    462c0001    ..,F    DCD    1177288705
        0x01004788:    0655aa01    ..U.    DCD    106277377
        0x0100478c:    04465700    .WF.    DCD    71718656
        0x01004790:    30303030    0000    DCD    808464432
        0x01004794:    1055aa30    0.U.    DCD    274049584
        0x01004798:    004ff000    ..O.    DCD    5238784
        0x0100479c:    001fff1c    ....    DCD    2096924
        0x010047a0:    001c001c    ....    DCD    1835036
        0x010047a4:    004fe04c    L.O.    DCD    5234764
        0x010047a8:    aa4c004c    L.L.    DCD    2857107532
        0x010047ac:    68000255    U..h    DCD    1744831061
        0x010047b0:    aa050046    F...    DCD    2852454470
        0x010047b4:    6c000155    U..l    DCD    1811939669
        0x010047b8:    55aa0346    F..U    DCD    1437205318
        0x010047bc:    466f0001    ..oF    DCD    1181679617
        0x010047c0:    0355aa07    ..U.    DCD    55945735
        0x010047c4:    2440aa00    ..@$    DCD    608217600
        0x010047c8:    55aa0404    ...U    DCD    1437205508
        0x010047cc:    46790001    ..yF    DCD    1182334977
        0x010047d0:    0155aa00    ..U.    DCD    22391296
        0x010047d4:    00409100    ..@.    DCD    4231424
        0x010047d8:    000355aa    .U..    DCD    218538
        0x010047dc:    01004154    TA..    DCD    16793940
        0x010047e0:    0155aa08    ..U.    DCD    22391304
        0x010047e4:    02417400    .tA.    DCD    37843968
        0x010047e8:    000155aa    .U..    DCD    87466
        0x010047ec:    aa004093    .@..    DCD    2852143251
        0x010047f0:    6d000155    U..m    DCD    1828716885
        0x010047f4:    55aa2846    F(.U    DCD    1437214790
        0x010047f8:    40a00006    ...@    DCD    1084227590
        0x010047fc:    212a2aa7    .**!    DCD    556411559
        0x01004800:    55aa3a10    .:.U    DCD    1437219344
        0x01004804:    44e7000c    ...D    DCD    1155989516
        0x01004808:    3231330b    .312    DCD    842085131
        0x0100480c:    6f4d2031    1 Mo    DCD    1867325489
        0x01004810:    74422075    u Bt    DCD    1950490741
        0x01004814:    000355aa    .U..    DCD    218538
        0x01004818:    002041e4    .A .    DCD    2114020
        0x0100481c:    0155aa01    ..U.    DCD    22391297
        0x01004820:    0041e800    ..A.    DCD    4319232
        0x01004824:    000155aa    .U..    DCD    87466
        0x01004828:    aa014490    .D..    DCD    2852209808
        0x0100482c:    5f000155    U.._    DCD    1593835861
        0x01004830:    55aa0744    D..U    DCD    1437206340
        0x01004834:    44980001    ...D    DCD    1150812161
        0x01004838:    0455aa00    ..U.    DCD    72722944
        0x0100483c:    2d467500    .uF-    DCD    759592192
        0x01004840:    aa002f00    ./..    DCD    2852138752
        0x01004844:    40000155    U..@    DCD    1073742165
        0x01004848:    55aa0043    C..U    DCD    1437204547
        0x0100484c:    44540002    ..TD    DCD    1146355714
        0x01004850:    55aa0040    @..U    DCD    1437204544
        0x01004854:    466e0001    ..nF    DCD    1181614081
        0x01004858:    0655aa05    ..U.    DCD    106277381
        0x0100485c:    21447200    .rD!    DCD    558133760
        0x01004860:    02330122    ".3.    DCD    36897058
        0x01004864:    0d55aa3a    :.U.    DCD    223717946
        0x01004868:    0c438100    ..C.    DCD    205750528
        0x0100486c:    31323133    3121    DCD    825372979
        0x01004870:    756f4d20     Mou    DCD    1970228512
        0x01004874:    656c4220     Ble    DCD    1701593632
        0x01004878:    000455aa    .U..    DCD    284074
        0x0100487c:    02034341    AC..    DCD    33768257
        0x01004880:    55aa0201    ...U    DCD    1437204993
        0x01004884:    43610016    ..aC    DCD    1130430486
        0x01004888:    0201020e    ....    DCD    33620494
        0x0100488c:    69590911    ..Yi    DCD    1767442705
        0x01004890:    70696863    chip    DCD    1885956195
        0x01004894:    32303120     102    DCD    842019104
        0x01004898:    4d207331    1s M    DCD    1293972273
        0x0100489c:    55aa756f    ou.U    DCD    1437234543
        0x010048a0:    44250007    ..%D    DCD    1143275527
        0x010048a4:    05000302    ....    DCD    83886850
        0x010048a8:    aa030210    ....    DCD    2852323856
        0x010048ac:    68000855    U..h    DCD    1744832597
        0x010048b0:    10000844    D...    DCD    268437572
        0x010048b4:    2c000000    ...,    DCD    738197504
        0x010048b8:    0155aa01    ..U.    DCD    22391297
        0x010048bc:    b9447800    .xD.    DCD    3108272128
        0x010048c0:    000155aa    .U..    DCD    87466
        0x010048c4:    aa17447a    zD..    DCD    2853651578
        0x010048c8:    cc000255    U...    DCD    3422552661
        0x010048cc:    aa003144    D1..    DCD    2852139332
        0x010048d0:    d1000155    U...    DCD    3506438485
        0x010048d4:    55aa0140    @..U    DCD    1437204800
        0x010048d8:    4549000c    ..IE    DCD    1162412044
        0x010048dc:    12000305    ....    DCD    301990661
        0x010048e0:    00010100    ....    DCD    65792
        0x010048e4:    00031101    ....    DCD    200961
        0x010048e8:    000155aa    .U..    DCD    87466
        0x010048ec:    aa00455f    _E..    DCD    2852144479
        0x010048f0:    47000255    U..G    DCD    1191182933
        0x010048f4:    aa468345    E.F.    DCD    2856747845
        0x010048f8:    8300b855    U...    DCD    2197862485
        0x010048fc:    00120346    F...    DCD    1180486
        0x01004900:    01000001    ....    DCD    16777217
        0x01004904:    01000100    ....    DCD    16777472
        0x01004908:    09520036    6.R.    DCD    156368950
        0x0100490c:    000a0000    ....    DCD    655360
        0x01004910:    09010001    ....    DCD    151060481
        0x01004914:    03350100    ..5.    DCD    53805312
        0x01004918:    09001219    ....    DCD    150999577
        0x0100491c:    0d350400    ..5.    DCD    221578240
        0x01004920:    01190635    5...    DCD    18417205
        0x01004924:    01000900    ....    DCD    16779520
        0x01004928:    00190335    5...    DCD    1639221
        0x0100492c:    09000901    ....    DCD    150997249
        0x01004930:    06350835    5.5.    DCD    104138805
        0x01004934:    09001219    ....    DCD    150999577
        0x01004938:    02090001    ....    DCD    34144257
        0x0100493c:    03010900    ....    DCD    50399488
        0x01004940:    09010209    ....    DCD    151061001
        0x01004944:    0209ac05    ....    DCD    34188293
        0x01004948:    39020902    ...9    DCD    956434690
        0x0100494c:    09030209    ....    DCD    151192073
        0x01004950:    02094406    .D..    DCD    34161670
        0x01004954:    09012804    .(..    DCD    151070724
        0x01004958:    00090502    ....    DCD    591106
        0x0100495c:    01110302    ....    DCD    17892098
        0x01004960:    00010300    ....    DCD    66304
        0x01004964:    03000100    ....    DCD    50331904
        0x01004968:    09460036    6.F.    DCD    155582518
        0x0100496c:    000a0000    ....    DCD    655360
        0x01004970:    09030001    ....    DCD    151191553
        0x01004974:    03350100    ..5.    DCD    53805312
        0x01004978:    09011119    ....    DCD    151064857
        0x0100497c:    000a0200    ....    DCD    655872
        0x01004980:    09000000    ....    DCD    150994944
        0x01004984:    0c350400    ..5.    DCD    204801024
        0x01004988:    01190335    5...    DCD    18416437
        0x0100498c:    19053500    .5..    DCD    419771648
        0x01004990:    01080300    ....    DCD    17302272
        0x01004994:    35060009    ...5    DCD    889585673
        0x01004998:    6e650909    ..en    DCD    1852115209
        0x0100499c:    096a0009    ..j.    DCD    157941769
        0x010049a0:    01090001    ....    DCD    17367041
        0x010049a4:    530a2500    .%.S    DCD    1393173760
        0x010049a8:    73205050    PP s    DCD    1931497552
        0x010049ac:    6576616c    lave    DCD    1702257004
        0x010049b0:    01000000    ....    DCD    16777216
        0x010049b4:    0255aa00    ..U.    DCD    39168512
        0x010049b8:    af448e00    ..D.    DCD    2940505600
        0x010049bc:    3555aa47    G.U5    DCD    894806599
        0x010049c0:    0147af02    ..G.    DCD    21475074
        0x010049c4:    28000200    ...(    DCD    671089152
        0x010049c8:    02180002    ....    DCD    35127298
        0x010049cc:    28030200    ...(    DCD    671285760
        0x010049d0:    00030201    ....    DCD    197121
        0x010049d4:    022a0102    ..*.    DCD    36307202
        0x010049d8:    000400c8    ....    DCD    262344
        0x010049dc:    01280302    ..(.    DCD    19399426
        0x010049e0:    0200050a    ....    DCD    33555722
        0x010049e4:    41142a00    .*.A    DCD    1091840512
        0x010049e8:    4c207473    st L    DCD    1277195379
        0x010049ec:    6f4d2045    E Mo    DCD    1867325509
        0x010049f0:    20657375    use     DCD    543519605
        0x010049f4:    20202020            DCD    538976288
        0x010049f8:    06202020       .    DCD    102768672
        0x010049fc:    28030200    ...(    DCD    671285760
        0x01004a00:    00070201    ....    DCD    459265
        0x01004a04:    082a0402    ..*.    DCD    136971266
        0x01004a08:    00060006    ....    DCD    393222
        0x01004a0c:    012c0064    d.,.    DCD    19660900
        0x01004a10:    03020008    ....    DCD    50462728
        0x01004a14:    09020128    (...    DCD    151126312
        0x01004a18:    2a020200    ...*    DCD    704774656
        0x01004a1c:    000a0101    ....    DCD    655617
        0x01004a20:    01280302    ..(.    DCD    19399426
        0x01004a24:    02000b08    ....    DCD    33557256
        0x01004a28:    00062a03    .*..    DCD    403971
        0x01004a2c:    00000000    ....    DCD    0
        0x01004a30:    02000c00    ....    DCD    33557504
        0x01004a34:    01022800    .(..    DCD    16918528
        0x01004a38:    02000d18    ....    DCD    33557784
        0x01004a3c:    20012803    .(.     DCD    536946691
        0x01004a40:    0502000e    ....    DCD    84017166
        0x01004a44:    000f002a    *...    DCD    983082
        0x01004a48:    02290202    ..).    DCD    36241922
        0x01004a4c:    00100000    ....    DCD    1048576
        0x01004a50:    02280002    ..(.    DCD    36175874
        0x01004a54:    00111804    ....    DCD    1120260
        0x01004a58:    01280302    ..(.    DCD    19399426
        0x01004a5c:    02001216    ....    DCD    33559062
        0x01004a60:    00012a07    .*..    DCD    76295
        0x01004a64:    02020013    ....    DCD    33685523
        0x01004a68:    00000229    )...    DCD    553
        0x01004a6c:    00020014    ....    DCD    131092
        0x01004a70:    180f0228    (...    DCD    403636776
        0x01004a74:    03020015    ....    DCD    50462741
        0x01004a78:    16120128    (...    DCD    370278696
        0x01004a7c:    2a190200    ...*    DCD    706281984
        0x01004a80:    00173801    .8..    DCD    1521665
        0x01004a84:    02280002    ..(.    DCD    36175874
        0x01004a88:    0018180a    ....    DCD    1579018
        0x01004a8c:    01280302    ..(.    DCD    19399426
        0x01004a90:    02001902    ....    DCD    33560834
        0x01004a94:    00032a23    #*..    DCD    207395
        0x01004a98:    001a0000    ....    DCD    1703936
        0x01004a9c:    01280302    ..(.    DCD    19399426
        0x01004aa0:    02001b02    ....    DCD    33561346
        0x01004aa4:    46082a29    )*.F    DCD    1174940201
        0x01004aa8:    7467616c    lagt    DCD    1952932204
        0x01004aac:    1c706972    rip.    DCD    477129074
        0x01004ab0:    28030200    ...(    DCD    671285760
        0x01004ab4:    001d0201    ....    DCD    1901057
        0x01004ab8:    062a2402    .$*.    DCD    103425026
        0x01004abc:    68636979    yich    DCD    1751345529
        0x01004ac0:    001e7069    ip..    DCD    1994857
        0x01004ac4:    01280302    ..(.    DCD    19399426
        0x01004ac8:    02001f02    ....    DCD    33562370
        0x01004acc:    63042a25    %*.c    DCD    1661217317
        0x01004ad0:    20336d6f    om3     DCD    540241263
        0x01004ad4:    28030200    ...(    DCD    671285760
        0x01004ad8:    00210201    ..!.    DCD    2163201
        0x01004adc:    032a2602    .&*.    DCD    53093890
        0x01004ae0:    22302e31    1.0"    DCD    573582897
        0x01004ae4:    28030200    ...(    DCD    671285760
        0x01004ae8:    00230201    ..#.    DCD    2294273
        0x01004aec:    032a2802    .(*.    DCD    53094402
        0x01004af0:    24302e31    1.0$    DCD    607137329
        0x01004af4:    28030200    ...(    DCD    671285760
        0x01004af8:    00250201    ..%.    DCD    2425345
        0x01004afc:    032a2a02    .**.    DCD    53094914
        0x01004b00:    26302e31    1.0&    DCD    640691761
        0x01004b04:    28030200    ...(    DCD    671285760
        0x01004b08:    00270201    ..'.    DCD    2556417
        0x01004b0c:    042a2502    .%*.    DCD    69870850
        0x01004b10:    336d6f63    com3    DCD    862809955
        0x01004b14:    00020028    (...    DCD    131112
        0x01004b18:    e4551028    (.U.    DCD    3830779944
        0x01004b1c:    9fafd205    ....    DCD    2679099909
        0x01004b20:    4ae58fa9    ...J    DCD    1256558505
        0x01004b24:    5343fe7d    }.CS    DCD    1396964989
        0x01004b28:    00294953    SI).    DCD    2705747
        0x01004b2c:    01280302    ..(.    DCD    19399426
        0x01004b30:    10002a12    .*..    DCD    268446226
        0x01004b34:    47249616    ..$G    DCD    1193580054
        0x01004b38:    ba6123c6    .#a.    DCD    3126928326
        0x01004b3c:    1e4d4bd9    .KM.    DCD    508382169
        0x01004b40:    49535343    CSSI    DCD    1230197571
        0x01004b44:    00000014    ....    DCD    20
        0x01004b48:    00000000    ....    DCD    0
        0x01004b4c:    00000000    ....    DCD    0
        0x01004b50:    00000000    ....    DCD    0
        0x01004b54:    00000000    ....    DCD    0
        0x01004b58:    02002b00    .+..    DCD    33565440
        0x01004b5c:    00022902    .)..    DCD    141570
        0x01004b60:    02002c00    .,..    DCD    33565696
        0x01004b64:    08012803    .(..    DCD    134293507
        0x01004b68:    b310002d    -...    DCD    3004170285
        0x01004b6c:    be34729b    .r4.    DCD    3191108251
        0x01004b70:    f4a8d4ec    ....    DCD    4104705260
        0x01004b74:    43884143    CA.C    DCD    1133003075
        0x01004b78:    14495353    SSI.    DCD    340349779
        0x01004b7c:    00000000    ....    DCD    0
        0x01004b80:    00000000    ....    DCD    0
        0x01004b84:    00000000    ....    DCD    0
        0x01004b88:    00000000    ....    DCD    0
        0x01004b8c:    00000000    ....    DCD    0
        0x01004b90:    0302002e    ....    DCD    50462766
        0x01004b94:    2f040128    (../    DCD    788791592
        0x01004b98:    69fe1000    ...i    DCD    1778257920
        0x01004b9c:    19569aca    ..V.    DCD    425106122
        0x01004ba0:    4d02abf6    ...M    DCD    1292020726
        0x01004ba4:    53436daa    .mCS    DCD    1396927914
        0x01004ba8:    00144953    SI..    DCD    1329491
        0x01004bac:    00000000    ....    DCD    0
        0x01004bb0:    00000000    ....    DCD    0
        0x01004bb4:    00000000    ....    DCD    0
        0x01004bb8:    00000000    ....    DCD    0
        0x01004bbc:    30000000    ...0    DCD    805306368
        0x01004bc0:    28030200    ...(    DCD    671285760
        0x01004bc4:    00311a01    ..1.    DCD    3217921
        0x01004bc8:    a6031810    ....    DCD    2785220624
        0x01004bcc:    ecd85e28    (^..    DCD    3973602856
        0x01004bd0:    a3481c91    ..H.    DCD    2739412113
        0x01004bd4:    535343ac    .CSS    DCD    1397965740
        0x01004bd8:    00001449    I...    DCD    5193
        0x01004bdc:    00000000    ....    DCD    0
        0x01004be0:    00000000    ....    DCD    0
        0x01004be4:    00000000    ....    DCD    0
        0x01004be8:    00000000    ....    DCD    0
        0x01004bec:    00320000    ..2.    DCD    3276800
        0x01004bf0:    02290202    ..).    DCD    36241922
        0x01004bf4:    00000000    ....    DCD    0
        0x01004bf8:    000155aa    .U..    DCD    87466
        0x01004bfc:    aa024000    .@..    DCD    2852274176
        0x01004c00:    10000255    U...    DCD    268436053
        0x01004c04:    aa022040    @ ..    DCD    2852266048
        0x01004c08:    14000155    U...    DCD    335544661
        0x01004c0c:    55aa0440    @..U    DCD    1437205568
        0x01004c10:    40170001    ...@    DCD    1075249153
        0x01004c14:    0155aa09    ..U.    DCD    22391305
        0x01004c18:    68402000    . @h    DCD    1749032960
        0x01004c1c:    000255aa    .U..    DCD    153002
        0x01004c20:    02444027    '@D.    DCD    38027303
        0x01004c24:    000155aa    .U..    DCD    87466
        0x01004c28:    aa04402a    *@..    DCD    2852405290
        0x01004c2c:    33000155    U..3    DCD    855638357
        0x01004c30:    55aa0240    @..U    DCD    1437205056
        0x01004c34:    41760007    ..vA    DCD    1098252295
        0x01004c38:    0a30840f    ..0.    DCD    170951695
        0x01004c3c:    aa32b20b    ..2.    DCD    2855449099
        0x01004c40:    57000255    U..W    DCD    1459618389
        0x01004c44:    aa0b8b41    A...    DCD    2852883265
        0x01004c48:    a1000855    U...    DCD    2701133909
        0x01004c4c:    00000000    ....    DCD    0
        0x01004c50:    00000000    ....    DCD    0
        0x01004c54:    0255aa00    ..U.    DCD    39168512
        0x01004c58:    0240bd00    ..@.    DCD    37797120
        0x01004c5c:    0855aa24    $.U.    DCD    139831844
        0x01004c60:    4040ad00    ..@@    DCD    1077980416
        0x01004c64:    32020000    ...2    DCD    838991872
        0x01004c68:    aa020000    ....    DCD    2852257792
        0x01004c6c:    bb000255    U...    DCD    3137339989
        0x01004c70:    aa002040    @ ..    DCD    2852134976
        0x01004c74:    b7000455    U...    DCD    3070231637
        0x01004c78:    00002040    @ ..    DCD    8256
        0x01004c7c:    0455aa20     .U.    DCD    72722976
        0x01004c80:    8040bf00    ..@.    DCD    2151726848
        0x01004c84:    aa100004    ....    DCD    2853175300
        0x01004c88:    e2000555    U...    DCD    3791652181
        0x01004c8c:    050e0844    D...    DCD    84805700
        0x01004c90:    55aa0004    ...U    DCD    1437204484
        0x01004c94:    42020002    ...B    DCD    1107427330
        0x01004c98:    55aa1f30    0..U    DCD    1437212464
        0x01004c9c:    42100001    ...B    DCD    1108344833
        0x01004ca0:    0155aa20     .U.    DCD    22391328
        0x01004ca4:    0141e000    ..A.    DCD    21094400
        0x01004ca8:    000f55aa    .U..    DCD    1004970
        0x01004cac:    ba4b4b16    .KK.    DCD    3125496598
        0x01004cb0:    e056d055    U.V.    DCD    3763785813
        0x01004cb4:    6c588857    W.Xl    DCD    1817741399
        0x01004cb8:    ff071059    Y...    DCD    4278653017
        0x01004cbc:    0255aaff    ..U.    DCD    39168767
        0x01004cc0:    1640c300    ..@.    DCD    373342976
        0x01004cc4:    7e4b        K~      DCW    32331
        0x01004cc6:    13          .       DCB    19
    .constdata
    print_dots_calculate_table
        0x01004cc7:    00          .       DCB    0
        0x01004cc8:    01020101    ....    DCD    16908545
        0x01004ccc:    01030202    ....    DCD    16974338
        0x01004cd0:    02030202    ....    DCD    33751554
        0x01004cd4:    01040303    ....    DCD    17040131
        0x01004cd8:    02030202    ....    DCD    33751554
        0x01004cdc:    02040303    ....    DCD    33817347
        0x01004ce0:    03040303    ....    DCD    50594563
        0x01004ce4:    01050404    ....    DCD    17105924
        0x01004ce8:    02030202    ....    DCD    33751554
        0x01004cec:    02040303    ....    DCD    33817347
        0x01004cf0:    03040303    ....    DCD    50594563
        0x01004cf4:    02050404    ....    DCD    33883140
        0x01004cf8:    03040303    ....    DCD    50594563
        0x01004cfc:    03050404    ....    DCD    50660356
        0x01004d00:    04050404    ....    DCD    67437572
        0x01004d04:    01060505    ....    DCD    17171717
        0x01004d08:    02030202    ....    DCD    33751554
        0x01004d0c:    02040303    ....    DCD    33817347
        0x01004d10:    03040303    ....    DCD    50594563
        0x01004d14:    02050404    ....    DCD    33883140
        0x01004d18:    03040303    ....    DCD    50594563
        0x01004d1c:    03050404    ....    DCD    50660356
        0x01004d20:    04050404    ....    DCD    67437572
        0x01004d24:    02060505    ....    DCD    33948933
        0x01004d28:    03040303    ....    DCD    50594563
        0x01004d2c:    03050404    ....    DCD    50660356
        0x01004d30:    04050404    ....    DCD    67437572
        0x01004d34:    03060505    ....    DCD    50726149
        0x01004d38:    04050404    ....    DCD    67437572
        0x01004d3c:    04060505    ....    DCD    67503365
        0x01004d40:    05060505    ....    DCD    84280581
        0x01004d44:    01070606    ....    DCD    17237510
        0x01004d48:    02030202    ....    DCD    33751554
        0x01004d4c:    02040303    ....    DCD    33817347
        0x01004d50:    03040303    ....    DCD    50594563
        0x01004d54:    02050404    ....    DCD    33883140
        0x01004d58:    03040303    ....    DCD    50594563
        0x01004d5c:    03050404    ....    DCD    50660356
        0x01004d60:    04050404    ....    DCD    67437572
        0x01004d64:    02060505    ....    DCD    33948933
        0x01004d68:    03040303    ....    DCD    50594563
        0x01004d6c:    03050404    ....    DCD    50660356
        0x01004d70:    04050404    ....    DCD    67437572
        0x01004d74:    03060505    ....    DCD    50726149
        0x01004d78:    04050404    ....    DCD    67437572
        0x01004d7c:    04060505    ....    DCD    67503365
        0x01004d80:    05060505    ....    DCD    84280581
        0x01004d84:    02070606    ....    DCD    34014726
        0x01004d88:    03040303    ....    DCD    50594563
        0x01004d8c:    03050404    ....    DCD    50660356
        0x01004d90:    04050404    ....    DCD    67437572
        0x01004d94:    03060505    ....    DCD    50726149
        0x01004d98:    04050404    ....    DCD    67437572
        0x01004d9c:    04060505    ....    DCD    67503365
        0x01004da0:    05060505    ....    DCD    84280581
        0x01004da4:    03070606    ....    DCD    50791942
        0x01004da8:    04050404    ....    DCD    67437572
        0x01004dac:    04060505    ....    DCD    67503365
        0x01004db0:    05060505    ....    DCD    84280581
        0x01004db4:    04070606    ....    DCD    67569158
        0x01004db8:    05060505    ....    DCD    84280581
        0x01004dbc:    05070606    ....    DCD    84346374
        0x01004dc0:    06070606    ....    DCD    101123590
        0x01004dc4:    00080707    ....    DCD    526087
    .constdata
    motor_spwm_table
        0x01004dc8:    01340124    $.4.    DCD    20185380
        0x01004dcc:    01530144    D.S.    DCD    22217028
        0x01004dd0:    01610159    Y.a.    DCD    23134553
        0x01004dd4:    0177016f    o.w.    DCD    24576367
        0x01004dd8:    0189017c    |...    DCD    25756028
        0x01004ddc:    01a4019f    ....    DCD    27525535
        0x01004de0:    01ae01a9    ....    DCD    28180905
        0x01004de4:    01b701b3    ....    DCD    28770739
        0x01004de8:    01bf01bb    ....    DCD    29295035
        0x01004dec:    000001c3    ....    DCD    451
    .conststring
        0x01004df0:    33323130    0123    DCD    858927408
        0x01004df4:    37363534    4567    DCD    926299444
        0x01004df8:    42413938    89AB    DCD    1111570744
        0x01004dfc:    46454443    CDEF    DCD    1178944579
        0x01004e00:    00000000    ....    DCD    0
        0x01004e04:    33323130    0123    DCD    858927408
        0x01004e08:    37363534    4567    DCD    926299444
        0x01004e0c:    62613938    89ab    DCD    1650538808
        0x01004e10:    66656463    cdef    DCD    1717920867
        0x01004e14:    00000000    ....    DCD    0
    Region$$Table$$Base
        0x01004e18:    01004e38    8N..    DCD    16797240
        0x01004e1c:    00020000    ....    DCD    131072
        0x01004e20:    00000048    H...    DCD    72
        0x01004e24:    0100372c    ,7..    DCD    16791340
        0x01004e28:    01004e80    .N..    DCD    16797312
        0x01004e2c:    00020048    H...    DCD    131144
        0x01004e30:    00002418    .$..    DCD    9240
        0x01004e34:    0100373c    <7..    DCD    16791356
    Region$$Table$$Limit

** Section #4 'RW_IRAM2' (SHT_PROGBITS) [SHF_ALLOC + SHF_WRITE]
    Size   : 72 bytes (alignment 4)
    Address: 0x00020000


** Section #5 'RW_IRAM2' (SHT_NOBITS) [SHF_ALLOC + SHF_WRITE]
    Size   : 9240 bytes (alignment 4)
    Address: 0x00020048


** Section #6 '.debug_abbrev' (SHT_PROGBITS)
    Size   : 1476 bytes


** Section #7 '.debug_frame' (SHT_PROGBITS)
    Size   : 6188 bytes


** Section #8 '.debug_info' (SHT_PROGBITS)
    Size   : 42768 bytes


** Section #9 '.debug_line' (SHT_PROGBITS)
    Size   : 17124 bytes


** Section #10 '.debug_loc' (SHT_PROGBITS)
    Size   : 13528 bytes


** Section #11 '.debug_macinfo' (SHT_PROGBITS)
    Size   : 99688 bytes


** Section #12 '.debug_pubnames' (SHT_PROGBITS)
    Size   : 3953 bytes


** Section #13 '.symtab' (SHT_SYMTAB)
    Size   : 10320 bytes (alignment 4)
    String table #14 '.strtab'
    Last local symbol no. 340


** Section #14 '.strtab' (SHT_STRTAB)
    Size   : 7044 bytes


** Section #15 '.note' (SHT_NOTE)
    Size   : 36 bytes (alignment 4)


** Section #16 '.comment' (SHT_PROGBITS)
    Size   : 16704 bytes


** Section #17 '.shstrtab' (SHT_STRTAB)
    Size   : 172 bytes


address     size       variable name                            type
0x00022418  0x48       testdata                                 array[72] of uint8_t

address     size       variable name                            type
0x00020040  0x2        testline                                 uint16_t

address     size       variable name                            type
0x00020a98  0x1800     middle_mmu_base                          array[6144] of uint8_t

address     size       variable name                            type
0x00022298  0x180      middle_mmu_mapbase                       array[192] of uint16_t

address     size       variable name                            type
0x00020a2c  0x48       middle_print_line_data                   array[72] of uint8_t

address     size       variable name                            type
0x0002003c  0x4        middle_print_list                        pointer to middle_print_list_struct

address     size       variable name                            type
0x00020a74  0x24       middle_print_mgr                         middle_print_manager_struct
0x00020a74  0x1        middle_print_mgr.print_sta               uint8_t
0x00020a75  0x1        middle_print_mgr.motor_sta               uint8_t
0x00020a76  0x1      * middle_print_mgr.motor_step              uint8_t
0x00020a78  0x2        middle_print_mgr.slice_number            uint16_t
0x00020a7a  0x2        middle_print_mgr.slice_total             uint16_t
0x00020a7c  0x2      * middle_print_mgr.slice_bits              uint16_t
0x00020a80  0x4        middle_print_mgr.motor_step_move         uint32_t
0x00020a84  0x4        middle_print_mgr.motor_step_total        uint32_t
0x00020a88  0x4        middle_print_mgr.motor_step_target       uint32_t
0x00020a8c  0x4        middle_print_mgr.slice_heat_time         uint32_t
0x00020a90  0x4        middle_print_mgr.motor_speed_time_last   uint32_t
0x00020a94  0x4        middle_print_mgr.motor_speed_time        uint32_t

address     size       variable name                            type
0x01004dc8  0x26       motor_spwm_table                         array[19] of const uint16_t

address     size       variable name                            type
0x00020848  0x1e4      mid_printlistm                           middle_printlist_manager_struct
0x00020848  0x2        mid_printlistm.list_put_index            uint16_t
0x0002084a  0x2        mid_printlistm.list_get_index            uint16_t
0x0002084c  0x1e0      mid_printlistm.list                      array[10] of middle_print_list_struct

address     size       variable name                            type
0x01004cc7  0x100      print_dots_calculate_table               array[256] of const uint8_t

address     size       variable name                            type
0x00020038  0x4        value_rtc_1s                             uint32_t

address     size       variable name                            type
0x00020030  0x4        hal_button_clicked_timeout               int

address     size       variable name                            type
0x00020034  0x4        hal_button_clicked_value                 int

address     size       variable name                            type
0x0002002c  0x4        hal_time_period_exec                     hal_time_period_exec_func

address     size       variable name                            type
0x00020028  0x4        hal_systick_time_count                   volatile uint32_t

address     size       variable name                            type
0x00020020  0x4        IpcRx                                    pointer to IPC_TypeDef

address     size       variable name                            type
0x00020024  0x4        IpcTx                                    pointer to IPC_TypeDef

address     size       variable name                            type
0x0002001c  0x1        ipc_inited                               Boolean

address     size       variable name                            type
0x00000000  0x100      ipcrecbuf                                array[256] of uint8_t

address     size       variable name                            type
0x0100429f  0xa28      bt_code                                  array[2600] of const unsigned char

address     size       variable name                            type
0x00020018  0x4        SystickCount                             tick

address     size       variable name                            type
0x00020048  0x400      uart0_DMA_buf                            array[1024] of uint8_t

address     size       variable name                            type
0x00020448  0x400      uart1_DMA_buf                            array[1024] of uint8_t

address     size       variable name                            type
0x00020000  0x6        ExtiEn                                   array[3] of uint16_t

address     size       variable name                            type
0x0002000c  0x6        ExtiRisingFallingTrig                    array[3] of uint16_t

address     size       variable name                            type
0x00020012  0x6        ExtiStatus                               array[3] of uint16_t

address     size       variable name                            type
0x00020006  0x6        ExtiTrig                                 array[3] of uint16_t

address     size       variable name                            type
0x01004010  0x4        g_pcHex1                                 const pointer to const int8_t

address     size       variable name                            type
0x01004014  0x4        g_pcHex2                                 const pointer to const int8_t

